PAGE D2
ROM: 024010 - 02600F
----------------------------------------------------
     00 01 02 03 04 05 06 07 08 09 0A 0B 0C 0D 0E 0F
8000 4C B8 89

Function $8000 -> Jump to main page function

8000 JMP $89B8
----------------------------------------------------
     00 01 02 03 04 05 06 07 08 09 0A 0B 0C 0D 0E 0F
8000          20 BF E4 00 00 A5 67 70 D7 12 80 66 D6 
8010 28 80 A0 0B 00 5B C8 D8 27 80 A0 0B 00 8B 1F C6 
8020 D8 27 80 68 D6 28 80 67 E9 8C E0 02 61 E9 C1 E0 
8030 02 CF 

Function $8003 (00 00)

8008 A5 67 70    / $7067 (Current port)
800B D7 12 80
if
	800E 66
	800F D6 28 80
else
	8012 A0 0B 00
	8015 5B
	8016 C8
	8017 D8 27 80
	
	801A A0 0B 00
	801D 8B 1F
	801F C6
	8020 D8 27 80
		
	if
		8023 68
		8024 D6 28 80
	else
		8027 67
	
8028 E9 8C E0 02 / Call $E08C

     00 01 02 03 04 05 06 07 08 09 0A 0B 0C 0D 0E 0F
8020 D8 27 80 68 D6 28 80 67 E9 8C E0 02 61 E9 C1 E0 
8030 02 CF 
----------------------------------------------------
     00 01 02 03 04 05 06 07 08 09 0A 0B 0C 0D 0E 0F
8030       20 BF E4 FC FF A0 0B 00 8B 32 C9 D8 4B 80 
8040 A0 0B 00 8C 00 93 BB D3 2B 0B CF A0 0B 00 52 C0 
8050 D7 5B 80 A0 0B 00 5C C0 D8 5D 80 45 CF A0 0B 00 
8060 55 B5 8C 0A B5 BB 2A 3A E9 0C D3 02 2B 0B CF 

Function $8032

8037 A0 0B 00
803A 8B 32
803C C9
803D D8 4B 80

	8040 A0 0B 00
	8043 8C 00 93 .. / $9300
	8046 BB
	8047 D3
	8048 2B
	8049 0B
	804A CF

804B A0 0B 00
804E 52
804F C0
8050 D7 5B 80

8053 A0 0B 00
8056 5C
8057 C0
8058 D8 5D 80

805B 45
805C CF

805D A0 0B 00
8060 55
8061 B5
8062 8C 0A B5 
8065 BB
8066 2A
8067 3A
8068 E9 0C D3 02 / Call $D30C (get byte)
806C 2B
806D 0B
806E CF
----------------------------------------------------
     00 01 02 03 04 05 06 07 08 09 0A 0B 0C 0D 0E 0F
8060                                              20 
8070 BF E4 FC FF 0C 53 C6 D8 7E 80 40 D6 81 80 0C 8F 
8080 FE 2A AA 96 73 0A D2 D2 B3 0D 54 BD B4 BB 8C 48 
8090 93 BB B0 B3 0A D2 D2 B3 0D 54 BD B4 BB 8C 46 93 
80A0 BB B0 B3 0A D2 8C F3 93 BB D3 B3 0A D2 8C F2 93 
80B0 BB D3 B3 0C D2 8C E7 93 BB D3 B3 0C D2 8C E6 93 
80C0 BB D3 B3 69 E9 D4 EE 10 CF 

Function $806F

8074 0C
8075 53
8076 C6
8077 D8 7E 80

if
	807A 40
	807B D6 81 80
else
	807E 0C
	807F 8F FE
	
8081 2A

8082 AA 96 73 .. / $7396
8085 0A
8086 D2
8087 D2
8088 B3
8089 0D
808A 54
808B BD
808C B4
808D BB
808E 8C 48 93 .. / $9348
8091 BB
8092 B0
8093 B3
8094 0A
8095 D2
8096 D2
8097 B3
8098 0D
8099 54
809A BD
809B B4
809C BB
809D 8C 46 93 .. / $9346
80A0 BB
80A1 B0
80A2 B3
80A3 0A
80A4 D2
80A5 8C F3 93 .. / $93F3
80A8 BB
80A9 D3
80AA B3
80AB 0A
80AC D2
80AD 8C F2 93 .. / $93F2
80B0 BB
80B1 D3
80B2 B3
80B3 0C
80B4 D2
80B5 8C E7 93 .. / $93E7
80B8 BB
80B9 D3
80BA B3
80BB 0C
80BC D2
80BD 8C E6 93 .. / $93E6
80C0 BB
80C1 D3
80C2 B3
80C3 69
80C4 E9 D4 EE 10 / Call $EED4 -> Sysop 0x09
80C8 CF
----------------------------------------------------
     00 01 02 03 04 05 06 07 08 09 0A 0B 0C 0D 0E 0F
80C0                            20 BF E4 F9 FF 8A E1 
80D0 00 A8 96 73 A0 0B 00 B3 E9 32 80 02 85 FB 81 FB 
80E0 53 C0 D7 EC 80 81 FB 55 C0 D8 F2 80 8A E0 00 A8 
80F0 96 73 AA 96 73 81 FB D2 D2 8C C8 93 BB B0 B3 81
8100 FB D2 D2 8C C6 93 BB B0 B3 6E 8D 1C 66 62 69 E9 
8110 D4 EE 10 A0 0B 00 8C 76 6F BB D3 A2 FF FF 40 A9 
8120 66 70 40 D6 9D 81 A0 0B 00 8B 32 C6 D8 CE 81 81 
8130 FD 51 C0 D8 67 81 A0 FF FF 54 DA D7 67 81 87 FB 
8140 61 E9 6F 80 04 40 85 F9 60 66 81 F9 8B 1C B5 8C 
8150 9E 73 BB B3 E9 3A F3 06 81 F9 D0 85 F9 81 F9 54 
8160 C6 D7 48 81 D6 9A 81 81 FD 52 C0 D8 C4 81 A0 FF 
8170 FF 8B 10 DA D8 C4 81 87 FB 65 E9 6F 80 04 61 63 
8180 8E 24 74 E9 3A F3 06 81 FD 58 C6 D8 9A 81 41 83 
8190 FD BD CD A5 66 70 DB A9 66 70 81 FD D0 85 FD 81 
81A0 FD 59 C6 D7 26 81 8D 10 60 81 FB 54 BD 8C B2 92 
81B0 BB B3 66 E9 D4 EE 08 8D 10 8D 10 8E 76 F3 66 E9 
81C0 D4 EE 08 CF 81 FD 52 C0 D8 87 81 D6 9A 81 81 FD 
81D0 56 C6 D8 87 81 87 FB 87 FD E9 6F 80 04 D6 9A 81 

Function $80C9
Args:
+0B Port #

80CE 8A E1 00
80D1 A8 96 73 .. / $7396

80D4 A0 0B 00
80D7 B3
80D8 E9 32 80 02 / Call $8032
80DC 85 FB

80DE 81 FB
80E0 53
80E1 C0
80E2 D7 EC 80

80E5 81 FB
80E7 55
80E8 C0
80E9 D8 F2 80

80EC 8A E0 00
80EF A8 96 73 .. / $7396

80F2 AA 96 73
80F5 81 FB
80F7 D2
80F8 D2
80F9 8C C8 93 .. / $93C8
80FC BB
80FD B0
80FE B3
80FF 81 FB
8101 D2
8102 D2
8103 8C C6 93 .. / $93C6
8106 BB
8107 B0
8108 B3
8109 6E
810A 8D 1C
810C 66
810D 62
810E 69
810F E9 D4 EE 10 / Call $EED4 -> Sysop 0x09 (Print graphic)

8113 A0 0B 00
8116 8C 76 6F .. / $6F76
8119 BB
811A D3
811B A2 FF FF

811E 40
811F A9 66 70 .. / $7066

8122 40
8123 D6 9D 81

8126 A0 0B 00
8129 8B 32
812B C6
812C D8 CE 81

812F 81 FD
8131 51
8132 C0
8133 D8 67 81

8136 A0 FF FF
8139 54
813A DA
813B D7 67 81

813E 87 FB
8140 61
8141 E9 6F 80 04 / Call $806F

(...)

8167

819D

81CE

     00 01 02 03 04 05 06 07 08 09 0A 0B 0C 0D 0E 0F
8130 FD 51 C0 D8 67 81 A0 FF FF 54 DA D7 67 81 87 FB 
8140 61 E9 6F 80 04 40 85 F9 60 66 81 F9 8B 1C B5 8C 
8150 9E 73 BB B3 E9 3A F3 06 81 F9 D0 85 F9 81 F9 54 
8160 C6 D7 48 81 D6 9A 81 81 FD 52 C0 D8 C4 81 A0 FF 
8170 FF 8B 10 DA D8 C4 81 87 FB 65 E9 6F 80 04 61 63 
8180 8E 24 74 E9 3A F3 06 81 FD 58 C6 D8 9A 81 41 83 
8190 FD BD CD A5 66 70 DB A9 66 70 81 FD D0 85 FD 81 
81A0 FD 59 C6 D7 26 81 8D 10 60 81 FB 54 BD 8C B2 92 
81B0 BB B3 66 E9 D4 EE 08 8D 10 8D 10 8E 76 F3 66 E9 
81C0 D4 EE 08 CF 81 FD 52 C0 D8 87 81 D6 9A 81 81 FD 
81D0 56 C6 D8 87 81 87 FB 87 FD E9 6F 80 04 D6 9A 81 
----------------------------------------------------
     00 01 02 03 04 05 06 07 08 09 0A 0B 0C 0D 0E 0F
81E0 20 BF E4 FC FF 0C 2A 40 2B D6 F2 81 0B D0 2B 0A 
81F0 D0 2A 3A E9 0C D3 02 D7 EC 81 64 89 18 1B B8 B3 
8200 89 1E 1B BC B4 BC B3 E9 0B C7 04 3C E9 6B D5 02 
8210 CF 

Function $81E0 (FC FF)
81E5 0C
81E6 2A
81E7 40
81E8 2B
81E9 D6 F2 81

Loop:
81EC 0B
81ED D0
81EE 2B
81EF 0A
81F0 D0
81F1 2A

81F2 3A
81F3 39 0C D3 02 /
81F7 D7 EC 81    /

81FA 64          /
81FB 89 18       /
81FD 1B          /
81FE B8          /
81FF B3          /
8200 89 1E       /
8202 1B          /
8203 BC          /
8204 B4          /
8205 BC          /
8206 B3          /
8207 E9 0B C7 04 / Call $C70B
820B 3C          /
820C E9 6B D5 02 / Call $D56B

8210 CF          / Return
----------------------------------------------------
     00 01 02 03 04 05 06 07 08 09 0A 0B 0C 0D 0E 0F
8210    20 BF E4 EC FF A5 67 70 8B 13 B5 8C D8 AF BB 
8220 2A A5 68 70 51 C1 D8 31 82 41 A9 68 70 40 A8 69 
8230 70 AC 75 A6 AC 37 CE A5 63 66 B3 E9 03 80 02 8E 
8240 E1 00 8E 4C A5 8E DC A4 64 8D 1C 62 62 69 E9 D4 
8250 EE 10 3A E9 E0 81 02 AC 40 A3 AC 6D A3 AC 9D A3 
8260 8E 83 86 8E DE 00 61 E9 3A DE 06 A5 67 70 B3 E9 
8270 C9 80 02 60 8D 12 8D 1C 62 62 E9 05 A4 0A CF 

Function $8211 (EC FF)

8216 A5 67 70
8219 8B 13
821B B5
821C 8C D8 AF
821F BB
8220 2A

8221 A5 68 70
8224 51
8225 C1
8226 D8 31 82

if
	8229 41
	822A A9 68 70
	822D 40
	822E A8 69 70 .. / $7069

8231 AC 75 A6    / Call $A675 -> Black out palettes
8234 AC 37 CE    / Call $CE37 -> Wipe sprites and black out nametable

     00 01 02 03 04 05 06 07 08 09 0A 0B 0C 0D 0E 0F
8230 70 AC 75 A6 AC 37 CE A5 63 66 B3 E9 03 80 02 8E 
8240 E1 00 8E 4C A5 8E DC A4 64 8D 1C 62 62 69 E9 D4 
8250 EE 10 3A E9 E0 81 02 AC 40 A3 AC 6D A3 AC 9D A3 
8260 8E 83 86 8E DE 00 61 E9 3A DE 06 A5 67 70 B3 E9 
8270 C9 80 02 60 8D 12 8D 1C 62 62 E9 05 A4 0A CF 
----------------------------------------------------
     00 01 02 03 04 05 06 07 08 09 0A 0B 0C 0D 0E 0F
8270                                              20 
8280 BF E4 F4 FF 61 6E 8D 1C 66 62 E9 05 A4 0A A4 69 
8290 72 2A A4 69 72 90 88 01 2B 61 6E 8D 1C 66 62 E9 
82A0 05 A4 0A 61 0C D2 8C 09 94 BB D3 B3 0C D2 8C 08 
82B0 94 BB D3 B3 0C D2 8C FB 93 BB D3 B3 0C D2 8C FA 
82C0 93 BB D3 B3 E9 05 A4 0A 0A 90 78 FE A8 69 72 61 
82D0 60 63 E9 D4 EE 06 0A 29 40 D6 E9 82 8D 3F 09 D0 
82E0 29 D1 B4 B3 D3 DA D4 07 D0 27 07 8C 88 01 C6 D7 
82F0 DC 82 0C D2 8C FA 93 BB D3 B3 0C D2 8C FB 93 BB 
8300 D3 8F FA 8B 1C B5 B4 BB 8F FE 26 0A 16 BB 29 0B
8310 28 40 D6 36 83 0C D2 8C 08 94 BB D3 B3 39 38 E9
8320 E0 DD 06 89 1C CD 09 BB 29 0C D2 8C 08 94 BB D3
8330 CD 08 BB 28 07 D0 27 0C D2 8C 09 94 BB D3 B3 07
8340 B4 C6 D7 15 83 8E FF 00 3A 60 6E 8D 1C 66 62 69
8350 E9 D4 EE 10 65 60 63 E9 D4 EE 06 CF 

Function $827F 

8284 61
8285 6E
8286 8D 1C
8288 66
8289 62
828A E9 05 A4 0A / Call $A405

828E A4 69 72    / $7269
8291 2A

8292 A4 69 72    / $7269
8295 90 88 01
8298 2B

8299 61
829A 6E
829B 8D 1C
829D 66
829E 62
829F E9 05 A4 0A / Call $A405

82A3 61
82A4 0C
82A5 D2
82A6 8C 09 94
82A9 BB
82AA D3
82AB B3
82AC 0C
82AD D2
82AE 8C 08 94
82B1 BB
82B2 D3
82B3 B3
82B4 0C
82B5 D2
82B6 8C FB 93
82B9 BB
82BA D3
82BB B3
82BC 0C
82BD D2
82BE 8C FA 93
82C1 BB
82C2 D3
82C3 B3
82C4 E9 05 A4 0A / Call $A405

     00 01 02 03 04 05 06 07 08 09 0A 0B 0C 0D 0E 0F
82C0 93 BB D3 B3 E9 05 A4 0A 0A 90 78 FE A8 69 72 61 
82D0 60 63 E9 D4 EE 06 0A 29 40 D6 E9 82 8D 3F 09 D0 
82E0 29 D1 B4 B3 D3 DA D4 07 D0 27 07 8C 88 01 C6 D7 
82F0 DC 82 0C D2 8C FA 93 BB D3 B3 0C D2 8C FB 93 BB 
8300 D3 8F FA 8B 1C B5 B4 BB 8F FE 26 0A 16 BB 29 0B
8310 28 40 D6 36 83 0C D2 8C 08 94 BB D3 B3 39 38 E9
8320 E0 DD 06 89 1C CD 09 BB 29 0C D2 8C 08 94 BB D3
8330 CD 08 BB 28 07 D0 27 0C D2 8C 09 94 BB D3 B3 07
8340 B4 C6 D7 15 83 8E FF 00 3A 60 6E 8D 1C 66 62 69
8350 E9 D4 EE 10 65 60 63 E9 D4 EE 06 CF 
----------------------------------------------------
     00 01 02 03 04 05 06 07 08 09 0A 0B 0C 0D 0E 0F
8350                                     20 BF E4 FC
8360 FF A4 69 72 2B 61 60 63 E9 D4 EE 06 8E FF 00 3B
8370 60 6E 8D 1C 66 62 69 E9 D4 EE 10 65 60 63 E9 D4
8380 EE 06 CF 

Function $835C

8361 A4 69 72 .. / $7269
8364 2B

8365 61
8366 60
8367 63
8368 E9 D4 EE 06 / Call $EED4 -> Sysop 0x03 (Set RAM bank 0 to Page 01)

836C 8E FF 00
836F 3B
8370 60
8371 6E
8372 8D 1C
8374 66
8375 62
8376 69
8377 E9 D4 EE 10 / Call $EED4 -> Sysop 0x09

837B 65
837C 60
837D 63
837E E9 D4 EE 06 / Call $EED4 -> Sysop 0x03 (Set RAM bank 0 to Page 05)

8382 CF
----------------------------------------------------
     00 01 02 03 04 05 06 07 08 09 0A 0B 0C 0D 0E 0F
8380          20 BF E4 FE FF A4 69 72 90 10 FC 2B 61
8390 60 63 E9 D4 EE 06 8E FF 00 0B 90 F8 01 B3 3B 8D
83A0 12 8D 1C 62 62 69 E9 D4 EE 10 65 60 63 E9 D4 EE
83B0 06 AC 40 A3 AC 6D A3 AC 9D A3 CF 

Function $8383

8388 A4 69 72 .. / $7269
838B 90 10 FC
838E 2B

838F 61
8390 60
8391 63
8392 E9 D4 EE 06 / Call $EED4 -> Sysop 0x03 (Set RAM bank 0 to page 01)

8396 8E FF 00
8399 0B
839A 90 F8 01
839D B3
829E 3B
839F 8D 12
83A1 8D 1C
83A3 62
83A4 62
83A5 69
83A6 E9 D4 EE 10 / Call $EED4 -> Sysop 0x09

83AA 65
83AB 60
83AC 63
83AD E9 D4 EE 06 / Call $EED4 -> Sysop 0x03 (Set RAM bank 0 to page 05)

83B1 AC 40 A3 .. / Call $A340
83B4 AC 6D A3 .. / Call $A36D
83B7 AC 9D A3 .. / Call $A39D

83BA CF 
----------------------------------------------------
     00 01 02 03 04 05 06 07 08 09 0A 0B 0C 0D 0E 0F
83B0                                  20 BF E4 FA FF
83C0 40 2A 0C 5E C1 D8 E3 83 41 2A 0C 8B 27 C0 D8 D5
83D0 83 63 D6 DF 83 A4 98 73 D8 E3 83 0C 8F F1 B3 E9
83E0 7F 82 02 0C D9 09 00 0E 00 0D 84 0F 00 52 84 10
83F0 00 5B 84 11 00 64 84 12 00 6A 84 13 00 73 84 14
8400 00 87 84 15 00 2C 84 27 00 90 84 19 84 8E CE 8A
8410 8E DE 00 61 E9 3A DE 06 2B A5 63 70 8C F0 00 C0
8420 D8 A2 84 AC 83 83 41 A9 63 70 0B CF 8E 2B 87 8E
8430 DD 00 61 E9 3A DE 06 2B 0B D8 19 84 60 8D 12 8D
8440 1C 62 62 E9 9B A4 0A AC 40 A3 AC 6D A3 AC 9D A3
8450 0B CF 8E 32 92 8E D3 00 D6 13 84 8E 6E 80 8E D9
8460 00 D6 13 84 8E 1E 8A D6 55 84 8E 7B 94 8E D4 00
8470 D6 13 84 8E 58 80 8E D7 00 61 E9 3A DE 06 2B A5
8480 9C 72 D8 19 84 0B CF 8E A7 82 8E D5 00 D6 13 84
8490 8E B1 80 8E D3 00 61 E9 3A DE 06 2B 0B D7 19 84
84A0 0B CF 0A D8 A9 84 AC 5C 83 0B CF 

Function $83BB

83C0 40
83C1 2A

83C2 0C
83C3 5E
83C4 C1
83C5 D8 E3 83

83C8 41
83C9 2A
83CA 0C
83CB 8B 27
83CD C0
83CE D8 D5 83

	83D1 63
	83D2 D6 DF 83

	83D5 A4 98 73 .. / $7398
	83D8 D8 E3 83
	
	83DB 0C
	83DC 8F F1
	83DE B3

83DF E9 7F 82 02 / Call $827F

83E3 0C
83E4 D9 09 00
     0E 00 0D 84
	 0F 00 52 84
	 10 00 5B 84
	 11 00 64 84
	 12 00 6A 84
	 13 00 73 84
	 14 00 87 84
	 15 00 2C 84
	 27 00 90 84
	       19 84
		   
Case 0E:
	840D 8E CE 8A
	8410 8E DE 00
	8413 61
	8414 E9 3A DE 06 / Call $DE3A -> DE:8ACE
	8418 2B
Default:
	8419 A5 63 70 .. / $7063
	841C 8C F0 00
	841F C0
	8420 D8 A2 84 
	
	8423 AC 83 83 .. / Call $8383
	
	8426 41
	8427 A9 63 70 .. / $7063
	842A 0B
	842B CF
Case 15:
	842C 8E 2B 87 .. / $872B
	842F 8E DD 00
	8432 61
	8433 E9 3A DE 06 / Call $DE3A -> DD:872B (Harbor menu)
	8437 2B
	
	8438 0B
	8439 D8 19 84
	
	843C 60
	843D 8D 12
	843F 8D 1C
	8441 62
	8442 62
	8443 E9 9B A4 0A / Call $A49B
	
	8447 AC 40 A3 .. / Call $A340
	844A AC 6D A3 .. / Call $A36D
	844D AC 9D A3 .. / Call $A39D
	8450 0B
	8451 CF 
Case 0F:
	8452 8E 32 92 
	8455 8E D3 00
	8458 D6 13 84    / Call $DE3A -> D3:9232 (Inn menu?)
Case 10:
845B
Case 11:
8464:
Case 12:
846A:
Case 13:
8473
Case 14:
8487
Case 27:
8490

84A2

     00 01 02 03 04 05 06 07 08 09 0A 0B 0C 0D 0E 0F
8450 0B CF 8E 32 92 8E D3 00 D6 13 84 8E 6E 80 8E D9
8460 00 D6 13 84 8E 1E 8A D6 55 84 8E 7B 94 8E D4 00
8470 D6 13 84 8E 58 80 8E D7 00 61 E9 3A DE 06 2B A5
8480 9C 72 D8 19 84 0B CF 8E A7 82 8E D5 00 D6 13 84
8490 8E B1 80 8E D3 00 61 E9 3A DE 06 2B 0B D7 19 84
84A0 0B CF 0A D8 A9 84 AC 5C 83 0B CF 
----------------------------------------------------
     00 01 02 03 04 05 06 07 08 09 0A 0B 0C 0D 0E 0F
84A0                                  20 BF E4 EA FF
84B0 0E 52 C2 D8 C0 84 0D D6 C1 84 8A 26 94 D6 CB 84
84C0 0C 53 BE 51 DA D7 BA 84 8A 16 94 23 0E 53 BD 2E
84D0 DE F0 FF 22 40 21 32 0D B3 03 D3 B4 BB D4 02 D0
84E0 22 03 D0 23 32 0E B3 03 D3 B4 BB D4 02 D0 22 03
84F0 D0 23 32 03 D3 D4 02 D0 22 03 D0 23 32 0C B3 03
8500 D3 B4 BB D4 02 D0 22 03 D0 23 01 D0 21 01 54 C6
8510 D7 D6 84 64 8D 16 DE F0 FF B3 6D E9 D4 EE 08 CF
----------------------------------------------------
     00 01 02 03 04 05 06 07 08 09 0A 0B 0C 0D 0E 0F
8520 20 BF E4 00 00 64 8D 16 6C E9 D4 EE 06 CF 

Function $8520

8525 64
8526 8D 16
8528 6C
8529 E9 D4 EE 06 / Call $EED4 -> Sysop 0x0C (Wipe sprites?)
852D CF
----------------------------------------------------
     00 01 02 03 04 05 06 07 08 09 0A 0B 0C 0D 0E 0F
8520                                           20 BF
8530 E4 FE FF 0F D9 04 00 10 00 49 85 20 00 64 85 40
8540 00 7E 85 80 00 97 85 60 85 0D 77 D6 57 85 61 3B
8550 3C E9 AB 84 06 0B D1 2B 0B 1D C9 D7 4E 85 41 2E
8560 0E 53 DA CF 0D 8F F9 D6 73 85 60 3B 3C E9 AB 84
8570 06 0B D0 2B 0B 1D C7 D7 6A 85 40 D6 5F 85 0C 77
8580 D6 8C 85 63 3D 3B E9 AB 84 06 0B D1 2B 0B 1C C9
8590 D7 83 85 43 D6 5F 85 0C 8F F9 D6 A6 85 62 3D 3B
85A0 E9 AB 84 06 0B D0 2B 0B 1C C7 D7 9D 85 42 D6 5F
85B0 85 
----------------------------------------------------
     00 01 02 03 04 05 06 07 08 09 0A 0B 0C 0D 0E 0F
85B0    20 BF E4 00 00 0D 54 C0 D8 CC 85 0C 55 C6 D8
85C0 C4 85 41 CF 0C 5B C6 D8 E6 85 45 CF 0C 55 C6 D8
85D0 D4 85 43 CF 0C 8B 12 C6 D8 DD 85 44 CF 0C 8B 19
85E0 C6 D8 E6 85 42 CF CF 
----------------------------------------------------
     00 01 02 03 04 05 06 07 08 09 0A 0B 0C 0D 0E 0F
85E0                      20 BF E4 EA FF 81 13 53 BD
85F0 85 13 D6 55 86 60 E9 A9 C4 02 1C C1 D8 00 86 CF
8600 81 15 55 B8 D8 0D 86 8A 26 94 D6 10 86 8A 16 94
8610 23 DE F0 FF 22 40 21 32 0F B3 03 D3 B4 BB D4 02
8620 D0 22 03 D0 23 32 81 13 B3 03 D3 B4 BB D4 02 D0
8630 22 03 D0 23 32 03 D3 D4 02 D0 22 03 D0 23 32 0E
8640 B3 03 D3 B4 BB D4 02 D0 22 03 D0 23 01 D0 21 01
8650 54 C6 D7 17 86 0D D1 2D D0 D7 F5 85 81 15 55 BA
8660 D7 6F 86 64 8D 16 DE F0 FF B3 6D E9 D4 EE 08 CF

Function $85E7 (EA FF)
Args:
<0C> PAD input to terminate function on
+13  ?

85EC 81 13
85EE 53
85EF BD
85F0 85 13
85F2 D6 55 86

Loop:
	85F5 60
	85F6 E9 A9 C4 02 / Call $C4A9 -> Get PAD input
	85FA 1C
	85FB C1
	85FC D8 00 86

	if
		85FF CF

	8600 81 15
	8602 55
	8603 B8
	8604 D8 0D 86

	if
		8607 8A 26 94
		860A D6 10 86
	else
		860D 8A 16 94
		
	8610 23

	8611 DE F0 FF
	8614 22

	8615 40
	8616 21

	8617 32
	8618 0F
	8619 B3
	861A 03
	861B D3
	861C B4
	861D BB
	861E D4
	
	861F 02
	8620 D0
	8621 22
	
	8622 03
	8623 D0
	8624 23
	
	8625 32
	8626 81 13
	8628 B3
	8629 03
	862A D3
	862B B4
	862C BB
	862D D4
	
	862E 02
	862F D0
	8630 22
	
	8631 03
	8632 D0
	8633 23
	
	8634 32
	8635 

Bounds check:
8655

     00 01 02 03 04 05 06 07 08 09 0A 0B 0C 0D 0E 0F
8620 D0 22 03 D0 23 32 81 13 B3 03 D3 B4 BB D4 02 D0
8630 22 03 D0 23 32 03 D3 D4 02 D0 22 03 D0 23 32 0E
8640 B3 03 D3 B4 BB D4 02 D0 22 03 D0 23 01 D0 21 01
8650 54 C6 D7 17 86 0D D1 2D D0 D7 F5 85 81 15 55 BA
8660 D7 6F 86 64 8D 16 DE F0 FF B3 6D E9 D4 EE 08 CF
----------------------------------------------------
     00 01 02 03 04 05 06 07 08 09 0A 0B 0C 0D 0E 0F
8670 20 BF E4 F4 FF 42 2B 46 2A 40 28 26 A4 94 73 29
8680 60 E9 A9 C4 02 28 36 39 A4 92 73 1A BB D1 53 BD
8690 8F FE B3 A4 90 73 1B BB 53 BD 8F FC B3 63 38 E9
86A0 E7 85 0C 06 D0 26 06 5A C8 D8 AE 86 40 26 08 D9
86B0 05 00 04 00 A8 87 10 00 C8 86 20 00 20 87 40 00
86C0 85 87 80 00 51 87 80 86 A4 92 73 D1 51 C6 D7 80
86D0 86 A4 92 73 D1 8B 1C B5 A6 90 73 BB 8C 9E 73 BB
86E0 D3 27 07 D8 FB 86 07 51 C0 D8 80 86 40 A8 94 73
86F0 AA 92 73 AA 90 73 E9 B1 85 04 CF A4 92 73 D1 A8
8700 92 73 38 39 A4 92 73 1A BB D1 53 BD 8F FE B3 A4
8710 90 73 1B BB 53 BD 8F FC B3 E9 2E 85 08 D6 7F 86
8720 A4 92 73 D0 5D C8 D7 80 86 A4 92 73 D0 8B 1C B5
8730 A6 90 73 BB 8C 9E 73 BB D3 27 07 D8 4A 87 07 51
8740 C0 D8 80 86 41 A8 94 73 47 CF A4 92 73 D0 D6 FF
8750 86 A4 90 73 D0 8B 1A C8 D7 80 86 A4 92 73 8B 1C
8760 B5 A6 90 73 BB 8C 9F 73 BB D3 27 07 D8 7B 87 07
8770 51 C0 D8 80 86 43 A8 94 73 46 CF A4 90 73 D0 A8
8780 90 73 D6 02 87 A4 90 73 51 C0 D7 80 86 A4 92 73
8790 8B 1C B5 A6 90 73 BB 8C 9D 73 BB D3 27 07 D7 80
87A0 86 A4 90 73 D1 D6 7F 87 41 CD A5 66 70 DB A9 66
87B0 70 40 CF 

Function $8670 (F4 FF)

8675 42
8676 2B

8677 46
8678 2A

8679 40
867A 28
867B 26

867C A4 94 73    / $7394
867F 29
 
8680 60
8681 E9 A9 C4 02 / Call $C4A9 -> Get PAD input
8685 28

8686 36
8687 39
8688 A4 92 73    / $7392
868B 1A
868C BB
868D D1
868E 53
868F BD
8690 8F FE
8692 B3
8693 A4 90 73    / $7390
8696 1B
8697 BB
8698 53
8699 BD
869A 8F FC
869C B3
869D 63
869E 38
869F E9 E7 85 0C / Call $85E7

     00 01 02 03 04 05 06 07 08 09 0A 0B 0C 0D 0E 0F
8690 8F FE B3 A4 90 73 1B BB 53 BD 8F FC B3 63 38 E9
86A0 E7 85 0C 06 D0 26 06 5A C8 D8 AE 86 40 26 08 D9
86B0 05 00 04 00 A8 87 10 00 C8 86 20 00 20 87 40 00
86C0 85 87 80 00 51 87 80 86 A4 92 73 D1 51 C6 D7 80
86D0 86 A4 92 73 D1 8B 1C B5 A6 90 73 BB 8C 9E 73 BB
86E0 D3 27 07 D8 FB 86 07 51 C0 D8 80 86 40 A8 94 73
86F0 AA 92 73 AA 90 73 E9 B1 85 04 CF A4 92 73 D1 A8
8700 92 73 38 39 A4 92 73 1A BB D1 53 BD 8F FE B3 A4
8710 90 73 1B BB 53 BD 8F FC B3 E9 2E 85 08 D6 7F 86
8720 A4 92 73 D0 5D C8 D7 80 86 A4 92 73 D0 8B 1C B5
8730 A6 90 73 BB 8C 9E 73 BB D3 27 07 D8 4A 87 07 51
8740 C0 D8 80 86 41 A8 94 73 47 CF A4 92 73 D0 D6 FF
8750 86 A4 90 73 D0 8B 1A C8 D7 80 86 A4 92 73 8B 1C
8760 B5 A6 90 73 BB 8C 9F 73 BB D3 27 07 D8 7B 87 07
8770 51 C0 D8 80 86 43 A8 94 73 46 CF A4 90 73 D0 A8
8780 90 73 D6 02 87 A4 90 73 51 C0 D7 80 86 A4 92 73
8790 8B 1C B5 A6 90 73 BB 8C 9D 73 BB D3 27 07 D7 80
87A0 86 A4 90 73 D1 D6 7F 87 41 CD A5 66 70 DB A9 66
87B0 70 40 CF 
----------------------------------------------------
     00 01 02 03 04 05 06 07 08 09 0A 0B 0C 0D 0E 0F
87B0          20 BF E4 FB FF A5 67 70 8C 76 6F BB D3
87C0 A2 FF FF 40 A9 66 70 40 D6 34 88 A5 67 70 8B 32
87D0 C6 D8 48 88 81 FD 51 C0 D8 05 88 A0 FF FF 54 DA
87E0 D7 05 88 40 85 FB 60 66 81 FB 8B 1C B5 8C 9E 73
87F0 BB B3 E9 3A F3 06 81 FB D0 85 FB 81 FB 54 C6 D7
8800 E6 87 D6 31 88 81 FD 52 C0 D8 3E 88 A0 FF FF 8B
8810 10 DA D8 3E 88 61 63 8E 24 74 E9 3A F3 06 81 FD
8820 58 C6 D8 31 88 41 83 FD BD CD A5 66 70 DB A9 66
8830 70 81 FD D0 85 FD 81 FD 59 C6 D7 CB 87 CF 81 FD
8840 52 C0 D8 1E 88 D6 31 88 81 FD 56 C6 D6 42 88 
----------------------------------------------------
     00 01 02 03 04 05 06 07 08 09 0A 0B 0C 0D 0E 0F
8840                                              20
8850 BF E4 A6 FF 40 85 AE 81 AE 8B 18 B5 8C A4 6A BB
8860 85 A6 81 A6 D3 D8 74 88 81 AE D0 85 AE 81 AE 55
8870 C6 D7 57 88 87 AE E9 32 D5 02 85 A8 81 A8 8F 14
8880 D3 55 BE 85 AE 8A 86 F3 85 AA 81 AE 52 C8 D8 96
8890 88 8A D6 F3 85 AA 45 85 AC 8D 50 DE B0 FF B3 87
88A0 AA E9 E0 DD 06 40 85 AE 62 DE B0 FF B3 81 AE D2
88B0 D2 B4 BB B4 B3 D3 BB D4 81 AE D0 85 AE 81 AE 8B
88C0 14 C6 D7 A8 88 8D 14 61 DE B0 FF B3 6D E9 D4 EE
88D0 08 D6 12 89 DE B3 FF B3 81 AE D2 D2 B4 BB B3 D3
88E0 D1 D4 81 AE D0 85 AE 81 AE 8B 14 C6 D7 15 89 8D
88F0 14 61 DE B0 FF B3 6D E9 D4 EE 08 A0 B3 FF 8B 48
8900 C6 D8 45 89 DE B3 FF B3 81 AE D2 D2 B4 BB B3 D3
8910 D1 D4 40 85 AE DE B3 FF B3 81 AE D2 D2 B4 BB D3
8920 5C C8 D7 D4 88 DE B1 FF B3 81 AE D2 D2 B4 BB B3
8930 8A A0 00 D4 81 AE 8B 13 C0 D8 E2 88 8D 14 61 6C
8940 E9 D4 EE 06 CF 87 AC 8D 11 E9 D4 EE 04 D6 12 89
----------------------------------------------------
     00 01 02 03 04 05 06 07 08 09 0A 0B 0C 0D 0E 0F
8950 20 BF E4 FE FF A5 67 70 8B 13 B5 8C D8 AF BB 2B
8960 60 60 68 8D 1E 8D 14 61 68 E9 D4 EE 0E AC 89 A5
8970 8E E7 00 8E B6 B4 8E 52 B4 65 8D 14 8D 15 66 69
8980 E9 D4 EE 10 0C D8 A8 89 8D 16 68 E9 70 C7 04 60
8990 8E 36 94 E9 03 C0 04 3B E9 6B D5 02 60 8E 44 94
89A0 E9 03 C0 04 AC 4F 88 CF 8D 16 68 E9 70 C7 04 61
89B0 8E 48 94 E9 03 C0 04 CF 
----------------------------------------------------
     00 01 02 03 04 05 06 07 08 09 0A 0B 0C 0D 0E 0F
89B0                         20 BF E4 F6 FF A5 7E 73
89C0 D7 D6 89 4E A8 90 73 4B A8 92 73 41 A8 94 73 41
89D0 A9 7E 73 D6 E2 89 43 A8 90 73 4A A8 92 73 40 A8
89E0 94 73 41 A8 98 73 41 27 8A 62 66 28 08 73 D3 B3
89F0 08 72 D3 B3 08 D0 D3 B3 08 D3 B3 E9 B0 D1 08 A9
8A00 67 70 8E 88 01 8E 9E 73 8E 56 B1 8E E2 00 62 E9
8A10 EC DC 0A A5 67 70 8B 32 C9 D8 5C 8A 40 2B 60 8D
8A20 14 0B 8B 1C B5 8C 9E 73 BB B3 E9 3A F3 06 0B D0
8A30 2B 0B 55 C6 D7 1E 8A 60 8E C4 00 8E 2A 74 E9 3A
8A40 F3 06 4C 2B 60 66 0B 8B 1C B5 8C B4 73 BB B3 E9
8A50 3A F3 06 0B D0 2B 0B 5E C6 D7 44 8A 61 8E 34 95
8A60 E9 03 C0 04 A5 63 70 D7 7A 8A 8A 62 70 A8 69 72
8A70 AC 11 82 41 A9 63 70 D6 AB 8A A5 63 70 8C F0 00
8A80 C0 D8 8E 8A 41 A9 63 70 AC 83 83 D6 9A 8A AC B3
8A90 87 AC 40 A3 AC 6D A3 AC 9D A3 8A 62 70 A8 69 72
8AA0 60 8D 12 8D 1C 62 62 E9 05 A4 0A 8A FF 00 A9 66
8AB0 72 A9 65 72 A9 64 72 A9 63 72 40 A9 9C 72 A5 67
8AC0 70 8B 32 C6 D8 DE 8A AC DD 91 D8 F2 8A 8E 6E 87
8AD0 8E DD 00 61 E9 3A DE 06 61 E9 50 89 02 CF AC 89
8AE0 B8 61 65 E9 E1 CF 02 D2 8C 58 94 BB B0 B3 E9 03
8AF0 C0 04 40 29 AC 70 86 2A AC 20 85 0A 57 C1 D8 09
8B00 8B 8D 14 61 6C E9 D4 EE 06 0A 58 C0 D7 1B 8B 41
8B10 1A BD B3 A5 66 70 B4 DA D8 53 8B 0A 54 C0 D8 40
8B20 8B 8D 27 E9 BB 83 02 29 09 D7 38 8B 40 A8 98 73
8B30 0A 7E B3 E9 BB 83 02 29 41 A8 98 73 40 D6 47 8B
8B40 0A 7E B3 E9 BB 83 02 29 8E 83 86 8E DE 00 61 E9
8B50 3A DE 06 A5 67 72 D8 5A 8B CF 07 D8 6C 8B A5 9C
8B60 72 D7 6C 8B 08 D0 D3 B3 E9 03 80 02 09 D7 7B 8B
8B70 8E 9E 87 8E DD 00 61 E9 3A DE 06 09 D8 F4 8A 08
8B80 7F D3 52 DA D8 91 8B A5 9C 72 D7 91 8B 60 D6 98
8B90 8B 0A 57 C0 D8 9C 8B 61 E9 50 89 02 40 A9 8C 6B
8BA0 CF 

Functiion $89B8 (F6 FF)

89BD A5 7E 73    / $737E
89C0 D7 D6 89

if $737E == 0
	89C3 4E
	89C4 A8 90 73    / $7390
	89C7 4B
	89C8 A8 92 73    / $7392
	89CB 41
	89CC A8 94 73    / $7394
	89CF 41
	89D0 A9 7E 73    / $737E
	89D3 D6 E2 89
else
	89D6 43
	89D7 A8 90 73    / $7390
	89DA 4A 
	89DB A8 92 73    / $7392
	89DE 40
	89DF A8 94 73    / $7394

89E2 41
89E3 A8 98 73    / $7398

89E6 41
89E7 27
89E8 8A 62 66    / $6662
89EB 28

89EC 08
89ED 73
89EE D3
89EF B3
89F0 08
89F1 72
89F2 D3
89F3 B3
89F4 08
89F5 D0
89F6 D3
89F7 B3
89F8 08
89F9 D3
89FA B3
89FB E9 B0 D1 08 / Call $D1B0
89FF A9 67 70    / $7067 (Current port)

8A02 8E 88 01	
8A05 8E 9E 73
8A08 8E 56 B1
8A0B 8E E2 00
8A0E 62
8A0F E9 EC DC 0A / Call $DCEC -> Transfer data

8A13 A5 67 70    / $7067 (Current port)
8A16 8B 32
8A17 C9
8A18 D8 5C 8A

if
	8A1B 8A 40
	8A1D 2B
	
	8A1E 60
	8A1F 8D 14
	8A21 0B
	8A22 8B 1C
	8A24 B5
	8A25 8C 9E 73    / $739E
	8A28 BB
	8A29 B3
	8A2A E9 3A F3 06 / Call $F33A -> Fill array
	
	8A2E 0B
	8A2F D0
	8A30 2B
	
	8A31 0B
	8A32 55
	8A33 C6
	8A34 D7 1E 8A
	
	8A37 60
	8A38 8E C4 00
	8A3B 8E 2A 74
	8A3E E9 3A F3 06 / Call $F33A -> Fill array
	
	8A42 4C
	8A43 2B
	
	8A44 60
	8A45 66
	8A46 0B
	8A47 8B 1C
	8A49 B5
	8A4A 8C B4 73
	8A4D BB
	8A4E B3
	8A4F E9 3A F3 06 / Call $F33A -> Fill array
	8A53 0B
	8A54 D0
	8A55 2B
	8A56 0B
	8A57 5E
	8A58 C6
	8A59 D7 44 8A

8A5C 61
8A5D 8E 34 95    / $9534 [1B 52 28] [1B 45 3D]
8A60 E9 03 C0 04 / Call $C003

8A64 A5 63 70    / $7063
8A67 D7 7A 8A

if
	8A6A 8A 62 70    / $7062
	8A6D A8 69 72    / $7269
	8A70 AC 11 82    / Call $8211
	8A73 41
	8A74 A9 63 70    / $7063
	8A77 D6 AB 8A
else
	8A7A A5 63 70    / $7063
	8A7D 8C F0 00
	8A80 C0
	8A81 D8 8E 8A
	
	if
		8A84 41
		8A85 A9 63 70    / $7063
		8A88 AC 83 83    / Call $8383
		8A8B D6 9A 8A
	else
		8A8E AC B3 87    / Call $87B3
		8A91 AC 40 A3    / Call $A340
		8A94 AC 6D A3    / Call $A36D -> Print month
		8A97 AC 9D A3    / Call $A39D -> Print day

	8A9A 8A 62 70
	8A9D A8 69 72
	
	8AA0 60
	8AA1 8D 12
	8AA3 8D 1C
	8AA5 62
	8AA6 62
	8AA7 E9 05 A4 0A / Call $A405
		
8AAB 8A FF 00
8AAE A9 66 72    / $7266
8AB1 A9 65 72    / $7265
8AB4 A9 64 72    / $7264
8AB7 A9 63 72    / $7263
8ABA 40
8ABB A9 9C 72    / $729C

8ABE A5 67 70    / $7067 (Current port)
8AC1 8B 32
8AC3 C6
8AC4 D8 DE 8A

if (large port)
	8AC7 AC DD 91    / Call $91DD
	8ACA D8 F2 8A
	
	if
		8ACD 8E 6E 87
		8AD0 8E DD 00
		8AD3 61
		8AD4 E9 3A DE 06 / Call $DE3A -> DD:876E
		
		8AD8 61
		8AD9 E9 50 89 02 / Call $8950
		
		8ADD CF
else (small port)
	8ADE AC 89 B8    / $B889
	8AE1 61
	8AE2 65
	8AE3 E9 E1 CF 02 / Call $CFE1 -> RNG [00-04]
	8AE7 D2
	8AE8 8C 58 94    / $9458 (Small port text table)
	8AEB BB
	8AEC B0
	8AED B3
	8AEE E9 03 C0 04 / Call $C003 -> Print

8AF2 40
8AF3 29
8AF4 AC 70 86    / $8670

     00 01 02 03 04 05 06 07 08 09 0A 0B 0C 0D 0E 0F
8AF0 C0 04 40 29 AC 70 86 2A AC 20 85 0A 57 C1 D8 09
8B00 8B 8D 14 61 6C E9 D4 EE 06 0A 58 C0 D7 1B 8B 41
8B10 1A BD B3 A5 66 70 B4 DA D8 53 8B 0A 54 C0 D8 40
8B20 8B 8D 27 E9 BB 83 02 29 09 D7 38 8B 40 A8 98 73
8B30 0A 7E B3 E9 BB 83 02 29 41 A8 98 73 40 D6 47 8B
8B40 0A 7E B3 E9 BB 83 02 29 8E 83 86 8E DE 00 61 E9
8B50 3A DE 06 A5 67 72 D8 5A 8B CF 07 D8 6C 8B A5 9C
8B60 72 D7 6C 8B 08 D0 D3 B3 E9 03 80 02 09 D7 7B 8B
8B70 8E 9E 87 8E DD 00 61 E9 3A DE 06 09 D8 F4 8A 08
8B80 7F D3 52 DA D8 91 8B A5 9C 72 D7 91 8B 60 D6 98
8B90 8B 0A 57 C0 D8 9C 8B 61 E9 50 89 02 40 A9 8C 6B
8BA0 CF 
----------------------------------------------------
     00 01 02 03 04 05 06 07 08 09 0A 0B 0C 0D 0E 0F
8BA0    20 BF E4 00 00 A0 0B 00 8C 76 6F BB D3 53 DA
8BB0 CF 

Function $8BA1

8BA6 A0 0B 00
8BA9 8C 76 6F .. / $6F76
8BAC BB
8BAD D3
8BAE 53
8BAF DA
8BB0 CF
----------------------------------------------------
     00 01 02 03 04 05 06 07 08 09 0A 0B 0C 0D 0E 0F
8BB0    20 BF E4 FF FF A0 0D 00 D2 D2 B3 A4 99 6B B4
8BC0 BE A2 FF FF A0 FF FF B3 A0 0B 00 B3 48 B4 BE B4
8BD0 DA D8 D8 8B 40 D6 D9 8B 41 CF 
----------------------------------------------------
     00 01 02 03 04 05 06 07 08 09 0A 0B 0C 0D 0E 0F
8BD0                               20 BF E4 00 00 A5
8BE0 5F 70 58 DA D8 07 8C A5 5F 70 51 DA D8 07 8C A5
8BF0 54 70 51 C0 D8 07 8C A5 67 70 B3 A5 55 70 B4 C0
8C00 D8 07 8C 40 D6 08 8C 41 CF 

Function $8BDA

8BDF A5 5F 70 .. / $705F -> Quest progress flags
8BE2 58
8BE3 DA
8BE4 D8 07 8C

8BE7 A5 5F 70 .. / $705F -> Quest progress flags
8BEA 51
8BEB DA
8BEC D8 07 8C

8BEF A5 54 70 .. / $7054
8BF2 51
8BF3 C0
8BF4 D8 07 8C

8BF7 A5 67 70 .. / $7067 -> Current port
8BFA B3
8BFB A5 55 70 .. / $7055 -> Target port
8BFE B4
8BFF C0
8C00 D8 07 8C

8C03 40
8C04 D6 08 8C

8C07 41

8C08 CF
----------------------------------------------------
     00 01 02 03 04 05 06 07 08 09 0A 0B 0C 0D 0E 0F
8C00                            20 BF E4 FF FF A0 0D
8C10 00 D2 D2 B3 A4 9B 6B B4 BE A2 FF FF A0 FF FF B3
8C20 A0 0B 00 B3 48 B4 BE B4 DA CF 
----------------------------------------------------
     00 01 02 03 04 05 06 07 08 09 0A 0B 0C 0D 0E 0F
8C20                               20 BF E4 F9 FF A0
8C30 0F 00 5E B5 8C BA 67 BB 85 FB 8A 8D 6B 2B A0 0D
8C40 00 B3 A0 0B 00 D2 D2 B4 BB 8C D4 95 BB D3 1B BB
8C50 D3 A2 FD FF A0 FD FF B3 A0 0D 00 D2 D2 8C BE 6F
8C60 BB D3 B4 C8 D8 90 8C A5 74 6F D0 B3 A0 0D 00 83
8C70 FB BB D3 B3 A0 FD FF B3 A0 0D 00 D2 D2 8C BE 6F
8C80 BB D3 B4 BC B4 B5 8B 64 B6 B4 B5 5A B6 D6 91 8C
8C90 40 85 F9 81 F9 CF 
----------------------------------------------------
     00 01 02 03 04 05 06 07 08 09 0A 0B 0C 0D 0E 0F
8C90                   20 BF E4 F9 FF A0 0F 00 5E B5
8CA0 8C BA 67 BB 2A 8A 8D 6B 2B A0 0D 00 B3 A0 0B 00
8CB0 D2 D2 B4 BB 8C E4 95 BB D3 1B BB D3 A2 FB FF A0
8CC0 FB FF 8B 32 C6 D8 E8 8C A0 0D 00 1A BB D3 B3 A0
8CD0 0D 00 1A BB D3 B3 A0 FB FF B3 89 64 B4 BC B4 B5
8CE0 8B 64 B6 B4 B6 D6 E9 8C 40 85 F9 81 F9 CF 
----------------------------------------------------
     00 01 02 03 04 05 06 07 08 09 0A 0B 0C 0D 0E 0F
8CE0                                           20 BF
8CF0 E4 FA FF 63 E9 E1 CF 02 73 8C F4 01 B5 2A A4 6B
8D00 66 D7 17 8D AC 89 B8 AC 3F B8 61 AA 3C 95 E9 03
8D10 C0 04 AC 03 A0 40 CF AC 89 B8 AC 3F B8 AA 6B 66
8D20 61 AA 3E 95 E9 F3 CC 06 2B 0B 8B FF C0 D8 32 8D
8D30 40 CF 61 AA 9C 73 8D 15 62 E9 BB A5 08 0B 1A C8
8D40 D8 64 8D 64 E9 E1 CF 02 D8 64 8D AC 3F B8 61 8E
8D50 F4 95 E9 03 C0 04 AC 03 A0 0B CD A4 6B 66 BC A8
8D60 6B 66 41 CF AC 3F B8 61 8E 26 96 E9 03 C0 04 AC
8D70 03 A0 4A CF 

Function $8CEE
Args:
+0B Nation

8CF3 63
8CF4 E9 E1 CF 02 / Call $CFE1 -> RNG 00-02
8CF8 73
8CF9 8C F4 01
8CFC B5
8CFD 2A

8CFE A4 6B 66 .. / $666B (Total gold)
8D01 D7 17 8D

	8D04 AC 89 B8 .. / $B889
	8D07 AC 3F B8 .. / $B83F
	8D0A 61
	8D0B AA 3C 95 .. / $953C -> $9544 "We don't have any goldfor a bribe!"
	8D0E E9 03 C0 04 / Call $C003 -> Print
	8D12 AC 03 A0    / Call $A003
	8D15 40
	8D16 CF

8D17 AC 89 B8
8D1A AC 3F B8
8D1D AA 6B 66
8D20 61
8D21 AA 3E 95

     00 01 02 03 04 05 06 07 08 09 0A 0B 0C 0D 0E 0F
8D10 C0 04 AC 03 A0 40 CF AC 89 B8 AC 3F B8 AA 6B 66
8D20 61 AA 3E 95 E9 F3 CC 06 2B 0B 8B FF C0 D8 32 8D
8D30 40 CF 61 AA 9C 73 8D 15 62 E9 BB A5 08 0B 1A C8
8D40 D8 64 8D 64 E9 E1 CF 02 D8 64 8D AC 3F B8 61 8E
8D50 F4 95 E9 03 C0 04 AC 03 A0 0B CD A4 6B 66 BC A8
8D60 6B 66 41 CF AC 3F B8 61 8E 26 96 E9 03 C0 04 AC
8D70 03 A0 4A CF 
----------------------------------------------------
     00 01 02 03 04 05 06 07 08 09 0A 0B 0C 0D 0E 0F
8D70             20 BF E4 FD FF 40 85 FD AC 89 B8 AC
8D80 3F B8 61 AA 42 95 E9 03 C0 04 61 62 8E 62 96 61
8D90 68 8D 19 68 E9 56 A1 0E A2 FF FF A0 FF FF 8C FF
8DA0 00 C1 D8 7C 8D A0 FF FF D7 C7 8D A0 0B 00 B3 E9
8DB0 EE 8C 02 85 FD 81 FD D8 7C 8D 81 FD 5A C0 D8 C4
8DC0 8D 40 85 FD 81 FD CF 61 AA 9C 73 8D 15 62 E9 BB
8DD0 A5 08 AC 3F B8 0D D8 E0 8D 61 8E 71 96 D6 E4 8D
8DE0 61 8E A7 96 E9 03 C0 04 AC 03 A0 40 CF 

Function $8D74

8D79 40
8D7A 85 FD

8D7C AC 89 B8    / Call $B889

8D7F AC 3F B8    / Call $B83F

8D82 61
8D83 AA 42 95    / $9542 -> $95B8 "What should we do,\nCaptain?"
8D86 E9 03 C0 04 / Call $C003 -> Print

8D8A 61
8D8B 62
8D8C 8E 62 96    / $9662 ("Bribe"/"Sail")
8D8F 61
8D90 68
8D91 8D 19
8D93 68
8D94 E9 56 A1 0E / Call $A156 -> Print menu & get player choice
8D98 A2 FF FF

8D9B A0 FF FF
8D9E 8C FF 00
8DA1 C1
8DA2 D8 7C 8D

8DA5 A0 FF FF
8DA8 D7 C7 8D

8DAB A0 0B 00
8DAE B3
8DAF E9 EE 8C 02 / Call $8CEE

8DC7

     00 01 02 03 04 05 06 07 08 09 0A 0B 0C 0D 0E 0F
8DA0 00 C1 D8 7C 8D A0 FF FF D7 C7 8D A0 0B 00 B3 E9
8DB0 EE 8C 02 85 FD 81 FD D8 7C 8D 81 FD 5A C0 D8 C4
8DC0 8D 40 85 FD 81 FD CF 61 AA 9C 73 8D 15 62 E9 BB
8DD0 A5 08 AC 3F B8 0D D8 E0 8D 61 8E 71 96 D6 E4 8D
8DE0 61 8E A7 96 E9 03 C0 04 AC 03 A0 40 CF 
----------------------------------------------------
     00 01 02 03 04 05 06 07 08 09 0A 0B 0C 0D 0E 0F
8DE0                                        20 BF E4
8DF0 00 00 AC 89 B8 AC 3F B8 61 AA 40 95 E9 03 C0 04
8E00 AC 03 A0 61 AA 9C 73 8D 15 62 E9 BB A5 08 AC 3F
8E10 B8 61 8E C4 96 E9 03 C0 04 AC 03 A0 3D A0 0B 00
8E20 B3 E9 74 8D 04 D8 4F 8E 60 60 E9 69 B8 04 AC 3F
8E30 B8 61 8E 00 97 E9 03 C0 04 AC 03 A0 AC 89 B8 AC
8E40 3F B8 61 8E 2D 97 E9 03 C0 04 AC 03 A0 40 CF 60
8E50 60 E9 69 B8 04 AC 3F B8 8E 50 97 E9 F4 A3 02 41
8E60 CF 

Function $8DED

8DF2 AC 89 B8 .. / Call $B889
8DF5 AC 3F B8 .. / Call $B83F
8DF8 61
8DF9 AA 40 95 .. / $9540
8DFC E9 03 C0 04 / Call C003 -> Print

8E00 AC 03 A0    / Call $A003

8E03 61
8E04 AA 9C 73 .. / $739C
8E07 8D 15
8E09 62
8E0A E9 BB A5 08 / Call $A5BB

     00 01 02 03 04 05 06 07 08 09 0A 0B 0C 0D 0E 0F
8E00 AC 03 A0 61 AA 9C 73 8D 15 62 E9 BB A5 08 AC 3F
8E10 B8 61 8E C4 96 E9 03 C0 04 AC 03 A0 3D A0 0B 00
8E20 B3 E9 74 8D 04 D8 4F 8E 60 60 E9 69 B8 04 AC 3F
8E30 B8 61 8E 00 97 E9 03 C0 04 AC 03 A0 AC 89 B8 AC
8E40 3F B8 61 8E 2D 97 E9 03 C0 04 AC 03 A0 40 CF 60
8E50 60 E9 69 B8 04 AC 3F B8 8E 50 97 E9 F4 A3 02 41
8E60 CF 
----------------------------------------------------
     00 01 02 03 04 05 06 07 08 09 0A 0B 0C 0D 0E 0F
8E60    20 BF E4 F9 FF DE F9 FF B3 60 E9 26 D0 04 A2
8E70 FF FF 40 D6 92 8E 60 6A DE F9 FF B3 A0 FE FF B4
8E80 BB D3 8B 18 B5 8C AA 6A BB B3 E9 3A F3 06 A0 FE
8E90 FF D0 A2 FE FF A0 FF FF B3 A0 FE FF B4 C6 D7 76
8EA0 8E CF 

Function $8E61 -> Clear out all ships' cargo

8E66 DE F9 FF
8E69 B3
8E6A 60
8E6B E9 26 D0 04 / Call $D026
8E6F A2 FF FF

8E72 40
8E73 D6 92 8E

8E76 60
8E77 6A
8E78 DE F9 FF
8E7B B3
8E7C A0 FE FF
8E7F B4
8E80 BB
8E81 D3
8E82 8B 18
8E84 B5
8E85 8C AA 6A .. / $6AAA (Cargo #s)
8E88 BB
8E89 B3
8E8A E9 3A F3 06 / Call $F33A -> Fill array
8E8E A0 FE FF
8E91 D0

8E92 A2 FE FF
8E95 A0 FF FF
8E98 B3
8E99 A0 FE FF
8E9C B4
8E9D C6
8E9E D7 76 8E

8EA1 CF
----------------------------------------------------
     00 01 02 03 04 05 06 07 08 09 0A 0B 0C 0D 0E 0F
8EA0       20 BF E4 00 00 60 60 E9 69 B8 04 AC 3F B8
8EB0 61 8E 6E 97 E9 03 C0 04 4A CD A4 6B 66 B8 A8 6B
8EC0 66 AC 61 8E AC 03 A0 CF 

Function $8EA2 -> Gold/Cargo confiscated

8EA7 60
8EA8 60
8EA9 E9 69 B8 04 / Call $B869

8EAD AC 3F B8
8EB0 61
8EB1 8E 6E 97 .. / $976E "Confound it! You'll\npay for this!"
8EB4 E9 03 C0 04 / Call $C003 -> Print

8EB8 4A
8EB9 CD
8EBA A4 6B 66
8EBD B8
8EBE A8 6B 66    / Lose 90% of your gold

8EC1 AC 61 8E .. / Call $8E61 -> Lose all cargo

8EC4 AC 03 A0 .. / Call $A003

8EC7 CF
----------------------------------------------------
     00 01 02 03 04 05 06 07 08 09 0A 0B 0C 0D 0E 0F
8EC0                         20 BF E4 FE FF AC 89 B8
8ED0 AC 3F B8 8D 78 E9 E1 CF 02 B3 A5 C3 6B B3 A5 44
8EE0 65 D2 B4 BB B4 C8 D8 F7 8E 61 8E 90 97 E9 03 C0
8EF0 04 AC 03 A0 D6 1E 8F 61 8E 9D 97 E9 03 C0 04 AC
8F00 03 A0 61 AA 9C 73 8D 15 62 E9 BB A5 08 AC 3F B8
8F10 60 8E B7 97 E9 03 C0 04 AC 7D A0 AC A2 8E 41 CF

Function $8EC8 -> Flee

8ECD AC 89 B8 .. / Call $B889
8ED0 AC 3F B8 .. / Call $B83F

8ED3 8D 78
8ED5 E9 E1 CF 02 / Call $CFE1 -> RNG 000-119
8ED9 B3
8EDA A5 C3 6B .. / $6BC3
8EDD B3
8EDE A5 44 65 .. / $6544
8EE1 D2
8EE2 B4
8EE3 BB
8EE4 B4
8EE5 C8
8EE6 D8 F7 8E

if
	8EE9 61
	8EEA 8E 90 97 .. / $9790 "We got away!"
	8EED E9 03 C0 04 / Call $C003 -> Print
	8EF1 AC 03 A0    / Call $A003
	8EF4 D6 1E 8F
else
	8EF7 61
	8EF8 8E 9D 97 .. / $979D "Blast!  We're\nsurrounded!"
	8EFB E9 03 C0 04 / Call $C003 -> Print
	8EFF AC 03 A0    / Call $A003
	8F02 61
	8F03 AA 9C 73 .. / $739C
	8F06 8D 15
	8F08 62
	8F09 E9 BB A5 08 / Call $A5BB -> Portrait?
	8F0D AC 3F B8 .. / Call $B83F
	8F10 60
	8F11 8E B7 97 .. / $97B7 "\nIt's no use\nstruggling!\nWe're confiscating\nyour goods"
	8F14 E9 03 C0 04 / Call $C003 -> Print
	8F18 AC 7D A0 .. / Call $A07D
	8F1B AC A2 8E .. / Call $8EA2 -> Gold/cargo confiscated

8F1E 41
8F1F CF
----------------------------------------------------
     00 01 02 03 04 05 06 07 08 09 0A 0B 0C 0D 0E 0F
8F20 20 BF E4 FA FF A5 9B 73 5E B5 8C BA 67 BB 29 A5
8F30 9A 73 19 BB D3 B3 A5 9A 73 D2 D2 8C BE 6F BB D3
8F40 B4 B5 55 B8 2A 3A E9 E1 CF 02 1A BB 8F 64 2A A4
8F50 6B 66 D7 7D 8F AC 89 B8 61 E9 1B B8 02 61 8E EE
8F60 97 E9 03 C0 04 AC 03 A0 61 AA 9C 73 8D 15 62 E9
8F70 BB A5 08 AC 3F B8 61 8E 09 98 D6 CB 8F AC 89 B8
8F80 AC 3F B8 61 AA 6B 66 61 8E 3E 98 E9 F3 CC 08 2B
8F90 0B 8B FF C0 D8 99 8F 40 CF 61 AA 9C 73 8D 15 62
8FA0 E9 BB A5 08 0B 1A C8 D8 C4 8F AC 3F B8 61 8E 57
8FB0 98 E9 03 C0 04 AC 03 A0 0B CD A4 6B 66 BC A8 6B
8FC0 66 D6 D5 8F AC 3F B8 61 8E 6F 98 E9 03 C0 04 AC
8FD0 03 A0 AC A2 8E 41 CF 

Function $8F20

8F25 A5 9B 73 .. / $739B
8F28 5E
8F29 B5
8F2A 8C BA 67 .. / $67BA (Nation support)
8F2D BB
8F2E 29

8F2F A5 9A 73 .. / $739A
8F32 19
8F33 BB
8F34 D3
8F35 B3
8F36 A5 9A 73 .. / $739A
8F39 D2
8F3A D2
8F3B 8C BE 6F .. / $6FBE (Nation hostility)
8F3E BB
8F3F D3
8F40 B4
8F41 B5
8F42 55
8F43 B8
8F44 2A

8F45 3A
8F46 E9 E1 CF 02 / Call $CFE1 -> RNG 00-09
8F4A 1A
8F4B BB
8F4C 8F 64
8F4E 2A

8F4F A4 6B 66 .. / $666B (Total gold)
8F52 D7 7D 8F

if
	8F55 AC 89 B8 .. / $B889
	8F58 61
	8F59 E9 1B B8 02 / Call $B81B
	8F5D 61
	8F5E 8E EE 97 .. / $97EE "We've no gold for a\nbribe!"
	8F61 E9 03 C0 04 / Call $C003 -> Print
	8F65 AC 03 A0 .. / Call $A003
	8F68 61
	8F69 AA 9C 73 .. / $739C
	8F6C 8D 15
	8F6E 62
	8F6F E9 BB A5 08 / Call $A5BB -> Portrait?
	8F73 AC 3F B8 .. / Call $B83F
	8F76 61
	8F77 8E 09 98 .. / $9809 "We'll show that\nPortuguese fool by\nseizing his goods"
	8F7A D6 CB 8F
else
	8F7D AC 89 B8 .. / Call $B889
	8F80 AC 3F B8 .. / Call $B83F
	8F83 61
	8F84 AA 6B 66 .. / $666B
	8F87 61
	8F88 8E 3E 98 .. / $983E "How much'll we give\Nthem"
	8F8B E9 F3 CC 08 / Call $CCF3 -> Wait for player input for gold amount
	8F8F 2B
	8F90 0B
	8F91 8B FF
	8F93 C0
	8F94 D8 99 8F
	
		8F97 40
		8F98 CF
	
	8F99 61
	8F9A AA 9C 73 .. / $739C
	8F9D 8D 15
	8F9F 62
	8FA0 E9 BB A5 08 / Call $A5BB
	8FA4 0B
	8FA5 1A
	8FA6 C8
	8FA7 D8 C4 8F
	
	8FAA AC 3F B8 .. / Call $B83F
	8FAD 61
	8FAE 8E 57 98 .. / $9857 "Ha ha ha!\nMuch obliged!"
	8FB1 E9 03 C0 04 / Call $C003 -> Print
	8FB5 AC 03 A0 .. / Call $A003
	8FB8 0B
	8FB9 CD
	8FBA A4 6B 66
	8FBD BC
	8FBE A8 6B 66
	8FC1 D6 D5 8F
	
	8FC4 AC 3F B8
	8FC7 61
	8FC8 8E 6F 98 .. / $986F "Trying to bribe us,\neh? Seize his\ngoods!"

8FCB E9 03 C0 04 / Call $C003 -> Print
8FCF AC 03 A0
8FD2 AC A2 8E .. / Call $8EA2 -> Gold/cargo confiscated

8FD5 41
8FD6 CF
----------------------------------------------------
     00 01 02 03 04 05 06 07 08 09 0A 0B 0C 0D 0E 0F
8FD0                      20 BF E4 00 00 63 E9 E1 CF
8FE0 02 D7 00 90 61 AA 9C 73 8D 15 62 E9 BB A5 08 AC
8FF0 3F B8 61 8E 98 98 E9 03 C0 04 AC 03 A0 D6 1C 90
9000 61 AA 9C 73 8D 15 62 E9 BB A5 08 AC 3F B8 61 8E
9010 D2 98 E9 03 C0 04 AC 03 A0 AC A2 8E 41 CF 
----------------------------------------------------
     00 01 02 03 04 05 06 07 08 09 0A 0B 0C 0D 0E 0F
9010                                           20 BF
9020 E4 FD FF 6E E9 8C E0 02 61 E9 C1 E0 02 AC 89 B8
9030 61 E9 1B B8 02 61 8E 44 99 E9 03 C0 04 AC 03 A0
9040 61 AA 9C 73 8D 15 62 E9 BB A5 08 AC 3F B8 60 8E
9050 7C 99 E9 03 C0 04 AA 42 65 E9 6B D5 02 A0 0B 00
9060 D2 8C 07 99 BB B0 B3 8E 7E 99 E9 19 C7 04 AC 7D
9070 A0 40 85 FD AC 89 B8 61 E9 1B B8 02 61 8E AA 99
9080 E9 03 C0 04 62 63 8E 0D 99 62 66 8D 17 68 E9 56
9090 A1 0E A2 FF FF A0 FF FF 8C FF 00 C1 D8 B0 90 A0
90A0 0B 00 B3 A0 FF FF D2 8C 13 99 BB B0 EA 02 85 FD
90B0 81 FD D8 74 90 60 60 E9 69 B8 04 AC 3F B8 8E BC
90C0 99 E9 F4 A3 02 8D 10 E9 D6 E0 02 CF 

Function $901E -> Player threatened with arrest by nation <arg00>

9023 6E
9024 E9 8C E0 02 / Call $E08C

9028 61
9029 E9 C1 E0 02 / Call $E0C1

902D AC 89 B8    / Call $B889

9030 61
9031 E9 1B B8 02 / Call $B81B

9035 61
9036 8E 44 99    / $9944 "Cap'n, some gruff\nlooking officers are\nheading our way!"
9039 E9 03 C0 04 / Call $C003 -> Print

903D AC 03 A0    / Call $A003

9040 61
9041 AA 9C 73    / $739C
9044 8D 15
9046 62
9047 E9 BB A5 08 / Call $A5BB -> Print portrait?

904B AC 3F B8    / Call $B83F

904E 60
904F 8E 7C 99    / $997C "\n"
9052 E9 03 C0 04 / Call $C003 -> Print

9056 AA 42 65    / $6542 (Ptr to player name string)
9059 E9 6B D5 02 / Call $D56B -> Print

905D A0 0B 00
9060 D2
9061 8C 07 99    / $9907 (Nation name)
9064 BB
9065 B0
9066 B3
9067 8E 7E 99    / $997E ", you are\n\nunder arrest in the\n\nname of %s!"
906A E9 19 C7 04 / Call $C719 -> Print

906E AC 7D A0    / Call $A07D

9071 40
9072 85 FD

9074 AC 89 B8    / Call $B889

9077 61
9078 E9 1B B8 02 / Call $B81B

907C 61
907D 8E AA 99    / $99AA "What shall we do?"
9080 E9 03 C0 04 / Call $C003 -> Print

9084 62
9085 63
9086 8E 0D 99    / $990D ("Flee"/"Bribe"/"Surrender")
9089 62
908A 66
908B 8D 17
908D 68
908E E9 56 A1 0E / Call $A156 (Set up menu & get player selection)
9092 A2 FF FF

9095 A0 FF FF
9098 8C FF 00
909B C1
909C D8 B0 90

	909F A0 0B 00
	90A2 B3
	90A3 A0 FF FF
	90A6 D2
	90A7 8C 13 99
	90AA BB
	90AB B0
	90AC EA 02
	90AE 85 FD

90B0 81 FD
90B2 D8 74 90

90B5 60
90B6 60
90B7 E9 69 B8 04 / Call $B869

90BB AC 3F B8    / Call $B83F

90BE 8E BC 99    / $99BC "There's trouble in\nstore for us here.\nWe'd better set sail"
90C1 E9 F4 A3 02 / Call $A3F4 -> Print

90C5 8D 10
90C7 E9 D6 E0 02 / Call $E0D6

90CB CF
----------------------------------------------------
     00 01 02 03 04 05 06 07 08 09 0A 0B 0C 0D 0E 0F
90C0                                     20 BF E4 F8
90D0 FF 60 60 68 8D 1E 8D 14 61 68 E9 D4 EE 0E AC 89
90E0 B8 A4 6D 66 57 DA 2B AC 3F B8 A5 5F 70 51 DA D8
90F0 0C 91 A4 50 70 D3 59 C1 D8 0C 91 A4 50 70 D3 58
9100 C1 D8 0C 91 63 E9 E1 CF 02 D8 15 91 8D 14 E9 E1
9110 CF 02 D7 34 91 A5 67 70 8B 32 C6 D8 34 91 61 62
9120 E9 E1 CF 02 D8 2D 91 8A F7 99 D6 30 91 8A 34 9A
9130 B3 D6 D8 91 A5 67 70 D7 4F 91 A5 40 65 D7 4F 91
9140 6A E9 E1 CF 02 D7 4F 91 60 8E 64 9A D6 D8 91 A5
9150 67 70 B3 E9 A1 8B 02 A2 FD FF A0 FD FF B3 60 E9
9160 B1 8B 04 B3 A0 FD FF 51 C8 B4 DA D8 8B 91 62 E9
9170 E1 CF 02 D8 8B 91 61 62 E9 E1 CF 02 D8 85 91 8A
9180 B7 9A D6 30 91 8A E2 9A D6 30 91 A5 45 65 55 C6
9190 D8 D4 91 6C E9 E1 CF 02 D7 D4 91 61 8E 04 9B E9
91A0 03 C0 04 AC 03 A0 AC 3F B8 63 E9 E1 CF 02 D9 03
91B0 00 00 00 BF 91 01 00 C6 91 02 00 CD 91 DC 91 61
91C0 8E 34 9B D6 D8 91 61 8E 6D 9B D6 D8 91 61 8E A6
91D0 9B D6 D8 91 61 8E E2 9B E9 03 C0 04 CF 

Function $90CC

90D1 60
90D2 60
90D3 68
90D4 8D 1E
90D6 8D 14
90D8 61
90D9 68
90DA E9 D4 EE 0E / Call $EED4 -> Sysop 0x08

90DE AC 89 B8 .. / Call $B889
90E1 A4 6D 66 .. / $666D (Item flags)
90E4 57
90E5 DA
90E6 2B

90E7 AC 3F B8 .. / Call $B83F
90EA A5 5F 70 .. / $705F -> Quest progress flags
90ED 51
90EE DA
90EF D8 0C 91

90F2 A4 50 70 .. / $7050
90F5 D3
90F6 59
90F7 C1
90F8 D8 0C 91

90FB A4 50 70 .. / $7050
90FE D3
90FF 58
9100 C1
9101 D8 0C 91

9104 63
9105 E9 E1 CF 02 / Call $CFE1 -> RNG 00-02
9109 D8 15 91

910C 8D 14
910E E9 E1 CF 02 / Call $CFE1 -> RNG 00-19
9112 D7 34 91

9115 A5 67 70 .. / $7067 (Current port)
9118 8B 32
911A C6
911B D8 34 91

911E 61
911F 62
9120 E9 E1 CF 02 / Call $CFE1 -> RNG 00-01
9124 D8 2D 91

9127 8A F7 99
912A D6 30 91

912D 9A 34 9A

9130 B3
9131 D6 D8 91

9134 A5 67 70 .. / $7067 (Current port)
9137 D7 4F 91

913A A5 40 65 .. / $6540
913D D7 4F 91

9140 6A
9141 E9 E1 CF 02 / Call $CFE1 -> RNG 00-09
9145 D7 4F 91

9148 60
9149 8E 64 9A .. / $9A64 "\nCap'n, I hear the\nPrincess is a beauty.\nI'd love to set my\neyes on her just once!"
914C D6 D8 91

914F A5 67 70 .. / $7067 (Current port)
9152 B3
9153 E9 A1 8B 02 / Call $8BA1
9157 A2 FD FF
915A A0 FD FF
915D B3
915E 60
915F E9 B1 8B 04 / Call $8BB1
9163 B3
9164 A0 FD FF
9167 51
9168 C8
9169 B4
916A DA
916B D8 8B 91

916E 62
916F E9 E1 CF 02 / Call $CFE1 -> RNG 00-01
9173 D8 8B 91

9176 61
9177 62
9178 E9 E1 CF 02 / Call $CFE1 -> RNG 00-01
917C D8 85 91

917F 8A B7 9A .. / $9AB7 "Captain, this is a\nsuspicious looking\nport"
9182 D6 30 91

9185 8A E2 9A .. / $9AE2 "Cap'n, this port looksa bit tough"
9188 D6 30 91

918B A5 45 65 .. / $6545
918E 55
918F C6
9190 D8 D4 91

9193 6C
9194 E9 E1 CF 02 / Call $CFE1 -> RNG 00-11
9198 D7 D4 91

919B 61
919C 8E 04 9B .. / $9B04 "Cap'n, have ye heard\nof the troubles out atsea?"
919F E9 03 C0 04 / Call $C003 -> Print
91A3 AC 03 A0 .. / Call $A003
91A6 AC 3F B8 .. / Call $B83F
91A9 63
91AA E9 E1 CF 02 / Call $CFE1 -> RNG 00-02
91AE D9 03 00
     00 00 BF 91
	 01 00 C6 91
	 02 00 CD 91
	       DC 91
		   
Case 00
	91BF 61
	91C0 8E 34 9B .. / $9B34 "We're likely to get\ntossed about if we\nsail into a storm"
	91C3 D6 D8 91
Case 01
	91C6 61
	91C7 8E 6D 9B .. / $9B6D "I've heard of ships\nbeing swallowed up in\ncertain waters"
	91CA D6 D8 91
Case 02
	91CD 61
	91CE 8E A6 9B .. / $9BA6 "If the rudder gets\ntangled in seaweed\nwe'll have to fix 'er"
	91D1 D6 D8 91

91D4 61
91D5 8E E2 9B .. / $9BE2 "Where to, Captain?"

91D8 E9 03 C0 04 / Call $C003 -> Print

91DC CF
----------------------------------------------------
     00 01 02 03 04 05 06 07 08 09 0A 0B 0C 0D 0E 0F
91D0                                        20 BF E4
91E0 F6 FF 8A 62 66 27 07 73 D3 B3 07 72 D3 B3 07 D0
91F0 D3 B3 07 D3 B3 E9 B0 D1 08 A2 FA FF A9 9B 73 40
9200 28 A0 FA FF B3 E9 A1 8B 02 A2 FB FF A0 FB FF 52
9210 C0 D8 1A 92 8A 1C 14 D6 25 92 A0 FB FF 53 C0 D8
9220 28 92 8A 70 18 A8 9C 73 A0 FB FF D1 A9 9A 73 A0
9230 FB FF 51 C8 D8 A8 92 A0 FB FF D1 B3 60 E9 B1 8B
9240 04 D8 A8 92 A0 FA FF B3 A0 FB FF D1 B3 60 E9 2A
9250 8C 06 2B 8E 2C 01 E9 E1 CF 02 1B C9 D8 9D 92 AC
9260 DA 8B D8 A8 92 A0 FB FF D1 B3 60 E9 09 8C 04 D8
9270 99 92 A0 FA FF B3 A0 FB FF D1 B3 60 E9 96 8C 06
9280 2A 8D 64 E9 E1 CF 02 1A C6 D8 A8 92 60 A0 FB FF
9290 D1 B3 E9 ED 8D 04 D6 A7 92 61 D6 8D 92 A0 FB FF
92A0 D1 B3 E9 1E 90 02 41 28 08 D7 AF 92 AC CC 90 08
92B0 CF

Function $91DD

91E2 8A 62 66 .. / $6662
91E5 27

91E6 07
91E7 73
91E8 D3
91E9 B3
91EA 07
91EB 72
91EC D3
91ED B3
91EE 07
91EF D0
91F0 D3
91F1 B3
91F2 07
91F3 D3
91F4 B3
91F5 E9 B0 D1 08 / Call $D1B0
91F9 A2 FA FF
91FC A9 9B 73 .. / $739B

91FF 40
9200 28

9201 A0 FA FF
9204 B3
9205 E9 A1 8B 02 / Call $8BA1
9209 A2 FB FF

920C A0 FB FF
920F 52
9210 C0
9211 D8 1A 92

9214 8A 1C 14
9217 D6 25 92

921A A0 FB FF
921D 53
921E C0
921F D8 28 92

9222 8A 70 18

9225 A8 9C 73 .. / $739C

9228 A0 FB FF
922B D1
922C A9 9A 73 .. / $739A

922F A0 FB FF
9232 51
9233 C8
9234 D8 A8 92

9237 A0 FB FF
923A D1
923B B3
923C 60
923D E9 B1 8B 04 / Call $8BB1
9241 D8 A8 92

9244 A0 FA FF
9247 B3
9248 A0 FB FF
924B D1
924C B3
924D 60
924E E9 2A 8C 06 / Call $8C2A
9252 2B

9253 8E 2C 01
9256 E9 E1 CF 02 / Call $CFE1
925A 1B
925B C9
925C D8 9D 92

925F AC DA 8B .. / Call $8BDA
9262 D8 A8 92

9265 A0 FB FF
9268 D1
9269 B3
926A 60
926B E9 09 8C 04 / Call $8C09
926F D8 99 92

9272 A0 FA FF
9275 B3
9276 A0 FB FF
9279 D1
927A B3
927B 60
927C E9 96 8C 06 / Call $8C96
9280 2A
9281 8D 64
9283 E9 E1 CF 02 / Call $CFE1 -> RNG 00-99
9287 1A
9288 C6
9289 D8 A8 92

928C 60
928D A0 FB FF
9290 D1
9291 B3
9292 E9 ED 8D 04 / Call $8DED
9296 D6 A7 92

9299 61
929A D6 8D 92

929D A0 FB FF
92A0 D1
92A1 B3
92A2 E9 1E 90 02 / Call $901E
92A6 41

92A7 28

92A8 08
92A9 D7 AF 92

92AC AC CC 90 .. / Call $90CC

92AF 08
92B0 CF
----------------------------------------------------
Palettes

92B2 0F 00 10 30 / 0F 27 37 30 / 0F 16 27 37 / 0F 12 29 37
92C2 0F 00 10 30 / 0F 06 17 26 / 0F 26 32 38 / 0F 12 29 00 
92D2 0F 00 10 30 / 0F 27 37 20 / 0F 17 27 20 / 0F 12 27 37 
92E2 0F 00 10 30 / 0F 27 18 38 / 0F 17 27 38 / 0F 12 29 18 
92F2 0F 00 10 30 / 0F 16 18 38 / 0F 18 38 20 / 0F 12 29 37 
9302 0F 00 10 30 / 0F 17 28 38 / 0F 17 27 37 / 0F 12 14 38 
9312 0F 00 10 30 / 0F 06 30 27 / 0F 06 16 27 / 0F 12 06 27 
9322 0F 00 10 30 / 0F 18 38 30 / 0F 16 18 38 / 0F 12 29 37 
----------------------------------------------------
Strings
9436 "Now leaving\n\n"
9444 "..."
9448 "The next day..."

$9458 String pointer table
00 9462 "Blimey! This port's\nempty!"
01 947D "There's no inn here.\nWhat a waste of a\nport"
02 94A9 "It looks like we can\nonly get supplies\nhere"
03 94D5 "Cap'n, this port\nisn't worth our time"
04 94FB "There's nothing here!\nLet's get our\nsupplies and move on"

9534 [1B 52 28] [1B 45 3D]
953B ""

$953C
00 9544 "We don't have any goldfor a bribe!"
01 9567 "How much'll we give\nthem"
02 9580 "Cap'n, some gruff\nlooking officers are\nheading our way!"
03 95B8 "What should we do,\nCaptain?"

95F4 "Hmm. I'll let you get\naway with it just\nthis once"
9626 "What's this money?\nDid ye think ye could\nbribe us? Get out!"

$9662
00 9666 "Bribe"
01 966C "Sail"

9671 "Don't worry, you'll\nbe able to return\nsooner or later"
96A7 "Sorry, I'm just\ndoing my job"
96C4 "All Portuguese are\nprohibited here. You\nmust leave at once!"
9700 "It doesn't look like\nwe're very welcome\nhere"
972D "Well, let's get to\nwork right away"
9750 "It's no use. We have\nto leave"
976E "Confound it! You'll\npay for this!"
9790 "We got away!"
979D "Blast!  We're\nsurrounded!"
97B7 "\nIt's no use\nstruggling!\nWe're confiscating\nyour goods"
97EE "We've no gold for a\nbribe!"
9809 "We'll show that\nPortuguese fool by\nseizing his goods"
983E "How much'll we give\Nthem"
9857 "Ha ha ha!\nMuch obliged!"
986F "Trying to bribe us,\neh? Seize his\ngoods!"
9898 "Well, he's an honest\nscoundrel. I'll let\nyou go this time"
98D2 "We'll show that\nPortuguese fool and\nseize his goods!"

$9907
00 9919 Portugal
01 9922 Spain
02 9928 Turkey

   990D 9913
00 992F 8EC8 "Flee"
01 9934 8F20 "Bribe"
02 993A 8FD7 "Surrender"

9944 "Cap'n, some gruff\nlooking officers are\nheading our way!"
997C "\n"
997E ", you are\n\nunder arrest in the\n\nname of %s!"
99AA "What shall we do?"
99BC "There's trouble in\nstore for us here.\nWe'd better set sail"
99F7 "How about a stop at\nthe inn? We might hearsome useful gossip"
9A34 "It'd be nice to stop\nat the inn once in a\nwhile"
9A64 "\nCap'n, I hear the\nPrincess is a beauty.\nI'd love to set my\neyes on her just once!"
9AB7 "Captain, this is a\nsuspicious looking\nport"
9AE2 "Cap'n, this port looksa bit tough"
9B04 "Cap'n, have ye heard\nof the troubles out atsea?"
9B34 "We're likely to get\ntossed about if we\nsail into a storm"
9B6D "I've heard of ships\nbeing swallowed up in\ncertain waters"
9BA6 "If the rudder gets\ntangled in seaweed\nwe'll have to fix 'er"
9BE2 "Where to, Captain?"
9BF5 ""