Page D5
ROM: 02A010 - 02C00F
----------------------------------------------------
     00 01 02 03 04 05 06 07 08 09 0A 0B 0C 0D 0E 0F
8000 4C 03 E0 

Function $8000

8000 JMP $E003
----------------------------------------------------
     00 01 02 03 04 05 06 07 08 09 0A 0B 0C 0D 0E 0F
8000          20 BF E4 00 00 68 68 8E 58 92 66 E9 D4
8010 EE 08 CF 

Function $8003 -> Change nametable palettes

8008 68
8009 68
800A 8E 58 92    / $9258 [0F 12 16 38 ] [0F 1A 16 38]
800D 66
800E E9 D4 EE 08 / Call $EED4 -> Sysop 0x06 (Set nametable palettes)
8012 CF

----------------------------------------------------
     00 01 02 03 04 05 06 07 08 09 0A 0B 0C 0D 0E 0F
8010          20 BF E4 FA FF A0 0B 00 53 BA 59 B5 73
8020 2B A0 0B 00 53 B8 57 B5 D0 2A A0 0B 00 75 B3 E9
8030 32 D5 02 29 A0 0D 00 57 B5 8C 96 6C BB D3 5F DA
8040 B3 0A 76 B3 3B 8E 39 81 8E DE 00 61 E9 3A DE 0C
8050 0A 7B B3 3B E9 70 C7 04 A0 0D 00 57 B5 8C 96 6C
8060 BB D3 5F DA B3 E9 32 D5 02 B3 E9 6B D5 02 CF 

Function $8013 (FA FF)

8018 A0 0B 00
801B 53
801C BA
801D 59
801E B5
801F 73
8020 2B

8021 A0 0B 00
8024 53
8025 B8
8026 57
8027 B5
8028 D0
8029 2A

802A A0 0B 00
802D 75
802E B3
802F E9 32 D5 02 / Call $D532 -> Get ptr to ship?
8033 29

8034 A0 0D 00
8037 57
8038 B5
8039 8C 96 6C    / $6C96
803C BB
803D D3
803E 5F
803F DA
8040 B3
8041 0A
8042 76
8043 B3
8044 3B
8045 8E 39 81
8048 8E DE 00
804B 61
804C E9 3A DE 0C / Call $DE3A -> DE:8139

     00 01 02 03 04 05 06 07 08 09 0A 0B 0C 0D 0E 0F
8040 B3 0A 76 B3 3B 8E 39 81 8E DE 00 61 E9 3A DE 0C
8050 0A 7B B3 3B E9 70 C7 04 A0 0D 00 57 B5 8C 96 6C
8060 BB D3 5F DA B3 E9 32 D5 02 B3 E9 6B D5 02 CF 
----------------------------------------------------
     00 01 02 03 04 05 06 07 08 09 0A 0B 0C 0D 0E 0F
8060                                              20
8070 BF E4 FC FF 89 FF A8 64 70 AC CE B7 3C 60 E9 26
8080 D0 04 2B AC 03 80 40 D6 96 80 0C 1A BB D3 B3 3A
8090 E9 13 80 04 0A D0 2A 0A 1B C6 D7 8A 80 0B CF 

Function $806F (FC FF)
Args:
<0C> Pointer to local memory region

8074 89 FF
8076 A8 64 70    / $7064

8079 AC CE B7    / Call $B7CE

807C 3C
807D 60
807E E9 26 D0 04 / Call $D026
8082 2B

8083 AC 03 80    / Call $8003 -> Change nametable palettes

8086 40
8087 D6 96 80

Loop:
	808A 0C
	808B 1A
	808C BB
	808D D3
	808E B3
	808F 3A
	8090 E9 13 80 04 / Call $8013
	8094 0A
	8095 D0
Bounds check:
	8096 2A
	8097 0A
	8098 1B
	8099 C6
	809A D7 8A 80
	
809D 0B
809E CF
----------------------------------------------------
     00 01 02 03 04 05 06 07 08 09 0A 0B 0C 0D 0E 0F
8090                                              20
80A0 BF E4 00 00 6C 63 E9 0B C7 04 3C E9 7B D8 02 B3
80B0 0C 57 B5 8C 90 6C BB D3 B3 8E 60 92 E9 19 C7 06
80C0 CF 

Function $809F (00 00) -> Print durability of ship# <00>
Args:
<0C> Ship #

80A4 6C
80A5 63
80A6 E9 0B C7 04 / Call $C70B

80AA 3C
80AB E9 7B D8 02 / Call $D87B -> Get max durability
80AF B3
80B0 0C
80B1 57
80B2 B5
80B3 8C 90 6C    / $6C90
80B6 BB
80B7 D3          / Get current durability
80B8 B3          
80B9 8E 60 92    / $9260 "Durability:        %3d/%3d"
80BC E9 19 C7 06 / Call $C719 -> Print

80C0 CF
----------------------------------------------------
     00 01 02 03 04 05 06 07 08 09 0A 0B 0C 0D 0E 0F
80C0    20 BF E4 00 00 6E 63 E9 0B C7 04 3C E9 BE D8
80D0 02 B3 0C 57 B5 8C 91 6C BB D3 B3 8E 7B 92 E9 19
80E0 C7 06 CF 

Function $80C1 (00 00)

80C6 6E
80C7 63
80C8 E9 0B C7 04 / Call $C70B

80CC 3C
80CD E9 BE D8 02 / Call $D8BE -> Get max handling
80D1 B3
80D2 0C
80D3 57
80D4 B5
80D5 8C 91 6C
80D8 BB
80D9 D3
80DA B3
80DB 8E 7B 92    / $927B "Handling:          %3d/%3d"

     00 01 02 03 04 05 06 07 08 09 0A 0B 0C 0D 0E 0F
80D0 02 B3 0C 57 B5 8C 91 6C BB D3 B3 8E 7B 92 E9 19
80E0 C7 06 CF 
----------------------------------------------------
     00 01 02 03 04 05 06 07 08 09 0A 0B 0C 0D 0E 0F
80E0          20 BF E4 00 00 6D 63 E9 0B C7 04 3C E9
80F0 2F D9 02 B3 0C 57 B5 8C 92 6C BB D3 B3 8E 96 92
8100 E9 19 C7 06 CF 

Function $80E3 (00 00)

80E8 6D
80E9 63
80EA E9 0B C7 04 / Call $C70B

80EE 3C
80EF E9 2F D9 02 / Call $D92F
80F3 B3
80F4 0C 
80F5 57
80F6 B5
80F7 8C 92 6C    / $6C92
80FA BB
80FB D3
80FC B3
80FD 8E 96 92    / $9296 "Power:             %3d/%3d"
8100 E9 19 C7 06 / Call $C719 -> Print

8104 CF
----------------------------------------------------
     00 01 02 03 04 05 06 07 08 09 0A 0B 0C 0D 0E 0F
8100                20 BF E4 00 00 6F 63 E9 0B C7 04
8110 0C 57 B5 8C 96 6C BB D3 5F DA B3 E9 32 D5 02 8F
8120 12 B3 E9 26 D3 02 B3 3C E9 2A DA 02 B3 8E B1 92
8130 E9 19 C7 06 CF 

Function $8105

810A 6F
810B 63
810C E9 0B C7 04 / Call $C70B -> Text pos  3,15

8110 0C
8111 57
8112 B5
8113 8C 96 6C
8116 

     00 01 02 03 04 05 06 07 08 09 0A 0B 0C 0D 0E 0F
8110 0C 57 B5 8C 96 6C BB D3 5F DA B3 E9 32 D5 02 8F
8120 12 B3 E9 26 D3 02 B3 3C E9 2A DA 02 B3 8E B1 92
8130 E9 19 C7 06 CF 
----------------------------------------------------
     00 01 02 03 04 05 06 07 08 09 0A 0B 0C 0D 0E 0F
8130                20 BF E4 00 00 8D 12 63 E9 0B C7
8140 04 3C E9 A8 D9 02 B3 3C E9 6A DA 02 B3 8E CC 92
8150 E9 19 C7 06 CF 

Function $8135 -> Print total/max load of ship #<0C>

813A 8D 12
813C 63
813D E9 0B C7 04 / Call $C70B -> Text pos  3,18

8141 3C
8142 E9 A8 D9 02 / Call $D9A8 -> Get max load of ship
8146 B3
8147 3C
8148 E9 6A DA 02 / Call $DA6A -> Get total load of ship
814C B3
814D 8E CC 92    / $92CC "Total load:       %4d/%d"
8150 E9 19 C7 06 / Call $C719 -> Print
8154 CF
----------------------------------------------------
     00 01 02 03 04 05 06 07 08 09 0A 0B 0C 0D 0E 0F
8150                20 BF E4 00 00 8D 10 63 E9 0B C7
8160 04 60 8E E5 92 E9 03 C0 04 0C 57 B5 8C 94 6C BB
8170 B0 B3 8E F9 92 E9 19 C7 04 0C 57 B5 8C 96 6C BB
8180 D3 5F DA B3 E9 32 D5 02 7F B0 B3 8E FE 92 E9 19
8190 C7 04 CF 
----------------------------------------------------
     00 01 02 03 04 05 06 07 08 09 0A 0B 0C 0D 0E 0F
8190          20 BF E4 FA FF 0C 8B 18 B5 8C A4 6A BB
81A0 29 0C 57 B5 8C 90 6C BB 2A 0A 76 D3 5F DA B3 E9
81B0 32 D5 02 2B AC CE B7 8E E8 00 8E 36 A9 8E 92 A7
81C0 6E 8D 1E 66 61 69 E9 D4 EE 10 AC 03 80 0A 76 D3
81D0 5F DA B3 67 63 8E 39 81 8E DE 00 61 E9 3A DE 0C
81E0 67 6F E9 0B C7 04 3B 8E 02 93 E9 19 C7 04 69 6F
81F0 E9 0B C7 04 60 8E 0B 93 E9 03 C0 04 6A 6F E9 0B
8200 C7 04 0C 8B 18 B5 8C A4 6A BB D3 57 B5 8C 42 65
8210 BB B0 B3 E9 6B D5 02 0C 8B 18 B5 8C BB 6A BB D3
8220 B3 68 6B 8E 87 81 8E DE 00 61 E9 3A DE 0C 3C E9
8230 9F 80 02 3C E9 E3 80 02 3C E9 C1 80 02 3C E9 05
8240 81 02 3C E9 35 81 02 3C E9 55 81 02 8D 11 63 E9
8250 0B C7 04 60 8E 16 93 E9 03 C0 04 0A 76 D3 54 BE
8260 53 DA D2 8C 33 BC BB B3 E9 26 D3 02 B3 E9 6B D5
8270 02 60 8E 1D 93 E9 03 C0 04 8D 11 8D 16 E9 0B C7
8280 04 0B 8F 11 B3 E9 0C D3 02 B3 0A 73 D3 B3 8E 20
8290 93 E9 19 C7 06 CF 

Function $8193 (FA FF)

8198 0C
8199 8B 18
819B B5
819C 8C A4 6A
819F BB
81A0 29

81A1 0C
81A2 57
81A3 B5
81A4 8C 90 6C
81A7 BB
81A8 2A

81A9 0A
81AA 76
81AB D3
81AC 5F
81AD DA
81AE B3
81AF E9 32 D5 02 / Call $D532 -> Get ptr to ship name
81B3 2B          / Ship name

81B4 AC CE B7 .. / Call $B7CE

81B7 8E E8 00
81BA 8E 36 A9
81BD 8E 92 A7
81C0 6E
81C1 8D 1E
81C3 66
81C4 61
81C5 69
81C6 E9 D4 EE 10 / Call $EED4 -> Sysop 0x09 (print graphic)

81CA AC 03 80    / Call $8003

81CD 0A
81CE 76
81CF D3
81D0 5F
81D1 DA
81D2 B3
81D3 67
81D4 63
81D5 8E 39 81
81D8 8E DE 00
81DB 61
81DC E9 3A DE 0C / Call $DE3A -> DE:8139

81E0 67
81E1 6F
81E2 E9 0B C7 04 / Call $C70B -> Text pos 15, 7

81E6 3B          / Ship name
81E7 8E 02 93    / $9302 "Ship: %s"
81EA E9 19 C7 04 / Call $C719 -> Print

81EE 69
81EF 6F
81F0 E9 0B C7 04 / Call $C70B -> Text pos 15, 9

81F4 60
81F5 8E 0B 93    / $930B "Navigator:"
81F8 E9 03 C0 04 / Call $C003 -> Print

81FC 6A
81FD 6F
81FE E9 0B C7 04 / Call $C70B -> Text pos 15,10

8202 0C
8203 8B 18
8205 B5
8206 8C A4 6A
8209 BB
820A D3
820B 57
820C B5
820D 8C 42 65
8210 BB
8211 B0          / Ptr to Navigator name
8212 B3
8213 E9 6B D5 02 / Call $D56B -> Print

8217 0C
8218 8B 18
821A B5
821B 8C BB 6A
821E BB
821F D3
8220 B3
8221 68
8222 6B
8223 8E 87 81
8226 8E DE 00
8229 61
822A E9 3A DE 0C / Call $DE3A -> DE:8187 -> Print figurehead?

822E 3C
822F E9 9F 80 02 / Call $809F -> Print durability of ship

8233 3C
8234 E9 E3 80 02 / Call $80E3 -> Print power of ship

8238 3C
8239 E9 C1 80 02 / Call $80C1 -> Print handling of ship

823D 3C
823E E9 05 81 02 / Call $8105

8242 3C
8243 E9 35 81 02 / Call $8135 -> Print total/max load of ship

8247 3C
8248 E9 55 81 02 / Call $8155

824C 8D 11
824E 63
824F E9 0B C7 04 / Call $C70B -> Text pos  3,17

8253 60
8254 8E 16 93    / $9316 "Arms ("
8257 E9 03 C0 04 / Call $C003 -> Print

825B 0A
825C 76
825D D3
825E 54
825F BE
8260 53
8261 DA
8262 D2
8263 8C 33 BC
8266 BB
8267 B3
8268 E9 26 D3 02 / Call $D326
826C B3
826D E9 6B D5 02 / Call $D56B

8271 60
8272 8E 1D 93    / $931D "):"
8275 E9 03 C0 04 / Call $C003 -> Print

8279 8D 11
827B 8D 16
827D E9 0B C7 04 / Call $C70B -> Text pos 22,17

8281 0B
8282 8F 11
8284 B3
8285 E9 0C D3 02 / Call $D30C
8289 B3
828A 0A
828B 73
828C D3
828D B3
828E 8E 20 93 .. / $9320 "%3d/%3d"
8291 E9 19 C7 06 / Call $C719 -> Print

8295 CF
----------------------------------------------------
     00 01 02 03 04 05 06 07 08 09 0A 0B 0C 0D 0E 0F
8290                   20 BF E4 00 00 8E 03 80 8E D6
82A0 00 61 E9 3A DE 06 CF 

Function $8296 -> Buy

829B 8E 03 80
829E 8E D6 00
82A1 61
82A2 E9 3A DE 06 / Call $DE3A -> D6:8003

82A6 CF
----------------------------------------------------
     00 01 02 03 04 05 06 07 08 09 0A 0B 0C 0D 0E 0F
82A0                      20 BF E4 FC FF 40 2A 61 65
82B0 E9 69 B8 04 61 E9 1B B8 02 61 8E 58 93 E9 03 C0
82C0 04 62 65 8E 28 93 62 67 8D 17 68 E9 56 A1 0E 2B
82D0 0B 8C FF 00 C1 D8 E4 82 0B D2 8C 32 93 BB B0 DD
82E0 CD 0A DB 2A 0B 8C FF 00 C0 D8 AE 82 0A CF 

Function $82A7 (FC FF)

82AC 40
82AD 2A

82AE 61
82AF 65
82B0 E9 69 B8 04 / Call $B869

82B4 61
82B5 E9 1B B8 02 / Call $B81B

82B9 61
82BA 8E 58 93 .. / $9358 "What brings you here?"
82BD E9 03 C0 04 / Call $C003 -> Print

82C1 62
82C2 65
82C3 8E 28 93 .. / $9328 (Menu options)
82C6 62
82C7 67
82C8 8D 17
82CA 68
82CB E9 56 A1 0E / Call $A156
82CF 2B

82D0 0B
82D1 8C FF 00
82D4 C1
82D5 D8 E4 82

82D8 0B
82D9 D2
82DA 8C 32 93 .. / $9332
82DD BB
82DE B0
82DF DD

82E0 CD
82E1 0A
82E2 DB
82E3 2A

82E4 0B
82E5 8C FF 00
82E8 C0
82E9 D8 AE 82

82EC 0A
82ED CF
----------------------------------------------------
     00 01 02 03 04 05 06 07 08 09 0A 0B 0C 0D 0E 0F
82E0                                           20 BF
82F0 E4 00 00 AC 89 B8 AC 3F B8 8E 6E 93 E9 F4 A3 02
8300 CF 
----------------------------------------------------
     00 01 02 03 04 05 06 07 08 09 0A 0B 0C 0D 0E 0F
8300    20 BF E4 00 00 AC 3F B8 8E 88 93 E9 F4 A3 02
8310 CF 

Function $8301 (00 00) -> Print "Changed your mind, eh?"

8306 AC 3F B8    / Call $B83F

8309 8E 88 93    / $9388 "Changed yer mind, eh?"
830C E9 F4 A3 02 / Call $A3F4 -> Print
----------------------------------------------------
     00 01 02 03 04 05 06 07 08 09 0A 0B 0C 0D 0E 0F
8310    20 BF E4 F2 FF 61 65 E9 69 B8 04 AC 3F B8 8E
8320 AE 93 E9 F4 A3 02 A4 6B 66 5A C6 D8 33 83 AC EE
8330 82 40 CF DE F6 FF B3 E9 6F 80 02 A2 F5 FF AC 3F
8340 B8 61 8E D7 93 E9 03 C0 04 A0 F5 FF B3 E9 98 B8
8350 02 A2 F4 FF A0 F4 FF 8C FF 00 C0 D8 66 83 AC 01
8360 83 AC CE B7 40 CF DE F6 FF B3 A0 F4 FF B4 BB D3
8370 B3 E9 93 81 02 AC 3F B8 61 8E EA 93 E9 03 C0 04
8380 AC 9F CD 25 05 D7 92 83 AC 3F B8 8E FD 93 E9 F4
8390 A3 02 05 D8 33 83 AC 3F B8 8E 16 94 E9 F4 A3 02
83A0 AC 37 CE AC 89 A5 8D 10 60 8E 9E 93 66 E9 D4 EE
83B0 08 8E E2 00 8E EA B5 8E DE B2 8D 1A 8D 1E 62 61
83C0 69 E9 D4 EE 10 8E E7 00 8E AC A0 8E 04 A0 66 8D
83D0 1C 8D 16 62 69 E9 D4 EE 10 DE F6 FF B3 A0 F4 FF
83E0 B4 BB D3 B3 E9 32 D5 02 B3 67 8E A6 83 8E C0 00
83F0 61 E9 3A DE 0A D8 D9 83 8D 19 65 E9 70 C7 04 61
8400 8E 31 94 E9 03 C0 04 AC 9F CD D8 C5 83 AC 89 A5
8410 AC 37 CE 4A CD A4 6B 66 BC A8 6B 66 41 CF 

Function $8311 (F2 FF) -> Rename Ship

8316 61
8317 65
8318 E9 69 B8 04 / Call $B869

831C AC 3F B8    / Call $B83F

831F 8E AE 93    / $93AE "Renaming a ship will\ncost 10 gold pieces"
8322 E9 F4 A3 02 / Call $A3F4 -> Print

8326 A4 6B 66    / $666B (Total Gold)
8329 5A
832A C6
832B D8 33 83

if (less than 10 gold)
{
	832E AC EE 82    / $82EE
	8331 40
	8332 CF          / Return 0
}

8333 DE F6 FF
8336 B3
8337 E9 6F 80 02 / Call $806F
833B A2 F5 FF

833E AC 3F B8    / Call $B83F

8341 61
8342 8E D7 93    / $93D7 "Rename which ship?"
8345 E9 03 C0 04 / Call $C003 -> Print

8349 A0 F5 FF
834C B3
834D E9 98 B8 02 / Call $B898 -> Get player # selection
8351 A2 F4 FF    /

8354 A0 F4 FF
8357 8C FF 00
835A C0
835B D8 66 83

if ( player cancelled )
{
	835E AC 01 83    / Call $8301 -> Print "Changed yer mind, eh?"
	8361 AC CE B7    / Call $B7CE
	8364 40
	8365 CF          / Return
}

8366 DE F6 FF
8369 B3
836A A0 F4 FF
836D B4
836E BB
836F D3
8370 B3
8371 E9 93 81 02 / Call $8193 -> Print ship data

8375 AC 3F B8    / Call $B83F

8378 61
8379 8E EA 93    / $93EA "Is this the\nvessel"
837C E9 03 C0 04 / Call $C003 -> Print

8380 AC 9F CD    / Call $CD9F -> Get player Y/N response
8383 25

8384 05
8385 D7 92 83

	8388 AC 3F B8 .. / Call $B83F
	838B 8E FD 93    / $93FD "Then choose another\nship"
	838E E9 F4 A3 02 / Call $A3F4 -> Print

8392 05
8393 D8 33 83

8396 AC 3F B8 .. / Call $B83F

8399 8E 16 94    / $9416 "Give 'er a new name,\nmatey"
839C E9 F4 A3 02 / Call $A3F4 -> Print

83A0 AC 37 CE    / Call $CE37
83A3 AC 89 A5    / Call $A589

83A6 8D 10
83A8 60
83A9 8E 9E 93
83AC 66
83AD E9 D4 EE 08 / Call $EED4 -> Sysop 0x06 -> Change palettes

83B1 8E E2 00
83B4 8E EA B5
83B7 8E DE B2
83BA 8D 1A
83BC 8D 1E
83BE 62
83BF 61
83C0 69
83C1 E9 D4 EE 10 / Call $EED4 -> Sysop 0x09 (Print graphic)

83C5 8E E7 00
83C8 8E AC A0
83CB 8E 04 A0
83CE 66
83CF 8D 1C
83D1 8D 16
83D3 62
83D4 69
83D5 E9 D4 EE 10 / Call $EED4 -> Sysop 0x09 (Print graphic)

83D9 DE F6 FF
83DC B3
83DD A0 F4 FF
83E0 B4
83E1 BB
83E2 D3
83E3 B3
83E4 E9 32 D5 02 / Call $D532 -> Get ptr to ship name?
83E8 B3
83E9 67
83EA 8E A6 83
83ED 8E C0 00
83F0 61
83F1 E9 3A DE 0A / Call $DE3A -> C0:83A6 (Let player enter name)
83F5 D8 D9 83

83F8 8D 19
83FA 65
83FB E9 70 C7 04 / Call $C770 -> Text pos  5,25
83FF 61
8400 8E 31 94    / $9431 "Is this name OK"
8403 E9 03 C0 04 / Call $C003 -> Print
8407 AC 9F CD    / Call $CD9F
840A D8 C5 83

840D AC 89 A5    / Call $A589

8410 AC 37 CE    / Call $CE37

8413 4A
8414 CD
8415 A4 6B 66
8418 BC
8419 A8 6B 66    / Subtract 10 gold

841C 41
841D CF
----------------------------------------------------
     00 01 02 03 04 05 06 07 08 09 0A 0B 0C 0D 0E 0F
8410                                           20 BF
8420 E4 E8 FF 61 65 E9 69 B8 04 DE EC FF B3 E9 6F 80
8430 02 A2 F6 FF AC 3F B8 61 8E 5D 94 E9 03 C0 04 A0
8440 F6 FF B3 E9 98 B8 02 A2 EB FF A0 EB FF 8C FF 00
8450 C0 D8 5C 84 AC 01 83 AC CE B7 40 CF DE EC FF B3
8460 A0 EB FF B4 BB D3 A2 F8 FF A0 F8 FF B3 E9 93 81
8470 02 40 A2 F9 FF A0 F8 FF 57 B5 8C 90 6C BB 20 00
8480 73 D3 D8 8F 84 00 76 D3 54 BE 53 DA A2 F9 FF AC
8490 3F B8 61 8E 78 94 E9 03 C0 04 AC 9F CD D8 A2 86
84A0 D6 8F 86 61 65 E9 69 B8 04 AC 3F B8 61 8E 89 94
84B0 E9 03 C0 04 62 63 8E 41 94 62 6A 8D 17 68 E9 56
84C0 A1 0E A2 EB FF A0 EB FF 8C FF 00 C1 D8 8F 86 A5
84D0 67 70 5E B5 8C BD 67 BB D3 8F 32 B3 A0 EB FF 51
84E0 BE D0 B4 B5 2B 00 76 D3 5F DA B3 E9 32 D5 02 8F
84F0 11 B3 E9 0C D3 02 A2 F7 FF A0 F9 FF B3 A0 EB FF
8500 D0 B4 C0 D8 11 85 00 73 D3 CD A0 F7 FF BC A2 F7
8510 FF A0 F7 FF D8 82 86 AC 3F B8 60 8E 9C 94 E9 03
8520 C0 04 A0 EB FF D0 D2 8C 33 BC BB B3 E9 26 D3 02
8530 B3 E9 6B D5 02 3B 8E 9E 94 E9 19 C7 04 AC 7D A0
8540 AC 3F B8 8D 19 6C E9 70 C7 04 AA 6B 66 8E BA 94
8550 E9 99 C7 04 61 E9 1B B8 02 A0 F7 FF B3 61 8E CA
8560 94 E9 12 CD 06 2A 0A 8B FF C1 D8 8F 86 0A 1B B5
8570 B3 A4 6B 66 B4 C6 D8 7F 85 AC EE 82 D6 8F 86 AC
8580 01 B8 0B 1A B5 CD A4 6B 66 BC A8 6B 66 A0 F9 FF
8590 B3 A0 EB FF D0 B4 C0 D8 C0 85 AC 3F B8 0A 51 C0
85A0 D8 A9 85 8A FB 94 D6 AC 85 8A FC 94 B3 3A 8E D8
85B0 94 E9 99 C7 06 0A B3 00 73 B4 B3 D3 BB D6 77 86
85C0 00 73 D3 D8 35 86 AC 3F B8 60 8E FE 94 E9 03 C0
85D0 04 A0 EB FF D0 D2 8C 33 BC BB B3 E9 26 D3 02 B3
85E0 E9 6B D5 02 60 8E 00 95 E9 03 C0 04 00 73 D3 B3
85F0 A5 67 70 5E B5 8C BD 67 BB D3 8F 32 B3 A0 F9 FF
8600 51 BE D0 B4 B5 51 BE B4 B5 29 09 B7 26 B7 14 A4
8610 6B 66 B7 26 B7 15 B7 03 B7 19 60 EA 00 00 B7 0A
8620 D8 2C 86 8A 60 EA A8 6B 66 D6 5B 86 09 CD A4 6B
8630 66 BB D6 26 86 AC 3F B8 60 8E 37 95 E9 03 C0 04
8640 A0 EB FF D0 D2 8C 33 BC BB B3 E9 26 D3 02 B3 E9
8650 6B D5 02 60 8E 50 95 E9 03 C0 04 00 73 B3 0A D4
8660 8E CF 00 00 76 B4 B3 D3 DA D4 A0 EB FF D0 54 BD
8670 B3 00 76 B4 B3 D3 DB D4 61 E9 9B CE 02 AC CE B7
8680 41 CF AC 89 B8 AC 3F B8 8E 52 95 E9 F4 A3 02 A0
8690 EB FF 8C FF 00 C1 D7 A3 84 61 65 E9 69 B8 04 AC
86A0 01 83 AC 3F B8 8E 6E 95 E9 F4 A3 02 D6 29 84 
----------------------------------------------------
     00 01 02 03 04 05 06 07 08 09 0A 0B 0C 0D 0E 0F
86A0                                              20
86B0 BF E4 E4 FF DE F2 FF B3 E9 6F 80 02 A2 F1 FF 61
86C0 65 E9 69 B8 04 AC 3F B8 61 8E 87 95 E9 03 C0 04
86D0 A0 F1 FF B3 E9 98 B8 02 A2 F0 FF A0 F0 FF 8C FF
86E0 00 C0 D8 ED 86 AC 01 83 AC CE B7 40 CF DE F2 FF
86F0 B3 A0 F0 FF B4 BB D3 B3 E9 93 81 02 AC 3F B8 61
8700 8E A0 95 E9 03 C0 04 AC 9F CD 2B 0B D7 19 87 AC
8710 3F B8 8E B3 95 E9 F4 A3 02 0B D8 B4 86 AC 01 B8
8720 A5 67 70 5E B5 8C BD 67 BB D3 8F 14 B3 DE F2 FF
8730 B3 A0 F0 FF B4 BB D3 B3 E9 32 D5 02 8F 14 B3 E9
8740 0C D3 02 52 BE 53 DA D0 B4 B5 53 B5 23 8D 19 6C
8750 E9 70 C7 04 AA 6B 66 8E CC 95 E9 99 C7 04 61 E9
8760 1B B8 02 DE F2 FF B3 A0 F0 FF B4 BB D3 B3 E9 32
8770 D5 02 8F 14 B3 E9 0C D3 02 54 BE 51 DA 2A 33 0A
8780 D8 89 87 8A FC 95 D6 8C 87 8A FE 95 B3 8E DC 95
8790 E9 99 C7 06 AC 9F CD 2B 0B D8 A8 87 0B D8 C5 87
87A0 A4 6B 66 13 C6 D8 C5 87 0B D8 B7 87 A4 6B 66 13
87B0 C6 D8 B7 87 AC EE 82 61 65 E9 69 B8 04 AC 01 83
87C0 AC CE B7 40 2B 0B D8 B4 86 AC 3F B8 8E 00 96 E9
87D0 F4 A3 02 03 CD A4 6B 66 BC A8 6B 66 8D 10 DE F2
87E0 FF B3 A0 F0 FF B4 BB D3 B3 E9 32 D5 02 8F 14 B4
87F0 B3 D3 DC D4 DE F2 FF B3 A0 F0 FF B4 BB D3 57 B5
8800 8C 96 6C BB D3 5F DA B3 E9 32 D5 02 8F 14 B3 E9
8810 0C D3 02 55 BE 57 DA 21 DE F2 FF B3 A0 F0 FF B4
8820 BB D3 57 B5 8C 96 6C BB D3 5F DA B3 E9 32 D5 02
8830 8F 14 B3 E9 0C D3 02 53 DA 20 DE F2 FF B3 A0 F0
8840 FF B4 BB D3 57 B5 8C 96 6C BB D3 5F DA B3 E9 32
8850 D5 02 8F 14 B3 E9 0C D3 02 52 BE 53 DA 85 E6 DE
8860 F2 FF B3 A0 F0 FF B4 BB D3 57 B5 8C 96 6C BB D3
8870 5F DA B3 E9 32 D5 02 8F 14 B3 E9 0C D3 02 54 BE
8880 51 DA 85 E4 DE F2 FF B3 A0 F0 FF B4 BB D3 57 B5
8890 8C 90 6C BB 22 32 00 5A B5 B3 01 5A B5 B4 BB 8F
88A0 14 B3 02 D3 B3 E9 6C DD 04 D4 02 D0 B3 44 83 E4
88B0 BC B3 4A 83 E6 BC B3 89 14 11 BC 8B 64 B5 8B 14
88C0 B6 B4 B5 5A B6 B4 B5 54 B6 B3 02 D0 D3 B3 E9 6C
88D0 DD 04 D4 02 72 B3 81 E4 73 B3 4A 11 BC B3 81 E6
88E0 5A B5 8F 64 B4 B5 5A B8 B4 B5 52 BE B3 02 72 D3
88F0 B3 E9 6C DD 04 D4 AC CE B7 40 CF 
----------------------------------------------------
     00 01 02 03 04 05 06 07 08 09 0A 0B 0C 0D 0E 0F
88F0                                  20 BF E4 EA FF
8900 41 2A 41 A2 EF FF 61 65 E9 69 B8 04 AC 3F B8 0A
8910 D8 20 89 61 8E 4F 96 E9 03 C0 04 40 2A D6 28 89
8920 61 8E 8E 96 E9 03 C0 04 DE F2 FF B3 E9 6F 80 02
8930 A2 F1 FF A0 F1 FF B3 E9 98 B8 02 A2 F0 FF A0 F0
8940 FF 8C FF 00 C0 D8 50 89 AC 01 83 AC CE B7 40 CF
8950 DE F2 FF B3 A0 F0 FF B4 BB D3 B3 E9 93 81 02 AC
8960 3F B8 61 8E A2 96 E9 03 C0 04 AC 9F CD 2B 0B D7
8970 7C 89 AC 3F B8 8E B5 96 E9 F4 A3 02 0B D8 28 89
8980 40 2B A4 6B 66 B7 26 B7 19 B8 88 00 00 B7 2B D8
8990 F9 89 A5 67 70 5E B5 8C B2 67 BB B0 8C 52 03 C4
89A0 D8 F9 89 8D 64 E9 E1 CF 02 D7 F9 89 8E E8 03 E9
89B0 E1 CF 02 90 30 75 22 AC 3F B8 32 8E C9 96 E9 99
89C0 C7 04 AC 9F CD D8 EA 89 02 CD A4 6B 66 BC A8 6B
89D0 66 DE F2 FF B3 A0 F0 FF B4 BB D3 8B 18 B5 8C BB
89E0 6A BB B3 47 D4 AC CE B7 41 CF AC 3F B8 8E 01 97
89F0 E9 F4 A3 02 AC CE B7 40 CF DE F2 FF B3 A0 F0 FF
8A00 B4 BB D3 8B 18 B5 8C A4 6A BB 21 A5 67 70 5E B5
8A10 8C B2 67 BB B0 8C AA 00 B6 D0 A2 F1 FF A0 EF FF
8A20 8C FF 00 C1 D8 2F 8B 0B D7 2F 8B 61 65 E9 69 B8
8A30 04 AC 3F B8 01 8F 17 D3 A2 EE FF A0 EE FF D8 8C
8A40 8A 61 8E 33 97 E9 03 C0 04 A0 EE FF 52 C0 D8 59
8A50 8A 61 8E 41 97 E9 03 C0 04 A0 EE FF 57 C1 D8 7C
8A60 8A A0 EE FF D1 A2 EE FF A0 EE FF D2 8C 1C 96 BB
8A70 B0 B3 8E 43 97 E9 99 C7 04 D6 84 8A 61 8E 47 97
8A80 E9 03 C0 04 61 8E 4E 97 E9 03 C0 04 61 8E 5C 97
8A90 E9 03 C0 04 6F 6A 66 8D 14 E9 02 A5 08 62 8E 1C
8AA0 96 A0 F1 FF B3 66 8D 14 E9 8D A0 0A A2 EF FF AC
8AB0 3F B8 AC 01 B8 AC 44 A5 A0 EF FF 8C FF 00 C1 D8
8AC0 1D 8A A0 EF FF B3 41 B4 BD 8C E8 03 B5 22 8D 19
8AD0 6C E9 70 C7 04 AA 6B 66 8E 72 97 E9 99 C7 04 61
8AE0 E9 1B B8 02 32 8E 82 97 E9 99 C7 04 AC 9F CD D8
8AF0 1D 8A A4 6B 66 12 C6 D8 00 8B AC EE 82 D6 1D 8A
8B00 AC 3F B8 8E A1 97 E9 F4 A3 02 02 CD A4 6B 66 BC
8B10 A8 6B 66 DE F2 FF B3 A0 F0 FF B4 BB D3 8B 18 B5
8B20 8C BB 6A BB B3 A0 EF FF D0 D4 AC CE B7 41 CF A0
8B30 EF FF 8C FF 00 C1 D7 02 89 0B D8 02 89 AC CE B7
8B40 0B CF 

Function $88FB

8900 41
8901 2A

8902 41
8903 A2 EF FF

8906 61
8907 65
8908 E9 69 B8 04 / Call $B869
890C AC 3F B8    / Call $B83F

890F 0A
8910 D8 20 89

8913 61
8914 8E 4F 96    / $964F "A good sailor always\nneeds a figurehead.\nWhich ship is it for?"
8917 E9 03 C0 04 / Call $C003 -> Print
891B 40
891C 2A
891D D6 28 89

8920 61
8921 8E 8E 96    / $968E "Choose another ship"
8924 E9 03 C0 04 / Call $C003 -> Print

8928 DE F2 FF
892B B3
892C E9 6F 80 02 / Call $806F
8930 A2 F1 FF

8933 A0 F1 FF
8936 B3
8937 E9 98 B8 02 / Call $B898
893B A2 F0 FF

893E A0 F0 FF
8941 8C FF 00
8944 C0
8945 D8 50 89

if
	8948 AC 01 83 .. / Call $8301 -> Print "Changed your mind, eh?"
	894B AC CE B7 .. / Call $B7CE
	894E 40
	894F CF          / return false

8950 DE F2 FF    / Array of ships
8953 B3
8954 A0 F0 FF    / Ship selected
8957 B4
8958 BB
8959 D3
895A B3
895B E9 93 81 02 / Call $8193 -> Print ship data
895F AC 3F B8    / Call $B83F
8962 61
8963 8E A2 96    / $96A2 "Is this the\nvessel"
8966 E9 03 C0 04 / Call $C003 -> Print
896A AC 9F CD
896D 2B

896E 0B
896F D7 7C 89

if
	8972 AC 3F B8
	8975 8E B5 96    / $96B5 "Then choose another"
	8978 E9 F4 A3 02 / Call $A3F4 -> Print

897C 0B
897D D8 28 89

8980 40
8981 2B

8982 A4 6B 66 .. / $666B (Total gold)
8985 B7 26
8987 B7 19
8989 B8 88 00 00
898D B7 2B
898F D8 F9 89

8992 A5 67 70 .. / $7067 (Current port)
8995 5E
8996 B5
8997 8C B2 67 .. / $67B2 (Economic worth)
899A BB
899B B0
899C 8C 52 03    / 850
899F C4
89A0 D8 F9 89

89A3 8D 64
89A5 E9 E1 CF 02 / Call $CFE1 -> RNG 00-99
89A9 D7 F9 89

89AC 8E E8 03
89AF E9 E1 CF 02 / Call $CFE1 -> RNG 000-999
89B3 90 30 75    / + 30000
89B6 22

89B7 AC 3F B8    / Call $B83F
89BA 32
89BB 8E C9 96    / $96C9 "A rare beauty came in\ntoday. Will ye buy it\nfor %d gold"
89BE E9 99 C7 04 / Call $C799 -> Print
89C2 AC 9F CD    / Call $CD9F
89C5 D8 EA 89

	89C8 02
	89C9 CD
	89CA A4 6B 66
	89CD BC
	89CE A8 6B 66
	89D1 DE F2 FF
	89D4 B3
	89D5 A0 F0 FF
	89D8 B4
	89D9 BB
	89DA D3
	89DB 8B 18
	89DD B5
	89DE 8C BB 6A .. / $6ABB (Figurehead)
	89E1 BB
	89E2 B3
	89E3 47
	89E4 D4
	89E5 AC CE B7
	89E8 41
	89E9 CF

89EA

89F9

     00 01 02 03 04 05 06 07 08 09 0A 0B 0C 0D 0E 0F
89E0 6A BB B3 47 D4 AC CE B7 41 CF AC 3F B8 8E 01 97
89F0 E9 F4 A3 02 AC CE B7 40 CF DE F2 FF B3 A0 F0 FF
8A00 B4 BB D3 8B 18 B5 8C A4 6A BB 21 A5 67 70 5E B5
8A10 8C B2 67 BB B0 8C AA 00 B6 D0 A2 F1 FF A0 EF FF
8A20 8C FF 00 C1 D8 2F 8B 0B D7 2F 8B 61 65 E9 69 B8
8A30 04 AC 3F B8 01 8F 17 D3 A2 EE FF A0 EE FF D8 8C
8A40 8A 61 8E 33 97 E9 03 C0 04 A0 EE FF 52 C0 D8 59
8A50 8A 61 8E 41 97 E9 03 C0 04 A0 EE FF 57 C1 D8 7C
8A60 8A A0 EE FF D1 A2 EE FF A0 EE FF D2 8C 1C 96 BB
8A70 B0 B3 8E 43 97 E9 99 C7 04 D6 84 8A 61 8E 47 97
8A80 E9 03 C0 04 61 8E 4E 97 E9 03 C0 04 61 8E 5C 97
8A90 E9 03 C0 04 6F 6A 66 8D 14 E9 02 A5 08 62 8E 1C
8AA0 96 A0 F1 FF B3 66 8D 14 E9 8D A0 0A A2 EF FF AC
8AB0 3F B8 AC 01 B8 AC 44 A5 A0 EF FF 8C FF 00 C1 D8
8AC0 1D 8A A0 EF FF B3 41 B4 BD 8C E8 03 B5 22 8D 19
8AD0 6C E9 70 C7 04 AA 6B 66 8E 72 97 E9 99 C7 04 61
8AE0 E9 1B B8 02 32 8E 82 97 E9 99 C7 04 AC 9F CD D8
8AF0 1D 8A A4 6B 66 12 C6 D8 00 8B AC EE 82 D6 1D 8A
8B00 AC 3F B8 8E A1 97 E9 F4 A3 02 02 CD A4 6B 66 BC
8B10 A8 6B 66 DE F2 FF B3 A0 F0 FF B4 BB D3 8B 18 B5
8B20 8C BB 6A BB B3 A0 EF FF D0 D4 AC CE B7 41 CF A0
8B30 EF FF 8C FF 00 C1 D7 02 89 0B D8 02 89 AC CE B7
8B40 0B CF 
----------------------------------------------------
     00 01 02 03 04 05 06 07 08 09 0A 0B 0C 0D 0E 0F
8B40       20 BF E4 FD FF 40 2B 61 65 E9 69 B8 04 61
8B50 E9 1B B8 02 61 8E F3 97 E9 03 C0 04 62 64 8E C1
8B60 97 62 67 8D 17 68 E9 56 A1 0E A2 FD FF A0 FD FF
8B70 8C FF 00 C1 D8 A9 8B 60 8D 12 8D 1C 62 62 E9 05
8B80 A4 0A 8A F0 00 A9 63 70 A0 FD FF D2 8C C9 97 BB
8B90 B0 DD 2B 8E 03 80 8E DE 00 61 E9 3A DE 06 60 8D
8BA0 12 8D 1C 62 62 E9 9B A4 0A A0 FD FF 8C FF 00 C0
8BB0 D7 B7 8B 0B D8 49 8B 0B CF 
----------------------------------------------------
     00 01 02 03 04 05 06 07 08 09 0A 0B 0C 0D 0E 0F
8BB0                            20 BF E4 FC FF A4 72
8BC0 6F 8C 50 C3 C6 D8 F5 8B A5 67 70 5E B5 8C B2 67
8BD0 BB 2B 0B B0 B3 0B 74 B0 B4 BB 51 BE B3 8D 64 E9
8BE0 E1 CF 02 B4 BB A6 72 6F BB 2A 8E 50 C3 3A E9 6C
8BF0 DD 04 A8 72 6F CF 

Function $8BB9 -> Increase fame from investment?

8BBE A4 72 6F .. / $6F72 (Fame)
8BC1 8C 50 C3    / 50000
8BC4 C6
8BC5 D8 F5 8B

	8BC8 A5 67 70 .. / $7067 (Current port)
	8BCB 5E
	8BCC B5
	8BCD 8C B2 67 .. / $67B2 (Economic worth)
	8BD0 BB
	8BD1 2B

	8BD2 0B
	8BD3 B0          / Economic worth
	8BD4 B3
	8BD5 0B
	8BD6 74
	8BD7 B0          / Industrial worth
	8BD8 B4
	8BD9 BB
	8BDA 51
	8BDB BE
	8BDC B3
	8BDD 8D 64
	8BDF E9 E1 CF 02 / Call $CFE1 -> RNG 00-99
	8BE3 B4
	8BE4 BB
	8BE5 A6 72 6F    / $6F72 (Fame)
	8BE8 BB
	8BE9 2A

	8BEA 8E 50 C3    / 50000
	8BED 3A
	8BEE E9 6C DD 04 / Call $DD6C (Get smaller of two values)
	8BF2 A8 72 6F    / $6F72

8BF5 CF
----------------------------------------------------
     00 01 02 03 04 05 06 07 08 09 0A 0B 0C 0D 0E 0F
8BF0                   20 BF E4 FC FF A5 67 70 5E B5
8C00 8C B2 67 BB 2B 0C D2 D2 8C BE 6F BB D3 2A 0B B0
8C10 B3 0B 74 B0 B4 BB 8B 41 B8 B3 63 E9 E1 CF 02 B4
8C20 BB 1A BB 75 2A 0C D2 D2 8C BE 6F BB B3 8D 64 3A
8C30 E9 6C DD 04 D4 CF 
----------------------------------------------------
     00 01 02 03 04 05 06 07 08 09 0A 0B 0C 0D 0E 0F
8C30                   20 BF E4 F2 FF A4 6B 66 D7 50
8C40 8C AC 89 B8 AC 3F B8 8E 06 98 E9 F4 A3 02 40 CF
8C50 A5 67 70 53 C6 D8 7C 8C 61 65 E9 69 B8 04 AC 3F
8C60 B8 A5 67 70 52 C0 D8 6F 8C 8A 4E 98 D6 72 8C 8A
8C70 55 98 B3 8E 1D 98 E9 99 C7 04 40 CF A5 67 70 5E
8C80 B5 8C B8 67 BB B0 8C 60 EA C0 D8 9F 8C 61 65 E9
8C90 69 B8 04 AC 3F B8 8E 5A 98 E9 F4 A3 02 40 CF 61
8CA0 65 E9 69 B8 04 AC 3F B8 8E 96 98 E9 F4 A3 02 A5
8CB0 67 70 5E B5 8C B8 67 BB B0 B3 8A 60 EA B4 BC 2B
8CC0 A4 6B 66 1B C6 D8 CC 8C A4 6B 66 2B AC 89 B8 61
8CD0 E9 1B B8 02 3B AA 6B 66 8E C8 98 E9 99 C7 06 3B
8CE0 61 8E F4 98 E9 F3 CC 06 2A 0A 8B FF C0 D8 02 8D
8CF0 61 65 E9 69 B8 04 AC 3F B8 8E F5 98 E9 F4 A3 02
8D00 40 CF 3A A5 67 70 5E B5 8C B8 67 BB B4 B3 B0 BB
8D10 B1 0A CD A4 6B 66 BC A8 6B 66 61 65 E9 69 B8 04
8D20 AC 3F B8 0A 8C E8 03 C6 D8 38 8D 0A D0 8B 14 B8
8D30 29 61 8E 01 99 D6 5C 8D 0A 8C 0F 27 C8 D8 50 8D
8D40 0A 8C E8 03 B8 90 96 00 29 61 8E 18 99 D6 5C 8D
8D50 0A 8C E8 03 B8 8F 32 29 61 8E 37 99 E9 03 C0 04
8D60 61 E9 9B CE 02 A5 67 70 5E B5 8C BA 67 BB D3 25
8D70 05 8B 31 C8 D8 7B 8D 05 D6 7F 8D 89 64 15 BC 57
8D80 B8 B3 09 D0 B4 B8 B3 62 E9 E1 CF 02 B4 BB 28 A5
8D90 67 70 8C 76 6F BB D3 53 DA 27 38 60 A5 67 70 B3
8DA0 E9 D8 D7 06 A5 67 70 8C 76 6F BB D3 53 DA 26 07
8DB0 16 C1 D8 DE 8D 06 D7 CF 8D 07 52 C0 D7 C5 8D 07
8DC0 53 C0 D8 CF 8D 07 D1 B3 E9 F6 8B 02 D6 DE 8D 07
8DD0 51 C1 D8 DE 8D 06 51 C0 D8 DE 8D AC B9 8B 41 CF

Function $8C36

8C3B A4 6B 66    / $666B (Total gold)
8C3E D7 50 8C

if no gold
	8C41 AC 89 B8    / Call $B889
	8C44 AC 3F B8    / Call $B83F
	8C47 8E 06 98    / $9806 "We don't have any gold"
	8C4A E9 F4 A3 02 / Call $A3F4
	8C4E 40
	8C4F CF          / return false

8C50 A5 67 70 .. / $7067 (Current port)
8C53 53
8C54 C6
8C55 D8 7C 8C

if capital city
	8C58 61
	8C59 65
	8C5A E9 69 B8 04 / Call $B869
	8C5E AC 3F B8    / Call $B83F
	8C61 A5 67 70    / $7067 (Current port)
	8C64 52
	8C65 C0
	8C66 D8 6F 8C
	if port is Istanbul
		8C69 8A 4E 98 / $984E "Sultan" 
		8C6C D6 72 8C
	else
		8C6F 8A 55 98 / $9855 "King"
	8C72 B3
	8C73 8E 1D 98 .. / $981D "You can't invest here\nwithout the %s's\nconsent\W"
	8C76 E9 99 C7 04 / Call $C799 -> Print
	8C7A 40
	8C7B CF
	
8C7C A5 67 70 .. / $7067 (Current port)
8C7F 5E
8C80 B5
8C81 8C B8 67    / $67B8 (Industrial Investment)
8C84 BB
8C85 B0
8C86 8C 60 EA    / 60000
8C89 C0
8C8A D8 9F 8C

if industrial investment is at max
	8C8D 61
	8C8E 65
	8C8F E9 69 B8 04 / Call $B869
	8C93 AC 3F B8    / Call $B83F
	8C96 8E 5A 98    / $985A "I appreciate the\ngesture, but we don't\nneed more investment"
	8C99 E9 F4 A3 02 / Call $A3F4 -> Print
	8C9D 40
	8C9E CF          / Return false

8C9F 61
8CA0 65
8CA1 E9 69 B8 04 / Call $B869
8CA5 AC 3F B8    / Call $B83F
8CA8 8E 96 98    / $9896 "Something must\ninterest you if\nyou'll invest here"
8CAB E9 F4 A3 02 / Call $A3F4 -> Print

8CAF A5 67 70    / $7067 (Current port)
8CB2 5E
8CB3 B5
8CB4 8C B8 67    / $67B8 (Industrial investment)
8CB7 BB
8CB8 B0
8CB9 B3
8CBA 8A 60 EA
8CBD B4
8CBE BC          
8CBF 2B          / Max investment = (60000) - current investment 

8CC0 A4 6B 66    / $666B (Total gold)
8CC3 1B
8CC4 C6 
8CC5 D8 CC 8C

if remaining investment is less than the amount of gold you have
	8CC8 A4 6B 66
	8CCB 2B      / Max investment = amount of gold

8CCC AC 89 B8    / Call $B889

8CCF 61
8CD0 E9 1B B8 02 / Call $B81B

8CD4 3B
8CD5 AA 6B 66
8CD8 8E C8 98    / $98C8 "We've got %d gold.\nHow much shall we\ninvest"
8CDB E9 99 C7 06 / Call $C799 -> Print

8CDF 3B
8CE0 61
8CE1 8E F4 98    / $98F4 ""
8CE4 E9 F3 CC 06 / Call $CCF3 -> Get player selection for gold amt
8CE8 2A

8CE9 0A
8CEA 8B FF
8CEC C0
8CED D8 02 8D

if
	8CF0 61
	8CF1 65
	8CF2 E9 69 B8 04 / Call $B869
	8CF6 AC 3F B8    / Call $B83F
	8CF9 8E F5 98    / $98F5 "Stingy rat!"
	8CFC E9 F4 A3 02 / Call $A3F4 -> Print
	8D00 40
	8D01 CF          / return false

8D02 3A
8D03 A5 67 70
8D06 5E
8D07 B5
8D08 8C B8 67 .. / $67B8 (Industrial investment)
8D0B BB
8D0C B4
8D0D B3
8D0E B0
8D0F BB
8D10 B1

8D11 0A
8D12 CD
8D13 A4 6B 66
8D16 BC
8D17 A8 6B 66

8D1A 61
8D1B 65
8D1C E9 69 B8 04 / Call $B869

8D20 AC 3F B8    / Call $B83F

8D23 0A
8D24 8C E8 03
8D27 C6
8D28 D8 38 8D

8D2B 0A
8D2C D0
8D2D 8B 14
8D2F B8
8D30 29

8D31 61
8D32 8E 01 99 .. / $9901 "Hmph! This is\nnothing!"
8D35 D6 5C 8D

8D38 0A
8D39 8C 0F 27
8D3C C8
8D3D D8 50 8D

	8D40 0A
	8D41 8C E8 03
	8D44 B8
	8D45 90 96 00
	8D48 29
	8D49 61
	8D4A 8E 18 99 .. / $9918 "Thank you, you're verygenerous"
	8D4D D6 5C 8D

	8D50 0A
	8D51 8C E8 03
	8D54 B8
	8D55 8F 32
	8D57 29
	8D58 61
	8D59 8E 37 99 .. / $9937 "Much obliged"

8D5C E9 03 C0 04 / Call $C003 -> Print

8D60 61
8D61 E9 9B CE 02 / Call $CE9B
8D65 A5 67 70    / $7067 (Current port)
8D68 5E
8D69 B5
8D6A 8C BA 67    / $67BA (Portugal support)
8D6D BB
8D6E D3
8D6F 25

8D70 05
8D71 8B 31
8D73 C8
8D74 D8 7B 8D

if
	8D77 05
	8D78 D6 7F 8D
else
	8D7B 89 64
	8D7D 15
	8D7E BC

8D7F 57
8D80 B8
8D81 B3
8D82 09
8D83 D0
8D84 B4
8D85 B8
8D86 B3
8D87 62
8D88 E9 E1 CF 02 / Call $CFE1 -> RNG 00-01
8D8C B4
8D8D BB
8D8E 28

8D8F A5 67 70    / $7067 (Current port)
8D92 8C 76 6F    / $6F76
8D95 BB
8D96 D3
8D97 53
8D98 DA
8D99 27

8D9A 38
8D9B 60
8D9C A5 67 70 .. / $7067 (Current port)
8D9F B3
8DA0 E9 D8 D7 06 / Call $D7D8 (Increase port's support for Portugal by 8)

8DA4 A5 67 70    / $7067 (Current port)
8DA7 8C 76 6F    / $6F76
8DAA BB
8DAB D3
8DAC 53
8DAD DA
8DAE 26          / Check if ? has improved

8DAF 07
8DB0 16
8DB1 C1
8DB2 D8 DE 8D

8DB5 06
8DB6 D7 CF 8D

8DB9 07
8DBA 52
8DBB C0
8DBC D7 C5 8D

8DBF 07
8DC0 53
8DC1 C0
8DC2 D8 CF 8D

8DC5 07
8DC6 D1
8DC7 B3
8DC8 E9 F6 8B 02 / Call $8BF6
8DCC D6 DE 8D

8DCF 07
8DD0 51
8DD1 C1
8DD2 D8 DE 8D

8DD5 06
8DD6 51
8DD7 C0
8DD8 D8 DE 8D

if (loc_07 != 1 && loc_06 == 1)
	8DDB AC B9 8B .. / Call $8BB9 (increase fame from investment)

8DDE 41
8DDF CF
----------------------------------------------------
     00 01 02 03 04 05 06 07 08 09 0A 0B 0C 0D 0E 0F
8DE0 20 BF E4 F0 FF A0 0B 00 57 B5 8C 96 6C BB D3 5F
8DF0 DA B3 E9 32 D5 02 8F 14 B3 E9 0C D3 02 55 BE 57
8E00 DA 27 A0 0B 00 57 B5 8C 96 6C BB D3 5F DA B3 E9
8E10 32 D5 02 8F 14 B3 E9 0C D3 02 53 DA 26 A0 0B 00
8E20 57 B5 8C 96 6C BB D3 5F DA B3 E9 32 D5 02 8F 14
8E30 B3 E9 0C D3 02 52 BE 53 DA 25 A0 0B 00 57 B5 8C
8E40 96 6C BB D3 5F DA B3 E9 32 D5 02 8F 14 B3 E9 0C
8E50 D3 02 54 BE 51 DA 24 A0 0B 00 57 B5 8C 90 6C BB
8E60 28 04 73 B3 4A 17 BC B3 05 5A B5 8F 64 B4 B5 5A
8E70 B6 B4 B5 54 B6 29 8D 64 39 E9 6C DD 04 29 08 72
8E80 D3 B3 09 B4 BC B3 08 D3 B3 06 5A B5 B3 07 5A B5
8E90 B4 BB 8F 14 B4 BC B3 08 D0 D3 B3 44 14 BC B3 4A
8EA0 15 BC B3 89 14 17 BC 8B 64 B5 8B 14 B6 B4 B5 5A
8EB0 B6 B4 B5 54 B6 B4 BC B4 BB B4 BB 2A 0A D7 CC 8E
8EC0 AC 3F B8 8E 44 99 E9 F4 A3 02 40 CF A5 67 70 5E
8ED0 B5 8C BD 67 BB D3 7F 1A B5 5A B8 2B AC 01 B8 AC
8EE0 3F B8 3B 8E 69 99 E9 99 C7 04 AC 9F CD D8 07 8F
8EF0 A4 6B 66 1B C6 D8 12 8F AC 89 B8 61 E9 1B B8 02
8F00 8E 97 99 E9 F4 A3 02 61 65 E9 69 B8 04 AC 01 B8
8F10 40 CF 0B CD A4 6B 66 BC A8 6B 66 38 06 5A B5 B3
8F20 07 5A B5 B4 BB 8F 14 D4 08 D0 B3 44 14 BC B3 4A
8F30 15 BC B3 89 14 17 BC 8B 64 B5 8B 14 B6 B4 B5 5A
8F40 B6 B4 B5 54 B6 D4 08 72 B3 04 73 B3 4A 17 BC B3
8F50 05 5A B5 8F 64 B4 B5 5A B6 B4 B5 54 B6 D4 08 72
8F60 D3 29 09 8B 64 C4 D8 6F 8F 08 72 B3 89 64 D4 41
8F70 CF 
----------------------------------------------------
     00 01 02 03 04 05 06 07 08 09 0A 0B 0C 0D 0E 0F
8F70    20 BF E4 F6 FF 40 27 60 8D 12 8D 1C 62 62 E9
8F80 05 A4 0A DE FA FF B3 E9 6F 80 02 A2 F8 FF 8A F0
8F90 00 A9 63 70 AC 01 B8 61 65 E9 69 B8 04 AC 3F B8
8FA0 61 8E B2 99 E9 03 C0 04 A0 F8 FF B3 E9 98 B8 02
8FB0 A2 F9 FF A0 F9 FF 8C FF 00 C1 D8 D0 8F DE FA FF
8FC0 B3 A0 F9 FF B4 BB D3 B3 E9 E0 8D 02 CD 07 DB 27
8FD0 A0 F9 FF 8C FF 00 C1 D7 94 8F AC 01 B8 AC CE B7
8FE0 8E 03 80 8E DE 00 61 E9 3A DE 06 60 8D 12 8D 1C
8FF0 62 62 E9 9B A4 0A 07 CF 

Function $8F71 (F6 FF)

8F76 40
8F77 27

8F78 60
8F79 8D 12
8F7B 8D 1C
8F7D 62
8F7E 62
8F7F E9 05 A4 0A / Call $A405

     00 01 02 03 04 05 06 07 08 09 0A 0B 0C 0D 0E 0F
8F70    20 BF E4 F6 FF 40 27 60 8D 12 8D 1C 62 62 E9
8F80 05 A4 0A DE FA FF B3 E9 6F 80 02 A2 F8 FF 8A F0
8F90 00 A9 63 70 AC 01 B8 61 65 E9 69 B8 04 AC 3F B8
8FA0 61 8E B2 99 E9 03 C0 04 A0 F8 FF B3 E9 98 B8 02
8FB0 A2 F9 FF A0 F9 FF 8C FF 00 C1 D8 D0 8F DE FA FF
8FC0 B3 A0 F9 FF B4 BB D3 B3 E9 E0 8D 02 CD 07 DB 27
8FD0 A0 F9 FF 8C FF 00 C1 D7 94 8F AC 01 B8 AC CE B7
8FE0 8E 03 80 8E DE 00 61 E9 3A DE 06 60 8D 12 8D 1C
8FF0 62 62 E9 9B A4 0A 07 CF 
----------------------------------------------------
     00 01 02 03 04 05 06 07 08 09 0A 0B 0C 0D 0E 0F
8FF0                         20 BF E4 EC FF DE F9 FF
9000 B3 60 E9 26 D0 04 22 02 51 C0 D8 1C 90 AC 89 B8
9010 AC 3F B8 8E C4 99 E9 F4 A3 02 40 CF 40 23 8A F0
9020 00 A9 63 70 60 8D 12 8D 1C 62 62 E9 05 A4 0A DE
9030 F9 FF B3 E9 6F 80 02 22 61 65 E9 69 B8 04 AC 3F
9040 B8 61 8E D9 99 E9 03 C0 04 32 E9 98 B8 02 A2 FE
9050 FF A0 FE FF 8C FF 00 C0 D8 82 90 62 E9 1B B8 02
9060 8E EC 99 E9 F4 A3 02 AC CE B7 8E 03 80 8E DE 00
9070 61 E9 3A DE 06 60 8D 12 8D 1C 62 62 E9 9B A4 0A
9080 40 CF DE F9 FF B3 A0 FE FF B4 BB D3 A2 FF FF AC
9090 01 B8 A0 FF FF 8B 18 B5 8C A4 6A BB D3 D7 C0 90
90A0 AC 89 B8 61 E9 1B B8 02 8E 02 9A D6 B9 90 AC 89
90B0 B8 61 E9 1B B8 02 8E 1F 9A E9 F4 A3 02 D6 39 92
90C0 A0 FF FF 57 B5 8C 94 6C BB B0 D7 AE 90 A0 FF FF
90D0 8B 18 B5 8C AA 6A BB 27 07 B0 B3 07 78 B0 B3 07
90E0 76 B0 B3 07 74 B0 B3 07 72 B0 B4 BB B4 BB B4 BB
90F0 B4 BB D8 09 91 AC 89 B8 AC 3F B8 61 8E 45 9A E9
9100 03 C0 04 AC 9F CD D8 39 92 A0 FF FF B3 E9 93 81
9110 02 A0 FF FF 57 B5 8C 96 6C BB D3 5F DA B3 E9 32
9120 D5 02 8F 14 B3 E9 0C D3 02 55 BE 57 DA A2 F8 FF
9130 A0 FF FF 57 B5 8C 96 6C BB D3 5F DA B3 E9 32 D5
9140 02 8F 14 B3 E9 0C D3 02 53 DA 72 B3 A0 F8 FF 57
9150 B5 51 BE D0 B4 B5 51 BE 53 B5 25 A0 FF FF 57 B5
9160 8C 96 6C BB D3 5F DA B3 E9 32 D5 02 8F 14 B3 E9
9170 0C D3 02 52 BE 53 DA D0 B3 A0 F8 FF 51 BE 56 B5
9180 D0 B4 B5 24 05 14 BB B3 A5 67 70 5E B5 8C BD 67
9190 BB D3 8F 32 B4 B5 26 61 65 E9 69 B8 04 AC 3F B8
91A0 61 8E 77 9A E9 03 C0 04 AC 03 A0 AC 3F B8 36 8E
91B0 9A 9A E9 99 C7 04 AC 9F CD D8 C0 91 41 D6 E6 91
91C0 A5 74 6F D0 B3 E9 E1 CF 02 D7 E7 91 06 5A B6 CD
91D0 06 BB 26 AC 01 B8 61 E9 1B B8 02 36 8E B7 9A E9
91E0 99 C7 04 AC 9F CD 23 03 D8 2D 92 06 B7 25 B7 14
91F0 A4 6B 66 B7 26 B7 15 B7 03 B7 19 60 EA 00 00 B7
9200 0A D8 0A 92 8A 60 EA D6 10 92 06 CD A4 6B 66 BB
9210 A8 6B 66 8E BF 00 A0 FF FF 57 B5 8C 96 6C BB B4
9220 B3 D3 DA D4 AC 3F B8 8E DD 9A D6 B9 90 AC 3F B8
9230 8E FC 9A E9 F4 A3 02 41 23 03 D8 38 90 AC CE B7
9240 8E 03 80 8E DE 00 61 E9 3A DE 06 60 8D 12 8D 1C
9250 62 62 E9 9B A4 0A 03 CF
----------------------------------------------------
9258 -> [0F 12 16 38 ] [0F 1A 16 38]

9260 "Durability:        %3d/%3d"
927B "Handling:          %3d/%3d"
9296 "Power:             %3d/%3d"
92B1 "Cargo load:        %3d/%3d"
92CC "Total load:       %4d/%d"
92E5 "Crewmen:           "
93F9 "%3d/"
93FE "%3d"
9302 "Ship: %s"
930B "Navigator:"
9316 "Arms ("
931D "):"
9320 "%3d/%3d"

$9328 - String pointer table
00 933C "Buy"
01 9340 "Sell"
02 9345 "Fix"
03 9349 "Remodel"
04 9351 "Invest"

$9332 - Jump table
00 8296 -> Buy
01 8FF8 -> Sell
02 8F71 -> Fix
03 8B42 -> Remodel
04 8C36 -> Invest

9358 "What brings you here?"
936E "We don't have enough\ngold"
9388 "Changed yer mind, eh?"

939E - [0F 16 30 30] [0F 12 22 31]
       [0F 1A 37 12] [0F 18 28 38]
	   
93AE "Renaming a ship will\ncost 10 gold pieces"
93D7 "Rename which ship?"
93EA "Is this the\nvessel"
93FD "Then choose another\nship"
9416 "Give 'er a new name,\nmatey"
9431 "Is this name OK"

$9441 String pointer table
00 9447 "Saker"
01 944D "Culverin"
02 9456 "Cannon"

945D "Load guns onto which\nship?"
9478 "Is this the\nship"
9489 "What kind of guns?"
949C "\n"
949E "s cost %d\n\ngold pieces each"
94BA "Total gold: %5d"
94CA "Buy how many\n"
94D8 "All right, I'll load\n%d more gun%s"
94FB ""
94FC "s"
94FE "\n"
9500 "s are loaded.\n\nI'll buy your old\n\nguns at half price\W"
9537 "\nYou're now armed with\n\n"
9550 "s"
9552 "We can't load any\nmore guns"
956E "Then choose another\nship"
9587 "Rig sails on which\nship?"
95A0 "Is this the\nvessel"
95B3 "Then choose another\nship"
95CC "Total gold: %5d"
95DC "%s-point sails cost\n%d gold. OK"
95FC "3"
95FE "4"
9600 "All right, sails are\nrigged"

$961C String ptr table
00 9628 Swan
01 962D Eagle
02 9633 Unicorn
03 963B Lion
04 9640 Dragon
05 9647 Neptune

964F "A good sailor always\nneeds a figurehead.\nWhich ship is it for?"
968E "Choose another ship"
96A2 "Is this the\nvessel"
96B5 "Then choose another"
96C9 "A rare beauty came in\ntoday. Will ye buy it\nfor %d gold"
9701 "Too bad. Ye don't\nknow true value when\nye see it!"
9733 "Now ye have a"
9741 "n"
9743 "\n%s"
9747 "\nVenus"
974E " figurehead.\n"
975C "Which one do ye want?"
9772 "Total gold: %5d"
9782 "That one costs %d\ngold. Buy it"
97A1 "OK, the figurehead\nis installed"

   97C1 97C9
00 97D1 841E "Guns"
01 97D6 86AF "Sails"
02 97DC 88FB "Figurehead"
03 97E7 8311 "Rename ship"

97F3 "What do you need?"
9805 ""
9806 "We don't have any gold"
981D "You can't invest here\nwithout the %s's\nconsent\W"
984E "Sultan"
9855 "King"
985A "I appreciate the\ngesture, but we don't\nneed more investment"
9896 "Something must\ninterest you if\nyou'll invest here"
98C8 "We've got %d gold.\nHow much shall we\ninvest"
98F4 ""
98F5 "Stingy rat!"
9901 "Hmph! This is\nnothing!"
9918 "Thank you, you're verygenerous"
9937 "Much obliged"
9944 "There's nothing to fixon this vessel"
9969 "It'll cost ye %d\ngold to put her in\nshape. OK"
9997 "We don't have enough\ngold!"
99B2 "Fix which vessel?"
99C4 "We've only one ship!"
99D9 "Sell which vessel?"
99EC "Changed yer mind, eh?"
9A02 "That's the captain's\nvessel!"
9A1F "The crew is still\nbunked on that ship"
9A45 "That ship still has\ngoods in the hold.\nOK to sell"
9A77 "That ship has seen\nsome rough seas"
9A9A "Will ye take %d\ngold for her"
9AB7 "Ye drive a hard\nbargain. How about\n%d"
9ADD "It's a deal. Here's\nyour money"
9AFC "Then do ye have any\nother ships to sell?"
9B25 ""