PAGE CE
ROM: 01C010 - 01E00F
----------------------------------------------------
     00 01 02 03 04 05 06 07 08 09 0A 0B 0C 0D 0E 0F
8000 4C 03 E0 

Function $8000

8000 JMP $E003
----------------------------------------------------
     00 01 02 03 04 05 06 07 08 09 0A 0B 0C 0D 0E 0F
8000          20 BF E4 F2 FF 0E 51 C0 D8 2A 80 4A CD
8010 0F BA 2F 8E E0 00 0F D2 D2 8C FA 95 BB B0 B3 0F
8020 D2 D2 8C F8 95 BB B0 D6 CF 80 0E 51 C8 D8 D9 80
8030 0E 52 C7 D8 D9 80 8E FF 00 3E DE F6 FF B3 E9 3A
8040 F3 06 0E D6 58 80 DE F6 FF B3 05 B4 BB B3 0F 5A
8050 BA D4 4A CD 0F B8 2F 05 D1 25 0F D8 65 80 05 8B
8060 FF C4 D7 46 80 DE FE FF 29 DE FC FF 28 60 3E 39
8070 E9 3A F3 06 60 3E 38 E9 3A F3 06 40 D6 BE 80 DE
8080 F6 FF B3 05 B4 BB D3 26 06 8C FF 00 C0 D7 B6 80
8090 61 39 06 D2 D2 8C F8 95 BB B0 B3 8E E0 00 62 E9
80A0 EC DC 0A 61 38 06 D2 D2 8C FA 95 BB B0 B3 8E E0
80B0 00 62 E9 EC DC 0A 09 D0 29 08 D0 28 05 D0 25 05
80C0 1E C6 D7 7F 80 8E E0 00 DE FC FF B3 DE FE FF B3
80D0 61 3E 3D 3C 69 E9 D4 EE 10 CF 

Function $8003 (F2 FF)
Args:
<0C>
<0D>
<0E>

8008 0E
8009 51
800A C0
800B D8 2A 80

800E 4A
800F CD
8010 0F
8011 BA
8012 2F
8013 8E E0 00
8016 0F
8017 D2
8018 D2
8019 8C FA 95
801C BB
801D B0
801E B3
801F 0F
8020 D2
8021 D2
8022 8C F8 95
8025 BB
8026 B0
8027 D6 CF 80

802A 0E
802B 51
802C C8
802D D8 D9 80

8030 0E
8031 52
8032 C7
8033 D8 D9 80

8036 8E FF 00
8039 3E
803A DE F6 FF
803D B3
803E E9 3A F3 06 / Call $F33A
8042 0E
8043 D6 58 80

8046 DE F6 FF
8049 B3
804A 05
804B B4
804C BB
804D B3
804E 0F
804F 5A
8050 BA
8051 D4
8052 4A
8053 CD
8054 0F
8055 B8
8056 2F
8057 05

8058 D1
8059 25
805A 0F
805B D8 65 80

805E 05
805F 8B FF
8061 C4
8062 D7 46 80

8065 DE FE FF
8068 29
8069 DE FC FF
806C 28
806D 60
806E 3E
806F 39
8070 E9 3A F3 06 / Call $F33A
8074 60
8075 3E
8076 38
8077 E9 3A F3 06 / Call $F33A
807B 40
807C D6 BE 80

807F DE F6 FF
8082 B3
8083 05
8084 B4
8085 BB
8086 D3
8087 26
8088 06
8089 8C FF 00
808C C0
808D D7 B6 80

8090 61
8091 39
8092 06
8093 D2
8094 D2
8095 8C F8 95
8098 BB
8099 B0
809A B3
809B 8E E0 00
809E 62
809F E9 EC DC 0A / Call $DCEC
80A3 61
80A4 38
80A5 06
80A6 D2
80A7 D2
80A8 8C FA 95
80AB BB
80AC B0
80AD B3
80AE 8E E0 00
80B1 62
80B2 E9 EC DC 0A / Call $DCEC

80B6 09
80B7 D0
80B8 29
80B9 08
80BA D0
80BB 28
80BC 05
80BD D0

80BE 25
80BF 05
80C0 1E
80C1 C6
80C2 D7 7F 80

80C5 8E E0 00
80C8 DE FC FF
80CB B3
80CC DE FE FF

80CF B3
80D0 61
80D1 3E
80D2 3D
80D3 3C
80D4 69
80D5 E9 D4 EE 10 / Call $EED4 -> Sysop 0x09 : Print graphic

80D9 CF
----------------------------------------------------
     00 01 02 03 04 05 06 07 08 09 0A 0B 0C 0D 0E 0F
80D0                               20 BF E4 00 00 0C
80E0 8B 10 C9 D8 E8 80 40 CF 0C D1 55 BA 52 C7 D8 F5
80F0 80 42 D6 F6 80 41 CF 

Function $80DA (00 00)
Args:
<0C>

80DF 0C
80E0 8B 10
80E2 C9
80E3 D8 E8 80

if (...)
{
	80E6 40
	80E7 CF
}

80E8 0C
80E9 D1
80EA 55
80EB BA
80EC 52
80ED C7
80EE D8 F5 80

if (...)
{
	80F1 42
	80F2 D6 F6 80
}
else
{
	80F5 41
}
80F6 CF
----------------------------------------------------
     00 01 02 03 04 05 06 07 08 09 0A 0B 0C 0D 0E 0F
80F0                      20 BF E4 F2 FF 0C D8 04 81
8100 0D D6 05 81 0C 25 8E 9E 74 35 E9 26 D0 04 A8 A8
8110 74 8A 9E 74 2B A6 A8 74 BB 2A D6 A6 81 0B D3 8B
8120 18 B5 8C A4 6A BB D3 26 06 D8 A3 81 06 D1 D2 8C
8130 6E 6A BB D3 B3 06 5A B5 8C C2 6B BB D3 B3 8A 82
8140 00 B4 BC B3 E9 E1 CF 02 B4 C8 D8 A3 81 8E BF 00
8150 0B D3 57 B5 8C 96 6C BB B4 B3 D3 DA D4 8A 9A 6A
8160 29 28 7A 27 D6 78 81 09 D3 16 C1 D8 75 81 38 09
8170 D3 D4 08 D0 28 09 D0 29 09 17 C6 D8 87 81 09 D3
8180 8C FF 00 C1 D7 67 81 38 8A FF 00 D4 06 D1 D2 8C
8190 6F 6A BB B3 8D 19 E9 E1 CF 02 74 D4 0E D0 2E D1
81A0 B3 06 D4 0B D0 2B 0B 1A C6 D7 1D 81 CF 

Function $80F7 (F2 FF)
Args:
<0C>
<0D> [$729D]
<0E> Ptr to byte array

80FC 0C
80FD D8 04 81

if
	8100 0D
	8101 D6 05 81
else
	8104 0C
	
8105 25

8106 8E 9E 74    / $749E
8109 35
810A E9 26 D0 04 / Call $D026 -> Make list of ships belong to player @ $749E
810E A8 A8 74 .. / $74A8 (# of ships belonging to player)

8111 8A 9E 74 .. / $749E (ship array)
8114 2B          / loc_2B = startPtr 
8115 A6 A8 74 .. / $74A8 (# of ships belonging to player)
8118 BB
8119 2A          / loc_2A = endPtr

811A D6 A6 81

Loop through player's ships:

	811D 0B
	811E D3
	811F 8B 18
	8121 B5
	8122 8C A4 6A .. / $6AA4 (current ship)
	8125 BB
	8126 D3
	8127 26       .. / current navigator
	8128 06
	8129 D8 A3 81
	
	if navigator is not main character:
		812C 06
		812D D1
		812E D2
		812F 8C 6E 6A .. / $6A6E (loyalty)
		8132 BB
		8133 D3
		8134 B3
		8135 06
		8136 5A
		8137 B5
		8138 8C C2 6B .. / $6BC2 (courage)
		813B BB
		813C D3
		813D B3
		813E 8A 82 00 .. / 130
		8141 B4
		8142 BC          / (130 - courage)
		8143 B3
		8144 E9 E1 CF 02 / Call $CFE1 -> rng(130-courage)
		8148 B4
		8149 C8
		814A D8 A3 81
		
		if (?)
			814D 8E BF 00
			8150 0B .. .. .. / ship # ptr
			8151 D3
			8152 57
			8153 B5
			8154 8C 96 6C .. / $6C96 (ship flags)
			8157 BB
			8158 B4
			8159 B3
			815A D3
			815B DA
			815C D4       .. / Clear 0x40 flag
			
			815D 8A 9A 6A .. / $6A9A (mate array)
			8160 29
			8161 28
			8162 7A
			8163 27
			8164 D6 78 81
			
			Loop through mate array:
				8167 09 .. .. .. / cur mate in array
				8168 D3
				8169 16 .. .. .. / retreating navigator
				816A C1
				816B D8 75 81
				
					816E 38
					816F 09
					8170 D3
					8171 D4
					8172 08
					8173 D0
					8174 28
				
				8175 09
				8176 D0
				8177 29
			
				8178 09
				8179 17
				817A C6
				817B D8 87 81
				
				817E 09
				817F D3
				8180 8C FF 00
				8183 C1
				8184 D7 67 81
			
			8187 38
			8188 8A FF 00
			818B D4
			818C 06
			818D D1
			818E D2
			818F 8C 6F 6A .. / $6A6F (port #)
			8192 BB
			8193 B3
			8194 8D 19
			8196 E9 E1 CF 02 / Call $CFE1 
			819A 74          / RNG 04-28
			819B D4
			819C 0E
			819D D0
			819E 2E
			819F D1
			81A0 B3
			81A1 06
			81A2 D4
	
	81A3 0B
	81A4 D0
	81A5 2B

81A6 0B
81A7 1A
81A8 C6
81A9 D7 1D 81

81AC CF
----------------------------------------------------
     00 01 02 03 04 05 06 07 08 09 0A 0B 0C 0D 0E 0F
81A0                                        20 BF E4
81B0 FA FF 8A 17 74 2A 90 87 00 29 D6 D3 81 3A 62 E9
81C0 E1 CF 02 D4 8D 1E E9 E1 CF 02 D7 D0 81 3A 43 D4
81D0 0A D0 2A 0A 19 C6 D7 BD 81 CF 

Function $81AD (FA FF)

81B2 8A 17 74    / $7417
81B5 2A

81B6 90 87 00
81B9 29

81BA D6 D3 81

Loop:
	81BD 3A
	81BE 62
	81BF E9 E1 CF 02 / Call $CFE1 -> RNG [00-01]
	81C3 D4
	81C4 8D 1E
	81C6 E9 E1 CF 02 / Call $CFE1 -> RNG [00-29]
	81CA D7 D0 81
	
	if (...)
	{
		81CD 3A
		81CE 43
		81CF D4
	}
	
	81D0 0A
	81D1 D0
	81D2 2A
Bounds check
	81D3 0A
	81D4 19
	81D5 C6
	81D6 D7 BD 81
	
81D9 CF
----------------------------------------------------
     00 01 02 03 04 05 06 07 08 09 0A 0B 0C 0D 0E 0F
81D0                               20 BF E4 F6 FF 40
81E0 28 40 29 08 51 C0 D8 EF 81 09 51 C0 D7 38 82 6A
81F0 E9 E1 CF 02 D7 38 82 68 E9 E1 CF 02 27 40 2A 40
8200 2B 09 55 B5 B3 08 53 B5 1A BB 5F B5 B4 BB 1B BB
8210 8C 17 74 BB B3 0A 55 B5 B3 07 5F B5 B4 BB 1B BB
8220 8C 20 96 BB D3 D4 0B D0 2B 0B 55 C6 D7 01 82 0A
8230 D0 2A 0A 53 C6 D7 FF 81 09 D0 29 09 53 C6 D7 E3
8240 81 08 D0 28 08 53 C6 D7 E1 81 CF 

Function $81DA

81DF 40
81E0 28

81E1 40
81E2 29

81E3 08
81E4 51
81E5 C0
81E6 D8 EF 81

81E9 09
81EA 51
81EB C0
81EC D7 38 82

81EF 6A
81F0 E9 E1 CF 02 / Call $CFE1 -> RNG 00-09
81F4 D7 38 82

81F7 68
81F8 E9 E1 CF 02 / Call $CFE1 -> RNG 00-07
81FC 27
81FD 40
81FE 2A
81FF 40
8200 2B
8201 09
8202 55
8203 B5
8204 B3
8205 08
8206 53
8207 B5
8208 1A
8209 BB
820A 5F
820B B5
820C B4
820D BB
820E 1B
820F BB
8210 8C 17 74
8213 BB
8214 B3
8215 0A
8216 55

8238

     00 01 02 03 04 05 06 07 08 09 0A 0B 0C 0D 0E 0F
8210 8C 17 74 BB B3 0A 55 B5 B3 07 5F B5 B4 BB 1B BB
8220 8C 20 96 BB D3 D4 0B D0 2B 0B 55 C6 D7 01 82 0A
8230 D0 2A 0A 53 C6 D7 FF 81 09 D0 29 09 53 C6 D7 E3
8240 81 08 D0 28 08 53 C6 D7 E1 81 CF 
----------------------------------------------------
     00 01 02 03 04 05 06 07 08 09 0A 0B 0C 0D 0E 0F
8240                                  20 BF E4 FA FF
8250 8A 90 73 29 8A 17 74 2B 90 87 00 2A D6 7B 82 0B
8260 D3 D5 FE FF 04 00 75 82 70 82 70 82 70 82 70 82
8270 39 8A FF 00 D4 09 D0 29 0B D0 2B 0B 1A C6 D7 5F
8280 82 CF 

Function $824B (FA FF)

8250 8A 90 73 .. / $7390 (Temp string?)
8253 29

8254 8A 17 74 .. / $7417
8257 2B

8258 90 87 00
825B 2A

825C D6 7B 82

Loop:
	825F 0B
	8260 D3
	8261 D5 FE FF
		 04 00
		 75 82
		 70 82
		 70 82
		 70 82
		 70 82

	8270 39
	8271 8A FF 00
	8274 D4

	8275 09
	8276 D0
	8277 29

	8278 0B
	8279 D0
	827A 2B

827B 0B
827C 1A
827D C6
827E D7 5F 82

8281 CF
----------------------------------------------------
     00 01 02 03 04 05 06 07 08 09 0A 0B 0C 0D 0E 0F
8280       20 BF E4 F8 FF A5 8A 6B 52 C8 D8 9F 82 A5
8290 8A 6B 59 C6 D8 9F 82 A5 83 70 54 BE D6 A2 82 A5
82A0 83 70 5F DA D0 A8 DC 74 A5 8A 6B 52 C8 D8 C0 82
82B0 A5 8A 6B 59 C6 D8 C0 82 A5 82 70 54 BE D6 C3 82
82C0 A5 82 70 5F DA 55 B5 57 B8 28 08 D6 F4 82 09 56
82D0 B9 8C D6 74 BB B3 09 18 BC 53 C3 D8 E5 82 09 18
82E0 BC D0 D6 F1 82 08 74 19 C0 D8 F0 82 43 D6 F1 82
82F0 42 D4 09 D0 29 08 76 B3 09 B4 C2 D7 CE 82 0C 54
8300 BD 8C 6A 66 BB D3 55 B5 57 B8 56 BA 28 8A 9E 74
8310 2B A6 A8 74 BB 2A D6 36 83 0B D3 55 BA B3 0B D3
8320 55 C6 D8 29 83 40 D6 2A 83 45 B4 BB 8C B6 74 BB
8330 B3 08 D4 0B D0 2B 0B 1A C6 D7 19 83 CF 

Function $8282

8287 A5 8A 6B .. / $6B8A -> Month
828A 52
828B C8
828C D8 9F 82

828F A5 8A 6B .. / $6B8A -> Month
8292 59
8293 C6
8394 D8 9F 82

if
	8397 A5 83 70 .. / $7083
	839A 54
	839B BE
	849C D6 A2 82
else
	829F A5 83 70 .. / $7083

82A2 5F
82A3 DA
82A4 D0
82A5 A8 DC 74 .. / $74DC

82A8 A5 8A 6B .. / $6B8A -> Month
82AB 52
82AC C8
82AD D8 C0 82

82B0 A5 8A 6B .. / $6B8A -> Month
82B3 59
83B4 C6
83B5 D8 C0 82

if 
	83B8 A5 82 70 .. / $7082
	83BB 54
	83BC BE
	83BD D6 C3 82
else
	82C0 A5 82 70
	
82C3 5F
82C4 DA
82C5 55
82C6 B5
82C7 57
82C8 B8
82C9 28

82CA 08
82CB D6 F4 82

82CE 09
82CF 56
82D0 B9
82D1 8C D6 74 .. / $74D6
82D4 BB
82D5 B3
82D6 09
82D7 18
82D8 BC
82D9 53
82DA C3
82DB D8 E5 82

82DE 09
82DF 18
82E0 BC
82E1 D0
82E2 D6 F1 82

82E5 08
82E6 74
82E7 19
82E8 C0
82E9 D8 F0 82

if
	82EC 43
	82ED D6 F1 82
else
	82F0 42

82F1 D4
82F2 09
82F3 D0

82F4 29
82F5 08
82F6 76
82F7 B3
82F8 09
82F9 B4
82FA C2
82FB D7 CE 82

82FE 0C
82FF 54
8300 BD
8301 8C 6A 66 .. / $666A (Player fleet direction)
8304 BB
8305 D3
8306 55
8307 B5
8308 57
8309 B8
830A 56
830B BA
830C 28

830D 8A 9E 74 .. / $749E
8310 2B

8311 A6 A8 74 .. / $74A8
8314 BB
8315 2A

8316 D6 36 83

8319 0B
831A D3
831B 55
831C BA
831D B3
831E 0B
831F D3
8320 55
8321 C6
8322 D8 29 83

if
	8325 40
	8326 D6 2A 83
else
	8329 45

832A B4
832B BB
832C 8C B6 74 .. / $74B6
832F BB
8330 B3
8331 08
8332 D4
8333 0B
8334 D0
8335 2B

8336 0B
8337 1A
8338 C6
8339 D7 19 83

833C CF
----------------------------------------------------
     00 01 02 03 04 05 06 07 08 09 0A 0B 0C 0D 0E 0F
8330                                        20 BF E4
8340 F4 FF 8A 9E 74 2B A6 A8 74 BB 2A D6 AE 83 65 E9
8350 E1 CF 02 1C BB 27 63 E9 E1 CF 02 1D BB 26 06 5F
8360 B5 17 BB 8C 90 73 BB 29 09 D3 51 C0 D7 AE 83 09
8370 D3 8C FF 00 C0 D8 88 83 06 5F B5 17 BB 8C 17 74
8380 BB B3 62 E9 E1 CF 02 D4 39 41 D4 0B D3 55 BA B3
8390 0B D3 55 C6 D8 9B 83 40 D6 9C 83 45 B4 BB 28 08
83A0 8C AC 74 BB B3 06 5F B5 17 BB D4 0B D0 2B 0B 1A
83B0 C6 D7 4E 83 CF 

Function $833D

8342 8A 9E 74 .. / $749E
8345 2B
8346 A6 A8 74 .. / $74A8
8349 BB
834A 2A
834B D6 AE 83

834E 65
834F E9 E1 CF 02 / Call $CFE1 -> RNG 00-04
8353 1C
8354 BB
8355 27
8356 63
8357 E9 E1 CF 02 / Call $CFE1 -> RNG 00-02
835B 1D
835C BB
835D 26
835E 06
835F 5F
8360 B5
8361 17
8362 BB
8363 8C 90 73 .. / $7390
8366 BB
8367 29
8368 09
8369 D3
836A 51
836B C0
836C D7 AE 83

836F 09
8370 D3
8371 8C FF 00
8374 C0
8375 D8 88 83

	8378 06
	8379 5F
	837A B5
	837B 17
	837C BB
	837D 8C 17 74 .. / $7417
	8380 BB
	8381 B3
	8382 62
	8383 E9 E1 CF 02 / Call $CFE1 -> RNG 00-01
	8387 D4

8388 39
8389 41
838A D4
838B 0B
838C D3
838D 55
838E BA
838F B3
8390 0B
8391 D3
8392 55
8393 C6
8394 D8 9B 83

8397 40
8398 D6 9C 83

839B 45

839C B4
839D BB
839E 28
839F 08
83A0 8C AC 74 .. / $74AC
83A3 BB
83A4 B3
83A5 06
83A6 5F
83A7 B5
83A8 17
83A9 BB
83AA D4
83AB 0B
83AC D0
83AD 2B

83AE 0B
83AF 1A
83B0 C6
83B1 D7 4E 83

83B4 CF
----------------------------------------------------
     00 01 02 03 04 05 06 07 08 09 0A 0B 0C 0D 0E 0F
83B0                20 BF E4 F8 FF 60 8E 87 00 8E 90
83C0 73 E9 3A F3 06 3D E9 AD 81 02 AC DA 81 AC 4B 82
83D0 0C 54 BD 8C 62 66 BB 2B 0D 54 BD 8C 62 66 BB 2A
83E0 0A 72 D3 B3 0B 72 D3 D0 B4 BC 29 0A 73 D3 B3 0B
83F0 73 D3 D0 B4 BC 28 8E 9E 74 3C E9 26 D0 04 A8 A8
8400 74 3C E9 82 82 02 08 53 B5 B3 09 55 B5 B3 E9 3D
8410 83 04 8E 9E 74 3D E9 26 D0 04 A8 A8 74 3D E9 82
8420 82 02 63 65 E9 3D 83 04 CF 

Function $83B5
Args:
<0C>
<0D>

83BA 60
83BB 8E 87 00
83BE 8E 90 73
83C1 E9 3A F3 06 / Call $F33A (Fill array with 0x00)

83C5 3D
83C6 E9 AD 81 02 / Call $81AD

83CA AC DA 81 .. / Call $81DA
83CD AC 4B 82 .. / Call $824B

83D0 0C
83D1 54
83D2 BD
83D3 8C 62 66 .. / $6662 -> Ptr to fleet array
83D6 BB
83D7 2B

83D8 0D
83D9 54
83DA BD
83DB 8C 62 66 .. / $6662 -> Ptr to fleet array
83DE BB
83DF 2A

83E0 0A
83E1 72
83E2 D3
83E3 B3
83E4 0B
83E5 72
83E6 D3
83E7 D0
83E8 B4
83E9 BC
83EA 29

83EB 0A
83EC 73
83ED D3
83EE B3
83EF 0B
83F0 73
83F1 D3
83F2 D0
83F3 B4
83F4 BC
83F5 28

83F6 8E 9E 74 .. / $749E
83F9 3C
83FA E9 26 D0 04 / Call $D026 -> Assemble list?
83FE A8 A8 74 .. / $74A8

8401 3C
8402 E9 82 82 02 / Call $8282

8406 08
8407 53
8408 B5
8409 B3
840A 09
840B 55
840C B5
840D B3
840E E9 3D 83 04 / Call $833D

8412 8E 9E 74 .. / $749E
8415 3D
8416 E9 26 D0 04 / Call $D026 -> Assemble list?
841A A8 A8 74 .. / $74A8

841D 3D
841E E9 82 82 02 / Call $8282

8422 63
8423 65
8424 E9 3D 83 04 / Call $833D

8428 CF

----------------------------------------------------
     00 01 02 03 04 05 06 07 08 09 0A 0B 0C 0D 0E 0F
8420                            20 BF E4 EE FF 8A A3
8430 74 2B 8A 9E 74 2A A4 AA 74 28 A4 A8 74 27 A5 9E
8440 74 55 C6 D8 56 84 8A 9E 74 2B 8A A3 74 2A A4 A8
8450 74 28 A4 AA 74 27 0B 18 BB 29 D6 75 84 0B D3 8B
8460 18 B5 8C A4 6A BB D3 D7 72 84 0B D3 A8 D2 74 D6
8470 7B 84 0B D0 2B 0B 19 C6 D7 5D 84 40 24 26 0A 17
8480 BB 29 D6 A5 84 0A D3 57 B5 8C 96 6C BB D3 5F DA
8490 D0 25 05 14 C8 D8 9F 84 05 24 0A D3 23 06 28 06
84A0 D0 26 0A D0 2A 0A 19 C6 D7 85 84 03 A8 D4 74 CF
----------------------------------------------------
     00 01 02 03 04 05 06 07 08 09 0A 0B 0C 0D 0E 0F
84B0 20 BF E4 F8 FF 47 2A 43 29 41 28 8A 98 96 2B 0C
84C0 D8 CE 84 42 2A 89 12 29 42 28 8A 9F 96 2B 60 38
84D0 68 8D 17 39 3A E9 3C A7 0C 61 3B E9 03 C0 04 CF

Function $84B0 (F8 FF)

84B5 47
84B6 2A

84B7 43
84B8 29

84B9 41
84BA 28

84BB 8A 98 96
84BE 2B

84BF 0C
84C0 D8 CE 84

if ( ... )
{
	84C3 42
	84C4 2A
	
	84C5 89 12
	84C7 29
	
	84C8 42
	84C9 28
	
	84CA 8A 9F 96 / $969F
	84CD 2B
}

84CE 60
84CF 38
84D0 68
84D1 8D 17
84D3 39
84D4 3A
84D5 E9 3C A7 0C / Call $A73C

84D9 61
84DA 3B
84DB E9 03 C0 04 / Call $C004 -> Print

84DF CF
----------------------------------------------------
     00 01 02 03 04 05 06 07 08 09 0A 0B 0C 0D 0E 0F
84E0 20 BF E4 FA FF 48 2B 44 2A 0C D8 F2 84 43 2B 89
84F0 13 2A 3C E9 B0 84 02 3A 3B E9 70 C7 04 61 3D E9
8500 03 C0 04 CF 

Function $84E0 (FA FF)

84E5 48
84E6 2B

84E7 44
84E8 2A

84E9 0C
84EA D8 F2 84

if ( ... )
{
	84ED 43
	84EE 2B
	84EF 89 13
	84F1 2A
}

84F2 3C
84F3 E9 B0 84 02 / Call $84B0

     00 01 02 03 04 05 06 07 08 09 0A 0B 0C 0D 0E 0F
84E0 20 BF E4 FA FF 48 2B 44 2A 0C D8 F2 84 43 2B 89
84F0 13 2A 3C E9 B0 84 02 3A 3B E9 70 C7 04 61 3D E9
8500 03 C0 04 CF 
----------------------------------------------------
     00 01 02 03 04 05 06 07 08 09 0A 0B 0C 0D 0E 0F
8500             20 BF E4 FE FF 0C D8 11 85 0C D6 12
8510 85 0D 2B A5 54 70 53 C0 D8 21 85 A5 5A 70 1B C0
8520 CF A5 55 70 1B C0 CF 

Function $8504 (FE FF)
Args:
<0C>
<0D>

8509 0C
850A D8 11 85

if
	850D 0C
	850E D6 12 85
else
	8511 0D

8512 2B

8513 A5 54 70 .. / $7054 (Quest type)
8516 53
8517 C0
8518 D8 21 85

if
	851B A5 5A 70 .. / $705A
	851E 1B
	851F C0
	8520 CF
else
	8521 A5 55 70 .. / $7055
	8524 1B
	8525 C0
	8526 CF
----------------------------------------------------
     00 01 02 03 04 05 06 07 08 09 0A 0B 0C 0D 0E 0F
8520                      20 BF E4 FE FF 0C D1 55 B8
8530 2B 0B 52 C9 D8 3E 85 60 8E 7E 99 D6 42 85 60 8E
8540 83 99 E9 03 C0 04 60 0B D2 8C 5B 99 BB B0 B3 E9
8550 03 C0 04 CF 

Function $8527 (FE FF) -> Print the title for the navigator of fleet <00>
Args:
<0C> Fleet # of CPU

852C 0C
852D D1
852E 55
852F B8
8530 2B .. .. .. / fleet_nation

8531 0B
8532 52
8533 C9
8534 D8 3E 85

if (fleet_nation == pirates)
	8537 60
	8538 8E 7E 99 .. / $997E "the "
	853B D6 42 85
else
	853E 60
	853F 8E 83 99 .. / $9983 "from "

8542 E9 03 C0 04  / Call $C003 -> Print

8546 60
8547 0B
8548 D2
8549 8C 5B 99    / $995B -> String ptr table (Nation)
854C BB
854D B0
854E B3
854F E9 03 C0 04 / Call $C003 -> Print
8553 CF          / Return
----------------------------------------------------
     00 01 02 03 04 05 06 07 08 09 0A 0B 0C 0D 0E 0F
8550             20 BF E4 FE FF 8D 10 0C D8 63 85 0C
8560 D6 64 85 0D 8F 14 B3 64 62 E9 BB A5 08 A5 5F 70
8570 58 DA D7 96 85 A5 5F 70 51 DA D8 96 85 A5 54 70
8580 51 C8 D8 96 85 3D 3C E9 04 85 04 D8 96 85 40 A9
8590 5F 70 40 A9 54 70 A5 5F 70 58 DA D8 B9 85 A5 5F
85A0 70 52 DA 52 C0 D7 B9 85 A5 54 70 51 C7 D7 B9 85
85B0 3D 3C E9 04 85 04 D7 6E 86 0C D8 19 86 8D 10 AC
85C0 91 D7 B3 8D 13 8D 19 E9 BB A5 08 8E 89 99 61 E9
85D0 E0 84 04 AC 03 A0 8E AB 99 60 E9 E0 84 04 60 8E
85E0 AC 99 E9 03 C0 04 0C 8F 14 57 B5 8C 42 65 BB B0
85F0 B3 E9 6B D5 02 AA A6 96 8E B2 99 E9 19 C7 04 AC
8600 7D A0 8D 10 60 8D 13 8D 19 E9 BB A5 08 AA A8 96
8610 61 E9 E0 84 04 AC 03 A0 CF 8D 10 60 8D 13 8D 19
8620 E9 BB A5 08 3D E9 DA 80 02 D9 03 00 00 00 3A 86
8630 01 00 4C 86 02 00 5D 86 15 86 AA AA 96 61 E9 E0
8640 84 04 AC 03 A0 AA AC 96 60 D6 11 86 AA AE 96 61
8650 E9 E0 84 04 AC 03 A0 AA B0 96 D6 48 86 AA B2 96
8660 61 E9 E0 84 04 AC 03 A0 AA B4 96 D6 48 86 8D 10
8670 60 8D 13 8D 19 E9 BB A5 08 A5 54 70 52 C0 D8 C3
8680 86 8E B7 99 61 E9 E0 84 04 60 8E B8 99 E9 03 C0
8690 04 0C D8 99 86 0C D6 9A 86 0D 8F 14 57 B5 8C 42
86A0 65 BB B0 B3 E9 6B D5 02 60 8E CB 99 E9 03 C0 04
86B0 60 AA B6 96 E9 03 C0 04 AC 7D A0 AA B8 96 60 E9
86C0 E0 84 04 A5 54 70 53 C0 D8 F2 86 8E CE 99 61 E9
86D0 E0 84 04 8D 1F E9 50 D5 02 B3 AA BC 96 AA BA 96
86E0 8E CF 99 E9 19 C7 08 AC 7D A0 AA BE 96 60 E9 E0
86F0 84 04 A5 54 70 54 C0 D8 45 87 AA C0 96 60 E9 E0
8700 84 04 AC 03 A0 AA C2 96 61 E9 E0 84 04 AC 03 A0
8710 8D 11 6C 64 62 E9 BB A5 08 8E EA 99 60 E9 E0 84
8720 04 60 8E EB 99 E9 03 C0 04 AA 42 65 E9 6B D5 02
8730 AA C4 96 8E F1 99 E9 19 C7 04 AC 7D A0 AA C6 96
8740 61 E9 E0 84 04 AC 03 A0 CF 

Function $8554 (FE FF)

8559 8D 10
855B 0C
855C D8 63 85

if
	855F 0C
	8560 D6 64 85
else
	8563 0D

8564 8F 14
8566 B3
8567 64
8568 62
8569 E9 BB A5 08 / Call $A5BB -> Portrait?

856D A5 5F 70 .. / $705F -> Quest progress flags
8570 58
8571 DA
8572 D7 96 85

8575 A5 5F 70 .. / $705F -> Quest progress flags
8578 51
8579 DA
857A D8 96 85

857D A5 54 70 .. / $7054 (Quest type)
8580 51
8581 C8
8582 D8 96 85

8585 3D
8586 3C
8587 E9 04 85 04 / Call $8504
858B D8 96 85

	858E 40
	858F A9 5F 70 .. / $705F -> Quest progress flags
	8592 40
	8593 A9 54 70 .. / $7054 -> Quest type

8596 A5 5F 70 .. / $705F -> Quest progress flags
8599 58
859A DA
859B D8 B9 85

859E A5 5F 70 .. / $705F -> Quest progress flags
85A1 52
85A2 DA
85A3 52
85A4 C0
85A5 D7 B9 85

85A8 A5 54 70 .. / $7054 -> Quest type
85AB 51
85AC C7
85AD D7 B9 85

85B0 3D
85B1 3C
85B2 E9 04 85 04 / Call $8504
85B6 D7 6E 86

85B9 0C
85BA D8 19 86

85BD 8D 10
85BF AC 91 D7 .. / Call $D791
85C2 B3
85C3 8D 13
85C5 8D 19
85C7 E9 BB A5 08 / Call $A5BB -> Portrait
85CB 8E 89 99    / $9989 "They're challenging\nus to battle!"
85CE 61
85CF E9 E0 84 04 / Call $84E0

85D3 AC 03 A0    / Call $A003
85D6 8E AB 99 .. / $99AB ""
85D9 60
85DA E9 E0 84 04 / Call $84E0
85DE 60
85DF 8E AC 99 .. / $99AC "\nI'm "
85E2 E9 03 C0 04 / Call $C003 -> Print
85E6 0C
85E7 8F 14
85E9 57
85EA B5
85EB 8C 42 65 .. / $6542 (name string)
85EE BB
85EF B0
85F0 B3
85F1 E9 6B D5 02 / Call $D56B -> Print
85F5 AA A6 96 .. / [$96A6] "Now\n\nthat we've met,\n\nyou're doomed!"
85F8 8E B2 99 .. / $99B2 "! %s"
85FB E9 19 C7 04 / Call $C719 -> Print
85FF AC 7D A0 .. / Call $A07D
8602 8D 10
8604 60
8605 8D 13
8607 8D 19
8609 E9 BB A5 08 / Call $A5BB -> Portrait?
860D AA A8 96 .. / [$96A8] "You won't throw me\nso easily"
8610 61
8611 E9 E0 84 04 / Call $84E0
8615 AC 03 A0
8618 CF

8619 8D 10
861B 60
861C 8D 13
861E 8D 19
8620 E9 BB A5 08 / Call $A5BB
8624 3D
8625 E9 DA 80 02 / Call $80DA
8629 D9 03 00
     00 00 3A 86
	 01 00 4C 86
	 02 00 5D 86
	       15 86
		   
Case 00
	863A AA AA 96 .. / [$96AA] "How about a taste of\njustice, pirate!"
	863D 61
	863E E9 E0 84 04 / Call $84E0
	8642 AC 03 A0 .. / Call $A003
	8645 AA AC 96 .. / [$96AC] "Let's show the boy\nwhat pirates are made\nof!"
	8648 60
	8649 D6 11 86
Case 01
	864C AA AE 96 .. / [$96AE] "This is where I see\nyou to your death!"
	864F 61
	8650 E9 E0 84 04 / Call $84E0
	8654 AC 03 A0 .. / Call $A003
	8657 AA B0 96 .. / [$96B0] "Soon you will beg\nfor mercy"
	865A D6 48 86
Case 02
	865D AA B2 96 .. / [$96B2] "Hand over your goods\nand I'll spare your\nlife!"
	8660 61
	8661 E9 E0 84 04 / Call $84E0
	8665 AC 03 A0 .. / Call $A003
	8668 AA B4 96 .. / [$96B4] "You pirate! You think\nwe'll give in without\na fight?"
	866B D6 48 86

866E 8D 10 
8670 60
8671 8D 13
8673 8D 19
8675 E9 BB A5 08 / Call $A5BB
8679 A5 54 70 .. / $7054 (Quest type)
867C 52
867D C0
867E D8 C3 86

8681 8E B7 99 .. / $99B7 ""
8684 61
8685 E9 E0 84 04 / Call $84E0
8689 60
868A 8E B8 99 .. / $99B8 "\nWe've found you,\n"
868D E9 03 C0 04 / Call $C003 -> Print
8691 0C
8692 D8 99 86

8695 0C
8696 D6 9A 86

8699 0D

869A 8F 14
869C 57
869D B5
869E 8C 42 65    / Name
86A1 BB
86A2 B0
86A3 B3
86A4 E9 6B D5 02 / Call $D56B -> Print name
86A8 8E CB 99 .. / $99CB "! "
86AC E9 03 C0 04 / Call $C003 -> Print
86B0 60
86B1 AA B6 96 .. / [$96B6] "Your\ndevilry ends here,\nyou rat!"
86B4 E9 03 C0 04 / Call $C003 -> Print
86B8 AC 7D A0 .. / Call $A07D
86BB AA B8 96 .. / [$96B8] "Ha! I'll slash ye\ndown before ye make\nanother move!"
86BE 60
86BF E9 E0 84 04 / Call $84E0
 
86C3 A5 54 70 .. / $7054
86C6 53
86C7 C0
86C8 D8 F2 86

	86CB 8E CE 99 .. / $99CE ""
	86CE 61
	86CF E9 E0 84 04 / Call $84E0
	86D3 8D 1F
	86D5 E9 50 D5 02 / Call $D550
	86D9 B3
	86DA AA BC 96 .. / [$96BC] " Just give me\nthe"
	86DD AA BA 96 .. / [$96BA] "\nI didn't come to\nfight."
	86E0 8E CF 99 .. / $99CF "%s%s %s\nand I'll spare you"
	86E3 E9 19 C7 08 / Call $C719 -> Print
	86E7 AC 7D A0
	86EA AA BE 96 .. / [$96BE] "Never! You'll have to\nfight for it, ye\nyellow-belly!"
	86ED 60
	86EE E9 E0 84 04 / Call $84E0

86F2 A5 54 70 .. / $7054
86F5 54
86F6 C0
86F7 D8 45 87

86FA AA C0 96 .. / [$96C0] "Ye made it this far,\nyoungster, but this\nis where ye die!"
86FD 60
86FE E9 E0 84 04 / Call $84E0
8702 AC 03 A0 .. / Call $A003
8705 AA C2 96 .. / [$96C2] "So you're the rat who\nkidnapped Christiana!\nPrepare to fight!"
8708 61
8709 E9 E0 84 04 / Call $84E0
870D AC 03 A0 .. / Call $A003
8710 8D 11
8712 6C
8713 64
8714 62
8715 E9 BB A5 08 / Call $A5BB
8719 8E EA 99 .. / $99EA ""

8745

     00 01 02 03 04 05 06 07 08 09 0A 0B 0C 0D 0E 0F
8710 8D 11 6C 64 62 E9 BB A5 08 8E EA 99 60 E9 E0 84
8720 04 60 8E EB 99 E9 03 C0 04 AA 42 65 E9 6B D5 02
8730 AA C4 96 8E F1 99 E9 19 C7 04 AC 7D A0 AA C6 96
8740 61 E9 E0 84 04 AC 03 A0 CF 
----------------------------------------------------
     00 01 02 03 04 05 06 07 08 09 0A 0B 0C 0D 0E 0F
8740                            20 BF E4 00 00 D6 75
8750 87 8D 10 0C D3 B3 8D 13 8D 19 E9 BB A5 08 63 E9
8760 E1 CF 02 D2 8C F7 99 BB B0 B3 61 E9 E0 84 04 AC
8770 03 A0 0C D0 2C 0C D3 8C FF 00 C1 D7 51 87 CF 

Function $8749 (00 00) -> Crew members abandon fight
Args:
<0C> Ptr to crew array

874E D6 75 87

Loop until <0C> == 0xFF
	8751 8D 10
	8753 0C
	8754 D3
	8755 B3
	8756 8D 13
	8758 8D 19
	875A E9 BB A5 08 / Call $A5BB -> Print portrait

	875E 63
	875F E9 E1 CF 02 / Call $CFE1 -> RNG 00-02
	8763 D2
	8764 8C F7 99    / $99F7 (Random escape quote)
	8767 BB
	8768 B0
	8769 B3
	876A 61
	876B E9 E0 84 04 / Call $84E0
	876F AC 03 A0    / Call $A003

	8772 0C
	8773 D0
	8774 2C

	8775 0C
	8776 D3
	8777 8C FF 00
	877A C1
	877B D7 51 87

877E CF
----------------------------------------------------
     00 01 02 03 04 05 06 07 08 09 0A 0B 0C 0D 0E 0F
8770                                              20
8780 BF E4 00 00 AC 37 CE 8E E0 00 8E BC A4 8E FC A1
8790 8D 16 8D 20 60 60 69 E9 D4 EE 10 8E E0 00 8E 9A
87A0 A7 8E 7C A7 66 65 8D 16 62 69 E9 D4 EE 10 8E E0
87B0 00 8E D6 A7 8E B8 A7 66 65 8D 16 67 69 E9 D4 EE
87C0 10 61 8E 61 9A E9 03 C0 04 CF 
----------------------------------------------------
     00 01 02 03 04 05 06 07 08 09 0A 0B 0C 0D 0E 0F
87C0                               20 BF E4 FE FF 0F
87D0 55 C6 D8 E3 87 40 2B 0F A6 D2 74 C0 D8 EF 87 41
87E0 D6 EE 87 42 2B 0F A6 D4 74 C0 D8 EF 87 43 2B 3E
87F0 3B 3D 3C E9 96 DC 08 CF 

Function $87CA

87CF 0F
87D0 55
87D1 C6
87D2 D8 E3 87

87D5 40
87D6 2B
87D7 0F
87D8 A6 D2 7F .. / $7FD2
87DB C0
87DC D8 EF 87

87DF 41
87E0 D6 EE 87

87E3 42
87E4 2B
87E5 0F
87E6 A6 D4 74 .. / $74D4 (target ship?)
87E9 C0
87EA D8 EF 87

87ED 43

87EE 2B

87EF 3E
87F0 3B
87F1 3D
87F2 3C
87F3 E9 96 DC 08 / Call $DC96 -> Print graphic (?)

87F7 CF
----------------------------------------------------
     00 01 02 03 04 05 06 07 08 09 0A 0B 0C 0D 0E 0F
87F0                         20 BF E4 F6 FF 0D 1C BB
8800 2B D6 4D 88 0D D3 55 BA B3 0D D3 55 C6 D8 14 88
8810 40 D6 15 88 45 B4 BB 29 09 8C AC 74 BB D3 2A 0A
8820 5F BA 28 0A 5F B8 27 0D D3 B3 09 8C B6 74 BB D3
8830 B3 07 D2 B3 08 52 B9 D8 3E 88 43 D6 3F 88 42 B4
8840 BB B3 08 D2 D0 B3 E9 CA 87 08 0D D0 2D 0D 1B C6
8850 D7 04 88 CF 
----------------------------------------------------
     00 01 02 03 04 05 06 07 08 09 0A 0B 0C 0D 0E 0F
8850             20 BF E4 F8 FF AC 7F 87 40 28 29 8A
8860 17 74 2B 90 87 00 2A D6 97 88 0B D3 B3 08 D2 B3
8870 09 52 B9 D8 7A 88 43 D6 7B 88 42 B4 BB B3 09 D2
8880 D0 B3 E9 C8 DC 06 09 D0 29 09 5E C4 D8 94 88 40
8890 29 08 D0 28 0B D0 2B 0B 1A C6 D7 6A 88 8E 9E 74
88A0 AA A8 74 E9 F8 87 04 8E A3 74 AA AA 74 E9 F8 87
88B0 04 CF 
----------------------------------------------------
     00 01 02 03 04 05 06 07 08 09 0A 0B 0C 0D 0E 0F
88B0       20 BF E4 FE FF A4 DC 74 D8 05 89 A5 8A 6B
88C0 52 C8 D8 D5 88 A5 8A 6B 59 C6 D8 D5 88 A5 82 70
88D0 54 BE D6 D8 88 A5 82 70 5F DA 2B 8E E0 00 0B D2
88E0 D2 8C 6A 9A BB B0 B3 0B D2 D2 8C 68 9A BB B0 B3
88F0 62 62 8D 18 63 69 E9 D4 EE 10 AA DC 74 61 8D 16
8900 66 E9 03 80 08 CF 

Function $88B2 (FE FF)

88B7 A4 DC 74    / $74DC
88BA D8 05 89

if ($74DC != 00)
{
	88BD A5 8A 6B    / $6B8A -> Month
	88C0 52          / March
	88C1 C8
	88C2 D8 D5 88

	88C5 A5 8A 6B .. / $688A -> Month
	88C8 59          / October
	88C9 C6
	88CA D8 D5 88

	if (A && B)
	{
		88CD A5 82 70 / $7082
		88D0 54
		88D1 BE
		88D2 D6 D8 88
	}
	else
	{
		88D5 A5 82 70 / $7082
	}
	
	88D8 5F
	88D9 DA
	88DA 2B       .. / Graphic ID

	88DB 8E E0 00
	88DE 0B
	88DF D2
	88E0 D2
	88E1 8C 6A 9A
	88E4 BB
	88E5 B0
	88E6 B3
	88E7 0B
	88E8 D2
	88E9 D2
	88EA 8C 68 9A
	88ED BB
	88EE B0
	88EF B3
	88F0 62
	88F1 62
	88F2 8D 18
	88F4 63
	88F5 69
	88F6 E9 D4 EE 10 / Call $EED4 -> Print graphic

	88FA AA DC 74    / $74DC
	88FD 61
	88FE 8D 16
	8900 E9 03 80 08 / Call $8003
}

8905 CF
----------------------------------------------------
     00 01 02 03 04 05 06 07 08 09 0A 0B 0C 0D 0E 0F
8900                   20 BF E4 FE FF 0C D8 11 89 0C
8910 2B 0D D8 17 89 0D 2B 6C 62 E9 0B C7 04 60 8E 88
8920 9A E9 03 C0 04 0B 8F 14 57 B5 8C 42 65 BB B0 B3
8930 E9 6B D5 02 60 8E 90 9A E9 03 C0 04 3B E9 27 85
8940 02 60 8E 92 9A E9 03 C0 04 6D 6F E9 0B C7 04 61
8950 8E 94 9A E9 03 C0 04 8D 10 68 E9 0B C7 04 60 8E
8960 98 9A E9 03 C0 04 A5 74 6F D2 8C 56 BC BB B3 E9
8970 26 D3 02 B3 E9 6B D5 02 A5 74 6F D8 85 89 60 8E
8980 9A 9A D6 89 89 60 8E 9C 9A E9 03 C0 04 AA 42 65
8990 E9 6B D5 02 60 8E A5 9A E9 03 C0 04 CF 

Function $8906 (FE FF)
Args:
<0C>
<0D>

890B 0C
890C D8 11 89

if (...)
{
	890F 0C
	8910 2B
}

8911 0D
8912 D8 17 89

if (...)
{
	8915 0D
	8916 2B
}

8917 6C
8918 62
8919 E9 0B C7 04 / Call $C70B

891D 60
891E 8E 88 9A    / $9A88 [1B 52 22] [1B 45 3E]
                         "["
8921 E9 03 C0 04 / Call $C003 -> Print

8925 0B
8926 8F 14
8928 57
8929 B5
892A 8C 42 65    / $6542
892D BB
892E B0
892F B3
8930 E9 6B D5 02 / Call $D56B -> Print name of enemy

8934 

     00 01 02 03 04 05 06 07 08 09 0A 0B 0C 0D 0E 0F
8920 9A E9 03 C0 04 0B 8F 14 57 B5 8C 42 65 BB B0 B3
8930 E9 6B D5 02 60 8E 90 9A E9 03 C0 04 3B E9 27 85
8940 02 60 8E 92 9A E9 03 C0 04 6D 6F E9 0B C7 04 61
8950 8E 94 9A E9 03 C0 04 8D 10 68 E9 0B C7 04 60 8E
8960 98 9A E9 03 C0 04 A5 74 6F D2 8C 56 BC BB B3 E9
8970 26 D3 02 B3 E9 6B D5 02 A5 74 6F D8 85 89 60 8E
8980 9A 9A D6 89 89 60 8E 9C 9A E9 03 C0 04 AA 42 65
8990 E9 6B D5 02 60 8E A5 9A E9 03 C0 04 CF 
----------------------------------------------------
     00 01 02 03 04 05 06 07 08 09 0A 0B 0C 0D 0E 0F
8990                                        20 BF E4
89A0 FB FF 8E FF 00 65 DE FB FF B3 E9 3A F3 06 AC 37
89B0 CE 6C E9 8C E0 02 61 E9 C1 E0 02 DE FB FF B3 A5
89C0 9D 72 B3 3C E9 F7 80 06 A5 9D 72 B3 3C E9 B5 83
89D0 04 8E 9E 74 3C E9 26 D0 04 A8 A8 74 8E A3 74 A5
89E0 9D 72 B3 E9 26 D0 04 A8 AA 74 AC 29 84 A5 9D 72
89F0 B3 3C E9 06 89 04 8D 10 60 8E 76 F3 66 E9 D4 EE
8A00 08 A5 9D 72 B3 3C E9 54 85 04 DE FB FF B3 E9 49
8A10 87 02 AC 75 A6 AC 89 A5 8E 9E 74 3C E9 26 D0 04
8A20 A8 A8 74 8E A3 74 A5 9D 72 B3 E9 26 D0 04 A8 AA
8A30 74 AC 54 88 AC B2 88 A5 B6 74 A8 FA 75 8D 10 60
8A40 8E A7 9A 66 E9 D4 EE 08 8D 10 8D 10 8E 76 F3 66
8A50 E9 D4 EE 08 41 CF 

Function $899D (FB FF)
Args:
<0C>

89A2 8E FF 00
89A5 65
89A6 DE FB FF
89A9 B3
89AA E9 3A F3 06 / Call $F33A (Fill array with 0xFF)

89AE AC 37 CE    / Call $CE37 (Wipe sprites and black out nametable)

89B1 6C
89B2 E9 8C E0 02 / Call $E08C

89B6 61
89B7 E9 C1 E0 02 / Call $E0C1

89BB DE FB FF
89BE B3
89BF A5 9D 72    / $729D
89C2 B3
89C3 3C
89C4 E9 F7 80 06 / Call $80F7 -> Make list of crew members who abandon fight?

89C8 A5 9D 72 .. / $729D
89CB B3
89CC 3C
89CD E9 B5 83 04 / Call $83B5

89D1 8E 9E 74 .. / $749E
89D4 3C
89D5 E9 26 D0 04 / Call $D026 -> Assemble list?
89D9 A8 A8 74    / $74A8

89DC 8E A3 74
89DF A5 9D 72    / $729D
89E2 B3
89E3 E9 26 D0 04 / Call $D026 -> Assemble list?
89E7 A8 AA 74    / $74AA

89EA AC 29 84    / Call $8429

89ED A5 9D 72    / $729D
89F0 B3
89F1 3C
89F2 E9 06 89 04 / Call $8906

89F6 8D 10
89F8 60
89F9 8E 76 F3
89FC 66
89FD E9 D4 EE 08 / Call $EED4 -> Sysop 0x06 (Change palettes)

8A01 A5 9D 72    / $729D
8A04 B3
8A05 3C
8A06 E9 54 85 04 / Call $8554

8A0A DE FB FF
8A0D B3
8A0E E9 49 87 02 / Call $8749 -> Crew members abandon fight

8A12 AC 75 A6 .. / Call $A675 -> Black out palettes

8A15 AC 89 A5 .. / Call $A589

8A18 8E 9E 74 .. / $749E
8A1B 3C
8A1C E9 26 D0 04 / Call $D026
8A20 A8 A8 74 .. / $74A8

8A23 8E A3 74 .. / $74A3
8A26 A5 9D 72 .. / $729D
8A29 B3
8A2A E9 26 D0 04 / Call $D026
8A2E A8 AA 74

8A31 AC 54 88 .. / Call $8854

8A34 AC B2 88 .. / Call $88B2

8A37 A5 B6 74 .. / $74B6
8A3A A8 FA 75 .. / $75FA

8A3D 8D 10
8A3F 60
8A40 8E A7 9A .. / $9AA7
8A43 66
8A44 E9 D4 EE 08 / Call $EED4 -> Sysop 0x06 (Change palettes)

8A48 8D 10
8A4A 8D 10
8A4C 8E 76 F3 .. / $F376
8A4F 66
8A50 E9 D4 EE 08 / Call $EED4 -> Sysop 0x06 (Change palettes)

8A54 41
8A55 CF
----------------------------------------------------
     00 01 02 03 04 05 06 07 08 09 0A 0B 0C 0D 0E 0F
8A50                   20 BF E4 00 00 AC 75 A6 AC 89
8A60 A5 AC 37 CE 8D 10 60 8E 76 F3 66 E9 D4 EE 08 8D
8A70 10 8D 10 8E 76 F3 66 E9 D4 EE 08 CF 

Function $8A56 (00 00)

8A5B AC 75 A6    / Call $A675
8A5E AC 89 A5    / Call $A589
8A61 AC 37 CE    / Call $CE37

8A64 8D 10
8A66 60
8A67 8E 76 F3    / $F376
8A6A 66
8A6B E9 D4 EE 08 / Call $EED4 -> Sysop 0x06 (Set nametable palettes)

8A6F 8D 10
8A71 8D 10
8A73 8E 76 F3    / $F376
8A76 66
8A77 E9 D4 EE 08 / Call $EED4 -> Sysop 0x06 (Set sprite palettes)

8A7B CF
----------------------------------------------------
     00 01 02 03 04 05 06 07 08 09 0A 0B 0C 0D 0E 0F
8A70                                     20 BF E4 00
8A80 00 8D 10 AC 91 D7 B3 64 62 E9 BB A5 08 AA FE 9A
8A90 60 E9 E0 84 04 AC 03 A0 8D 10 0D 8F 14 B3 64 62
8AA0 E9 BB A5 08 AA 00 9B 60 E9 E0 84 04 AC 03 A0 CF

Function $8A7C (00 00)

8A81 8D 10
8A83 AC 91 D7    / Call $D791
8A86 B3
8A87 64
8A88 62
8A89 E9 BB A5 08 / Call $A5BB

8A8D AA FE 9A    / $9AFE
8A90 60
8A91 E9 E0 84 04 / Call $84E0

8A95 AC 03 A0    / Call $A003

8A98 8D 10
8A9A 0D
8A9B 8F 14
8A9D B3
8A9E 64
8A9F 62
8AA0 E9 BB A5 08 / Call $A5BB

8AA4 AA 00 9B
8AA7 60
8AA8 E9 E0 84 04 / Call $84E0

8AAC AC 03 A0    / Call $A003

8AAF CF
----------------------------------------------------
     00 01 02 03 04 05 06 07 08 09 0A 0B 0C 0D 0E 0F
8AB0 20 BF E4 F4 FF 41 26 8A 42 65 2A 8D 10 60 8D 13
8AC0 8D 19 E9 BB A5 08 AA 02 9B 61 E9 E0 84 04 AC 03
8AD0 A0 8D 10 AC 91 D7 B3 64 62 E9 BB A5 08 AA 04 9B
8AE0 60 E9 E0 84 04 AC 03 A0 8E 9E 74 3C E9 26 D0 04
8AF0 A8 A8 74 8A 9E 74 28 A6 A8 74 BB 27 D6 A5 8B 08
8B00 D3 8B 18 B5 8C A4 6A BB 2B 0B D3 D8 A2 8B 65 E9
8B10 E1 CF 02 75 B3 0B 8F 16 D3 B3 E9 6C DD 04 B3 0B
8B20 8F 16 B4 B3 D3 BC D4 0B D3 57 B5 8C 42 65 BB 2A
8B30 0A 73 D3 B3 0A 72 D3 B4 BB 8F 14 B3 8D 28 E9 E1
8B40 CF 02 B4 C8 D8 5E 8B 8E FE 00 0A 76 B4 B3 D3 DA
8B50 D4 08 D3 57 B5 8C 94 6C BB B3 40 B1 40 26 0B D3
8B60 D1 D2 8C 6E 6A BB 29 09 D3 B3 8D 46 E9 E1 CF 02
8B70 B4 C8 D8 8D 8B 09 D0 B3 8D 14 E9 E1 CF 02 7E D4
8B80 08 D3 57 B5 8C 94 6C BB B3 40 B1 40 26 65 E9 E1
8B90 CF 02 75 B3 09 D3 B3 E9 6C DD 04 B3 09 B4 B3 D3
8BA0 BC D4 08 D0 28 08 17 C6 D7 FF 8A 06 D8 B5 8B 8E
8BB0 25 9E D6 B8 8B 8E 3E 9E 60 E9 E0 84 04 AC 03 A0
8BC0 AC 56 8A 64 8E FF 85 8E DE 00 61 E9 3A DE 08 60
8BD0 8E 7E 9E E9 03 C0 04 AA 42 65 E9 6B D5 02 60 AA
8BE0 12 9D E9 03 C0 04 8D 78 E9 9B CE 02 AC 56 8A CF

Function $8AB0 -> Damage from retreating from sea battle

8AB5 41
8AB6 26

8AB7 8A 42 65 .. / $6542 (sailor ptr)
8ABA 2A

8ABB 8D 10
8ABD 60
8ABE 8D 13
8AC0 8D 19
8AC2 E9 BB A5 08 / Call $A5BB -> Portrait?

8AC6 AA 02 9B .. / $9B02
8AC9 61
8ACA E9 E0 84 04 / Call $84E0

8ACE AC 03 A0 .. / Call $A003

8AD1 8D 10
8AD3 AC 91 D7 .. / Call $D791
8AD6 B3
8AD7 64
8AD8 62
8AD9 E9 BB A5 08 / Call $A5BB

8ADD AA 04 9B .. / $9B04
8AE0 60
8AE1 E9 E0 84 04 / Call $84E0

8AE5 AC 03 A0 .. / Call $A003

8AE8 8E 9E 74 .. / $749E
8AEB 3C
8AEC E9 26 D0 04 / Call $D026 -> Transfer data?
8AF0 A8 A8 74 .. / $74A8 = # of bytes transferred?

8AF3 8A 9E 74
8AF6 28
8AF7 A6 A8 74
8AFA BB
8AFB 27

8AFC D6 A5 8B

Loop through ships(?)
8AFF 08
8B00 D3
8B01 8B 18
8B03 B5
8B04 8C A4 6A
8B07 BB
8B08 2B

8B09 0B
8B0A D3          / Navigator
8B0B D8 A2 8B

if ship has a navigator:

REDUCE SHIP'S CONDITION BY RANDOM AMOUNT (05-09)
	8B0E 65
	8B0F E9 E1 CF 02 / Call $CFE1 -> RNG 00-04
	8B13 75
	8B14 B3          / RNG 05-09
	8B15 0B
	8B16 8F 16       / Ship condition
	8B18 D3
	8B19 B3
	8B1A E9 6C DD 04 / Call $DD6C (get lesser value)
	8B1E B3
	8B1F 0B
	8B20 8F 16 
	8B22 B4
	8B23 B3
	8B24 D3
	8B25 BC
	8B26 D4          / Reduce condition by random amt (down to 0)

	8B27 0B
	8B28 D3
	8B29 57
	8B2A B5
	8B2B 8C 42 65 .. / $6542 (sailor data)
	8B2E BB
	8B2F 2A
	
	8B30 0A
	8B31 73
	8B32 D3 .. .. .. / Sailing lvl
	8B33 B3
	8B34 0A
	8B35 72
	8B36 D3          / Battle lvl
	8B37 B4
	8B38 BB .. .. .. /
	8B39 8F 14       / Battle lvl + Sailing lvl + 20
	8B3B B3
	8B3C 8D 28
	8B3E E9 E1 CF 02 / Call $CFE1 -> RNG 00-39
	8B42 B4
	8B43 C8
	8B44 D8 5E 8B
	
	if ( battle lvl + sailing lvl + 20 < randInt(40) )
	SHIP IS SUNK (Sailor dies)
		8B47 8E FE 00
		8B4A 0A
		8B4B 76 .. .. .. / Status flags 
		8B4C B4
		8B4D B3
		8B4E D3
		8B4F DA
		8B50 D4
		8B51 08
		8B52 D3
		8B53 57
		8B54 B5
		8B55 8C 94 6C .. / $6C94 (cur crewmen)
		8B58 BB
		8B59 B3
		8B5A 40
		8B5B B1 .. .. .. / Set crewmen to zero
		8B5C 40
		8B5D 26          / noShipsSunk = false (?)
	
	8B5E 0B
	8B5F D3
	8B60 D1
	8B61 D2
	8B62 8C 6E 6A .. / $6A6E (loyalty)
	8B65 BB
	8B66 29
	
	8B67 09
	8B68 D3
	8B69 B3
	8B6A 8D 46
	8B6C E9 E1 CF 02 / Call $CFE1 -> RNG 00-69
	8B70 B4
	8B71 C8
	8B72 D8 8D 8B
	
		8B75 09
		8B76 D0
		8B77 B3
		8B78 8D 14
		8B7A E9 E1 CF 02 / Call $CFE1 -> RNG 00-19
		8B7E 7E          / RNG 14-33
		8B7F D4
		
		8B80 08
		8B81 D3
		8B82 57
		8B83 B5
		8B84 8C 94 6C .. / $6C94 (crewmen)
		8B87 BB
		8B88 B3
		8B89 40
		8B8A B1
	
	8B8D 65
	8B8E E9 E1 CF 02 / Call $CFE1 -> RNG 00-04
	8B92 75
	8B93 B3 .. .. .. / RNG 05-09
	8B94 09
	8B95 D3
	8B96 B3
	8B97 E9 6C DD 04 / Call $DD6C -> Get smaller value
	8B9B B3
	8B9C 09
	8B9D B4
	8B9E B3
	8B9F D3
	8BA0 BC
	8BA1 D4

8BA2 08
8BA3 D0
8BA4 28

8BA5 08
8BA6 17
8BA7 C6
8BA8 D7 FF 8A

8BAB 06
8BAC D8 B5 8B

if (no ships were sunk)
	8BAF 8E 25 9E .. / $9E25 "We were lucky to\nescape!"
	8BB2 D6 B8 8B
else
	8BB5 8E 3E 9E .. / $9E3E "Cap'n, the head count\ndoesn't tally. I fear\nwe lost a few mates"

8BB8 60
8BB9 E9 E0 84 04 / Call $84E0 -> Print

8BBD AC 03 A0 .. / Call $A003

8BC0 AC 56 8A .. / Call $8A56

8BC3 64
8BC4 8E FF 85 .. / $85FF
8BC7 8E DE 00
8BCA 61
8BCB E9 3A DE 08 / Call $DE3A -> DE:85FF

8BCF 60
8BD0 8E 7E 9E    / $9E7E "\n"
8BD3 E9 03 C0 04 / Call $C003 -> Print

8BD7 AA 42 65    / [$6542] -> Captain name ptr
8BDA E9 6B D5 02 / Call $D56B
8BDE 60
8BDF AA 12 9D .. / [$9D12] -> $9DA3 " withdrew\n\nas the enemy's\n\nscornful laughter\n\nechoed from behind"
8BE2 E9 03 C0 04 / Call $C003 -> Print

8BE6 8D 78
8BE8 E9 9B CE 02 / Call $CE9B
8BEC AC 56 8A .. / Call $8A56

8BEF CF
----------------------------------------------------
     00 01 02 03 04 05 06 07 08 09 0A 0B 0C 0D 0E 0F
8BF0 20 BF E4 FE FF 8D 10 0D 8F 14 B3 64 62 E9 BB A5
8C00 08 3D E9 DA 80 02 2B 0B D2 8C B8 9A BB B0 B3 60
8C10 E9 E0 84 04 0B 52 C0 D8 34 8C 0D D1 55 B8 52 C0
8C20 D8 29 8C 8A 9D 9E D6 2C 8C 8A A4 9E B3 8E 80 9E
8C30 E9 99 C7 04 AC 03 A0 63 8E FF 85 8E DE 00 61 E9
8C40 3A DE 08 60 AA 0A 9D E9 03 C0 04 AA 42 65 E9 6B
8C50 D5 02 60 AA 0C 9D E9 03 C0 04 8D 78 E9 9B CE 02
8C60 AC 56 8A CF 

Function $8BF0 (FE FF)
Args:
<0C>
<0D>

8BF5 8D 10
8BF7 0D
8BF8 8F 14
8BFA B3
8BFB 64
8BFC 62
8BFD E9 BB A5 08 / Call $A5BB -> Portrait?

8C01 3D
8C02 E9 DA 80 02 / Call $80DA
8C06 2B

8C07 0B
8C08 D2
8C09 8C B8 9A
8C0C BB
8C0D B0
8C0E B3
8C0F 60
8C10 E9 E0 84 04 / Call $84E0

     00 01 02 03 04 05 06 07 08 09 0A 0B 0C 0D 0E 0F
8C10 E9 E0 84 04 0B 52 C0 D8 34 8C 0D D1 55 B8 52 C0
8C20 D8 29 8C 8A 9D 9E D6 2C 8C 8A A4 9E B3 8E 80 9E
8C30 E9 99 C7 04 AC 03 A0 63 8E FF 85 8E DE 00 61 E9
8C40 3A DE 08 60 AA 0A 9D E9 03 C0 04 AA 42 65 E9 6B
8C50 D5 02 60 AA 0C 9D E9 03 C0 04 8D 78 E9 9B CE 02
8C60 AC 56 8A CF 
----------------------------------------------------
     00 01 02 03 04 05 06 07 08 09 0A 0B 0C 0D 0E 0F
8C60             20 BF E4 00 00 A5 54 70 53 C0 D8 77
8C70 8C A5 5A 70 1C C0 CF A5 55 70 1C C0 CF 

Function $8C64 (00 00)

8C69 A5 54 70
8C6C 53
8C6D C0
8C6E D8 77 8C

if (...)
{
	8C71 A5 5A 70
	8C74 1C
	8C75 C0
	8C76 CF
}

8C77 A5 55 70
8C7A 1C
8C7B C0
8C7C CF
----------------------------------------------------
     00 01 02 03 04 05 06 07 08 09 0A 0B 0C 0D 0E 0F
8C70                                        20 BF E4
8C80 FA FF 8D 10 0D 8F 14 B3 64 62 E9 BB A5 08 3D E9
8C90 DA 80 02 2A 0A D2 8C F8 9A BB B0 B3 60 E9 E0 84
8CA0 04 0A 51 C0 D8 DD 8C 60 8E CC 9E E9 03 C0 04 0D
8CB0 D1 55 B8 29 09 53 C6 D8 D7 8C 60 8E E6 9E E9 03
8CC0 C0 04 60 09 D2 8C A9 9E BB B0 B3 E9 03 C0 04 60
8CD0 8E F2 9E E9 03 C0 04 AC 7D A0 D6 E0 8C AC 03 A0
8CE0 63 8E FF 85 8E DE 00 61 E9 3A DE 08 60 AA 0E 9D
8CF0 E9 03 C0 04 AA 42 65 E9 6B D5 02 60 AA 10 9D E9
8D00 03 C0 04 8D 78 E9 9B CE 02 A5 5F 70 5A DA 58 C0
8D10 D8 26 8E 3D E9 64 8C 02 D8 26 8E AC 56 8A 8A 42
8D20 65 2B 8D 10 60 8D 13 8D 19 E9 BB A5 08 A5 54 70
8D30 52 C0 D8 49 8D AA 06 9B 61 E9 E0 84 04 42 CD A5
8D40 5F 70 DB A9 5F 70 AC 03 A0 A5 54 70 53 C0 D8 65
8D50 8D 8E F4 9E 61 E9 E0 84 04 42 CD A5 5F 70 DB A9
8D60 5F 70 AC 03 A0 A5 54 70 54 C0 D8 34 8E AA 08 9B
8D70 61 E9 E0 84 04 AC 03 A0 8D 10 AC 91 D7 B3 64 62
8D80 E9 BB A5 08 AA 0A 9B 60 E9 E0 84 04 AC 03 A0 AC
8D90 56 8A 61 8E FF 85 8E DE 00 61 E9 3A DE 08 60 AA
8DA0 16 9D E9 03 C0 04 AA 42 65 E9 6B D5 02 60 AA 18
8DB0 9D E9 03 C0 04 8D 78 E9 9B CE 02 AC 56 8A 8D 11
8DC0 6C 64 62 E9 BB A5 08 8E 14 9F 60 E9 E0 84 04 60
8DD0 8E 15 9F E9 03 C0 04 AA 42 65 E9 6B D5 02 60 AA
8DE0 0C 9B E9 03 C0 04 AC 7D A0 8A 42 65 2B 8D 10 60
8DF0 8D 13 8D 19 E9 BB A5 08 AA 0E 9B 61 E9 E0 84 04
8E00 AC 03 A0 8D 10 AC 91 D7 B3 64 62 E9 BB A5 08 AA
8E10 10 9B 60 E9 E0 84 04 AC 03 A0 42 CD A5 5F 70 DB
8E20 A9 5F 70 D6 34 8E 8D 7F 0D 54 BD 8C 6F 66 BB B4
8E30 B3 B0 DA B1 8E FE 00 0D 8F 14 57 B5 8C 48 65 BB
8E40 B4 B3 D3 DA D4 68 0D 54 BD 8C 71 66 BB B4 B3 D3
8E50 DB D4 CF 

Function $8C7D -> Completed quest by sinking ship <0D>
Args:
<0C>
<0D> Enemy ship #

8C82 8D 10
8C84 0D
8C85 8F 14
8C87 B3
8C88 64
8C89 62
8C8A E9 BB A5 08 / Call $A5BB -> Portrait?

8C8E 3D
838F E9 DA 80 02 / Call $80DA -> Get string ID
8C93 2A

8C94 0A
8C95 D2
8C96 8C F8 9A .. / $9AF8
8C99 BB
8C9A B0  
8C9B B3
8C9C 60
8C9D E9 E0 84 04 / Call $84E0

8CA1 0A
8CA2 51
8CA3 C0
8CA4 D8 DD 8C

if blank string
	8CA7 60
	8CA8 8E CC 9E .. / $9ECC "\nThis is the end\n\nfor us!"
	8CAB E9 03 C0 04 / Call $C003 -> Print
	8CAF 0D
	8CB0 D1
	8CB1 55
	8CB2 B8
	8CB3 29          / Ship nation
	8CB4 09
	8CB5 53
	8CB6 C6
	8CB7 D8 D7 8C

	(if ship is not a pirate)
		8CBA 60
		8CBB 8E E6 9E .. / $9EE6 " Glory to\n\n"
		8CBE E9 03 C0 04 / Call $C003 -> Print
		8CC2 60
		8CC3 09
		8CC4 D2
		8CC5 8C A9 9E .. / $9EA9 (nation name)
		8CC8 BB
		8CC9 B0
		8CCA B3
		8CCB E9 03 C0 04 / Call $C003 -> Print
		8CCF 60
		8CD0 8E F2 9E .. / $9EF2 "!"
		8CD3 E9 03 C0 04 / Call $C003 -> Print

	8CD7 AC 7D A0
	8CDA D6 E0 8C

else
	8CDD AC 03 A0

8CE0 63
8CE1 8E FF 85
8CE4 8E DE 00
8CE7 61
8CE8 E9 3A DE 08 / Call $DE3A -> DE:85FF

8CEC 60
8CED AA 0E 9D .. / [9D0E] $9D5B "\nVictory smiled down\n\non "
8CF0 E9 03 C0 04 / Call $C003 -> Print
8CF4 AA 42 65 .. / $6542 (Player name)
8CF7 E9 6B D5 02 / Call $D56B -> Print
8CFB 60
8CFC AA 10 9D .. / [9D10] $9D75 " as\n\nthe enemy's flagship\n\nroared into flames"
8CFF E9 03 C0 04 / Call $C003 -> Print
8D03 8D 78
8D05 E9 9B CE 02 / Call $CE9B
8D09 A5 5F 70 .. / $705F (Mission progress flags)
8D0C 5A
8D0D DA
8D0E 58
8D0F C0
8D10 D8 26 8E

8D13 3D
8D14 E9 64 8C 02 / Call $8C64
8D18 D8 26 8E

8D1B AC 56 8A .. / Call $8A56
8D1E 8A 42 65 .. / $6542 (Player name)
8D21 2B
8D22 8D 10
8D24 60
8D25 8D 13
8D27 8D 19
8D29 E9 BB A5 08 / Call $A5BB -> Portrait?
8D2D A5 54 70 .. / $7054 (Quest type)
8D30 52
8D31 C0
8D32 D8 49 8D

if (quest type == "defeat pirate")
	8D35 AA 06 9B .. / [$9B06] $9C0B "Now things should be\na bit quieter in this\npart of the sea"
	8D38 61
	8D39 E9 E0 84 04 / Call $84E0
	8D3D 42
	8D3E CD
	8D3F A5 5F 70 .. / $705F (quest progress flags)
	8D42 DB
	8D43 A9 5F 70 .. / $705F (Set 0x02 progress flag)
	8D46 AC 03 A0 .. / Call $A003

8D49 A5 54 70 .. / $7054 (Quest type)
8D4C 53
8D4D C0
8D4E D8 65 8D

if (quest type == "retrieve treasure")
	8D51 8E F4 9E .. / $9EF4 "All hands aided in\nour success!"
	8D54 61
	8D55 E9 E0 84 04 / Call $84E0 -> Print?
	8D59 42
	8D5A CD
	8D5B A5 5F 70
	8D5E DB
	8D5F A9 5F 70
	8D62 AC 03 A0 .. / Call $A003

8D65 A5 54 70 .. / $7054 (Quest type)
8D68 54
8D69 C0
8D6A D8 34 8E

if (quest type == "rescue princess")
	8D6D AA 08 9B .. / [$9B08] $9C46 "Where's the\nprincess?"
	8D70 61
	8D71 E9 E0 84 04 / Call $84E0
	8D75 AC 03 A0 .. / Call $A003
	8D78 8D 10
	8D7A AC 91 D7 .. / Call $D791
	8D7D B3
	8D7E 64
	8D7F 62
	8D80 E9 BB A5 08 / Call $A5BB
	( ... )

8E26

8E34

     00 01 02 03 04 05 06 07 08 09 0A 0B 0C 0D 0E 0F
8D80 E9 BB A5 08 AA 0A 9B 60 E9 E0 84 04 AC 03 A0 AC
8D90 56 8A 61 8E FF 85 8E DE 00 61 E9 3A DE 08 60 AA
8DA0 16 9D E9 03 C0 04 AA 42 65 E9 6B D5 02 60 AA 18
8DB0 9D E9 03 C0 04 8D 78 E9 9B CE 02 AC 56 8A 8D 11
8DC0 6C 64 62 E9 BB A5 08 8E 14 9F 60 E9 E0 84 04 60
8DD0 8E 15 9F E9 03 C0 04 AA 42 65 E9 6B D5 02 60 AA
8DE0 0C 9B E9 03 C0 04 AC 7D A0 8A 42 65 2B 8D 10 60
8DF0 8D 13 8D 19 E9 BB A5 08 AA 0E 9B 61 E9 E0 84 04
8E00 AC 03 A0 8D 10 AC 91 D7 B3 64 62 E9 BB A5 08 AA
8E10 10 9B 60 E9 E0 84 04 AC 03 A0 42 CD A5 5F 70 DB
8E20 A9 5F 70 D6 34 8E 8D 7F 0D 54 BD 8C 6F 66 BB B4
8E30 B3 B0 DA B1 8E FE 00 0D 8F 14 57 B5 8C 48 65 BB
8E40 B4 B3 D3 DA D4 68 0D 54 BD 8C 71 66 BB B4 B3 D3
8E50 DB D4 CF 
----------------------------------------------------
     00 01 02 03 04 05 06 07 08 09 0A 0B 0C 0D 0E 0F
8E50          20 BF E4 FE FF A5 68 70 2B 40 A9 68 70
8E60 60 8E 17 9F E9 03 C0 04 AC 6D A3 60 8E 1C 9F E9
8E70 03 C0 04 AC 9D A3 60 8E 1E 9F E9 03 C0 04 AC 40
8E80 A3 60 8E 21 9F E9 03 C0 04 AA 42 65 E9 6B D5 02
8E90 60 8E 2D 9F E9 03 C0 04 0B A9 68 70 CF 

Function $8E53

8E58 A5 68 70 .. / $7068
8E5B 2B

8E5C 40
8E5D A9 68 70

8E60 60
8E61 8E 17 9F .. / $9F17 "\nOn "
8E64 E9 03 C0 04 / Call $C003 -> Print

     00 01 02 03 04 05 06 07 08 09 0A 0B 0C 0D 0E 0F
8E60 60 8E 17 9F E9 03 C0 04 AC 6D A3 60 8E 1C 9F E9
8E70 03 C0 04 AC 9D A3 60 8E 1E 9F E9 03 C0 04 AC 40
8E80 A3 60 8E 21 9F E9 03 C0 04 AA 42 65 E9 6B D5 02
8E90 60 8E 2D 9F E9 03 C0 04 0B A9 68 70 CF 
----------------------------------------------------
     00 01 02 03 04 05 06 07 08 09 0A 0B 0C 0D 0E 0F
8E90                                        20 BF E4
8EA0 00 00 65 8E FF 85 8E DE 00 61 E9 3A DE 08 AC 53
8EB0 8E 60 8E 30 9F E9 03 C0 04 CF 

Function $8E9D (00 00) -> Print player died in battle text

8EA2 65
8EA3 8E FF 85
8EA6 8E DE 00
8EA9 61
8EAA E9 3A DE 08 / Call $DE3A -> DE:85FF

8EAE AC 53 8E    / Call $8E53 -> Print intro to "player died in battle" text

8EB1 60
8EB2 8E 30 9F    / $9F30
8EB5 E9 03 C0 04 / Call $C003 -> Print "lost his life in a\n\nstormy battle at sea"

8EB9 CF
----------------------------------------------------
     00 01 02 03 04 05 06 07 08 09 0A 0B 0C 0D 0E 0F
8EB0                               20 BF E4 E6 FF 60
8EC0 8D 3A 8E FC 75 E9 3A F3 06 8E 9E 74 3C E9 26 D0
8ED0 04 A8 A8 74 8A 9E 74 26 A6 A8 74 BB 25 D6 E8 8F
8EE0 06 D3 57 B5 8C 90 6C BB 2B 06 D3 8B 18 B5 8C A4
8EF0 6A BB D3 85 E6 81 E6 D8 2D 8F 8D 3C E9 E1 CF 02
8F00 B3 81 E6 5A B5 8C C2 6B BB D3 B4 C6 D8 2D 8F 81
8F10 E6 D1 D2 8C 6E 6A BB 28 65 E9 E1 CF 02 78 B3 08
8F20 D3 B3 E9 6C DD 04 B3 08 B4 B3 D3 BC D4 0B 74 B0
8F30 D8 38 8F 0B D3 D7 E5 8F 06 D3 8B 18 B5 8C A4 6A
8F40 BB 2A 0A 8F 10 B0 5A B6 CD A4 30 76 BB A8 30 76
8F50 0A 8F 12 B0 5A B6 CD A4 32 76 BB A8 32 76 0A 8F
8F60 14 B0 CD A4 34 76 BB A8 34 76 0A 76 27 0A D0 24
8F70 40 21 01 D2 17 BB B0 D8 8E 8F 01 D2 17 BB B0 B3
8F80 04 11 BB D3 D2 8C FC 75 BB B4 B3 B0 BB B1 01 D0
8F90 21 01 55 C6 D7 72 8F 8A 9A 6A 23 22 40 D6 B6 8F
8FA0 0A D3 B3 03 D3 B4 C1 D8 B1 8F 32 03 D3 D4 02 D0
8FB0 22 03 D0 23 01 D0 21 01 5A C6 D8 C6 8F 03 D3 8C
8FC0 FF 00 C1 D7 A0 8F 32 8A FF 00 D4 8E FE 00 0A D3
8FD0 57 B5 8C 48 65 BB B4 B3 D3 DA D4 8E BF 00 0B 76
8FE0 B4 B3 D3 DA D4 06 D0 26 06 15 C6 D7 E0 8E 8E A3
8FF0 74 3D E9 26 D0 04 A8 AA 74 40 20 8A A3 74 26 A6
9000 AA 74 BB 25 D6 80 90 06 D3 57 B5 8C 90 6C BB 2B
9010 0B D3 D8 3C 90 0B 74 B0 D8 3C 90 A5 E0 74 54 C0
9020 D7 3C 90 A5 E0 74 52 C0 D8 7D 90 63 E9 E1 CF 02
9030 D7 7D 90 06 D3 A6 D4 74 C1 D8 7D 90 0B D3 D8 4F
9040 90 0B 74 B0 D8 4F 90 A5 E0 74 54 C0 D8 73 90 06
9050 D3 8F FB 53 B5 8C 00 64 BB 29 09 D0 B0 D8 70 90
9060 09 D0 B0 B3 09 D3 D2 8C FC 75 BB B4 B3 B0 BB B1
9070 00 D0 20 8E BF 00 0B 76 B4 B3 D3 DA D4 06 D0 26
9080 06 15 C6 D7 07 90 8D 32 E9 E1 CF 02 8F 1E 10 B5
9090 CD A4 30 76 BB A8 30 76 8D 32 E9 E1 CF 02 8F 1E
90A0 10 B5 CD A4 32 76 BB A8 32 76 63 E9 E1 CF 02 D0
90B0 10 B5 CD A4 34 76 BB A8 34 76 CF 

Function $8EBA (E6 FF)

8EBF 60
8EC0 8D 3A
8EC2 8E FC 75    / $75FC
8EC5 E9 3A F3 06 / Call $F33A (Fill array with 0x00)

8EC9 8E 9E 74    / $749E
8ECC 3C
8ECD E9 26 D0 04 / Call $D026 -> Assemble list of goods?
8ED1 A8 A8 74    / $74A8

8ED4 8A 9E 74    / $749E
8ED7 26
8ED8 A6 A8 74    / $74A8
8EDB BB
8EDC 25
8EDD D6 E8 8F

Loop:
	8EE0 06
	8EE1 D3
	8EE2 57
	8EE3 B5
	8EE4 8C 90 6C    / $6C90
	8EE7 BB
	8EE8 2B
	8EE9 06
	8EEA D3
	8EEB 8B 18
	8EED B5
	8EEE 8C A4 6A    / $6AA4
	8EF1 BB
	8EF2 D3
	8EF3 85 E6
	8EF5 81 E6
	8EF7 D8 2D 8F
	
	if
		8EFA 8D 3C
		8EFC E8 E1 CF 02 / Call $CFE1 -> RNG [00-59]
		8F00 B3
		8F01 81 E6
		8F03 5A
		8F04 B5
		8F05 8C C2 6B    / $6BC2
		8F08 BB
		8F09 D3
		8F0A B4
		8F0B C6
		8F0C D8 2D 8F
		
		if
			8F0F 81 E6
			8F11 D1
			8F12 D2
			8F13 8C 6E 6A    / $6A6E
			8F16 BB
			8F17 28
			8F18 65
			8F19 E9 E1 CF 02 / Call $CFE1 -> RNG [00-04]
			8F1D 78
			8F1E B3
			8F1F 08
			8F20 D3
			8F21 B3
			8F22 E9 6C DD 04 / Call $DD6C (get smaller)
			8F26 B3
			8F27 08
			8F28 B4
			8F29 B3
			8F2A D3
			8F2B BC
			8F2C D4
			
	8F2D 0B
	8F2E 74
	8F2F B0
	8F30 D8 38 8F
	
	if
		8F33 0B
		8F34 D3
		8F35 D7 E5 8F
	else
		8F38 06
		8F39 D3
		8F3A 8B 18
		8F3C B5
		8F3D 8C A4 6A    / $6AA4
		8F40 BB
		8F41 2A
		8F42 0A
		8F43 8F 10
		8F45 B0
		8F46 5A
		8F47 B6
		8F48 CD
		8F49 A4 30 76    / $7630
		8F4C BB
		8F4D A8 30 76    / $7630
		8F50 0A
		8F51 8F 12
		8F53 B0
		8F54 5A
		8F55 B6
		8F56 CD
		8F57 A4 32 76    / $7632
		8F5A BB
		8F5B A8 32 76    / $7632
		8F5E 0A
		8F5F 8F 14
		8F61 B0
		8F62 CD
		8F63 A4 34 76    / $7634
		8F66 BB
		8F67 A8 34 76    / $7634
		8F6A 0A
		8F6B 76
		8F6C 27
		8F6D 0A
		8F6E D0
		8F6F 24
		8F70 40
		8F71 21
		8F72 01
		8F73 D2
		8F74 17
		8F75 BB
		8F76 B0
		8F77 D8 8E 8F
		
		if
			8F7A 01
			8F7B D2
			8F7C 17
			8F7D BB
			8F7E B0
			8F7F B3
			8F80 04
			8F81 11
			8F82 BB
			8F83 D3
			8F84 D2
			8F85 8C FC 75    / $75FC
			8F88 BB
			8F89 B4
			8F8A B3
			8F8B B0
			8F8C BB
			8F8D B1
		
		8F8E 01
		8F8F D0
		8F90 21
		
		8F91 01
		8F92 55
		8F93 C6
		8F94 D7 72 8F
		
		8F97 8A 9A 6A    / $6A9A
		8F9A 23
		8F9B 22
		
		8F9C 40
		8F9D D6 B6 8F
		
		Loop:
			8FA0 0A
			8FA1 D3
			8FA2 B3
			8FA3 03
			8FA4 D3
			8FA5 B4
			8FA6 C1
			8FA7 D8 B1 8F
			
			if
				8FAA 32
				8FAB 03
				8FAC D3
				8FAD D4
				8FAE 02
				8FAF D0
				8FB0 22
			
			8FB1 03
			8FB2 D0
			8FB3 23
			8FB4 01
			8FB5 D0
		
		Bounds check:
			8FB6 21
			8FB7 01
			8FB8 5A
			8FB9 C6
			8FBA D8 C6 8F
			
		8FBD 03
		8FBE D3
		8FBF 8C FF 00
		8FC2 C1
		8FC3 D7 A0 8F
		
		8FC6 32
		8FC7 8A FF 00
		8FCA D4
		8FCB 8E FE 00
		8FCE 0A
		8FCF D3
		8FD0 57
		8FD1 B5
		8FD2 8C 48 65    / $6548
		8FD5 BB
		8FD6 B4
		8FD7 B3
		8FD8 D3
		8FD9 DA
		8FDA D4
		8FDB 8E BF 00
		8FDE 0B
		8FDF 76
		8FE0 B4
		8FE1 B3
		8FE2 D3
		8FE3 DA
		8FE4 D4

	8FE5 06
	8FE6 D0
	8FE7 26
Bounds check:
	8FE8 06
	8FE9 15
	8FEA C6
	8FEB D7 E0 8E
	
8FEE 8E A3 74    / $74A3
8FF1 3D
8FF2 E9 26 D0 04 / Call $D026 -> Assemble list of goods?
8FF6 A8 AA 74    / $74AA

8FF9 40
8FFA 20

8FFB 8A A3 74    / $74A3
8FFE 26
8FFF A6 AA 74    / $74AA
9002 BB
9003 25
9004 D6 80 90

Loop:
	9007 06
	9008 D3
	9009 57
	900A B5
	900B 8C 90 6C    / $6C90
	900E BB
	900F 2B
	9010 0B
	9011 D3
	9012 D8 3C 90
	
	if
		9015 0B
		9016 74
		9017 B0
		9018 D8 3C 90
		
		if
			901B A5 E0 74    / $74E0
			901E 54
			901F C0
			9020 D7 3C 90
			
			if (quest not completed)
				9023 A5 E0 74    / $74E0
				9026 52
				9027 C0
				9028 D8 7D 90
				
				902B 63
				902C E9 E1 CF 02 / Call $CFE1 -> RNG [00-02]
				
				9030 D7 7D 90
				
				9033 06
				9034 D3
				9035 A6 D4 74 .. / $74D4
				9038 C1
				9039 D8 7D 90
	
	903C 0B
	903D D3
	903E D8 4F 90
	
	if
		9041 0B
		9042 74
		9043 B0
		9044 D8 4F 90
		
		if
			9047 A5 E0 74    / $74E0
			904A 54
			904B C0
			904C D8 73 90
	
	904F 06
	9050 D3
	9051 8F FB
	9053 53
	9054 B5
	9055 8C 00 64
	9058 BB
	9059 29
	905A 09
	905B D0
	905C B0
	905D D8 70 90
	
	if
		9060 09
		9061 D0
		9062 B0
		9063 B3
		9064 09
		9065 D3
		9066 D2
		9067 8C FC 75    / $75FC
		906A BB
		906B B4
		906C B3
		906D B0
		906E BB
		906F B1
	
	9070 00
	9071 D0
	9072 20
	
	9073 8E BF 00
	9076 0B
	9077 76
	9078 B4
	9079 B3
	907A D3
	907B DA
	907C D4
	907D 06
	907E D0
	907F 26
Bounds check:
	9080 06
	9081 15
	9082 C6
	9083 D7 07 90
	
9086 8D 32
9088 E9 E1 CF 02 / Call $CFE1 -> RNG [00-49]
908C 8F 1E
908E 10
908F B5
9090 CD
9091 A4 30 76    / $7630
9094 BB
9095 A8 38 76    / $7630
9098 8D 32
909A E9 E1 CF 02 / Call $CFE1 -> RNG [00-49]
909E 8F 1E
90A0 10
90A1 B5
90A2 CD
90A3 A4 32 76    / $7632
90A6 BB
90A7 A8 32 76    / $7632
90AA 63
90AB E9 E1 CF 02 / Call $CFE1 -> RNG [00-02]
90AF D0
90B0 10
90B1 B5
90B2 CD
90B3 A4 34 76    / $7634
90B6 BB
90B7 A8 34 76    / $7634
90BA CF
----------------------------------------------------
     00 01 02 03 04 05 06 07 08 09 0A 0B 0C 0D 0E 0F
90B0                                  20 BF E4 FA FF
90C0 40 2B 0B 2A 0C 1B BB 5F C9 D8 E4 90 0D B0 8C E0
90D0 2E C9 D8 02 91 0B D0 2B 8E E0 2E 0D B4 B3 B0 BC
90E0 B1 D6 02 91 0C 1B BB B3 0C 1B BB B4 B5 8B 32 B5
90F0 29 0D B0 19 C8 D8 02 91 39 0D B4 B3 B0 BC B1 0B
9100 D0 2B 0A 1B C1 D7 C2 90 0C 1B BB 8B 32 C8 D8 16
9110 91 89 32 1C BC 2B 0B CF 

Function $90BB

90C0 40
90C1 2B

90C2 0B
90C3 2A

90C4 0C
90C5 1B
90C6 BB
90C7 5F
90C8 C9
90C9 D8 E4 90

90CC 0D
90CD B0
90CE 8C E0 2E
90D1 C9
90D2 D8 02 91

90D5 0B
90D6 D0
90D7 2B
90D8 8E E0 2E
90DB 0D
90DC B4
90DD B3
90DE B0
90DF BC
90E0 B1
90E1 D6 02 91

90E4 0C
90E5 1B
90E6 BB
90E7 B3
90E8 0C
90E9 1B
90EA BB
90EB B4
90EC B5
90ED 8B 32
90EF B5
90F0 29
90F1 0D
90F2 B0
90F3 19
90F4 C8
90F5 D8 02 91

90F8 39
90F9 0D
90FA B4
90FB B3
90FC B0
90FD BC
90FE B1
90FF 0B
9100 D0
9101 2B

9102 0A
9103 1B
9104 C1
9105 D7 C2 90

9108 0C
9109 1B
910A BB
910B 8B 32
910D C8
910E D8 16 91

	9111 89 32
	9113 1C
	9114 BC
	9115 2B

9116 0B
9117 CF
----------------------------------------------------
     00 01 02 03 04 05 06 07 08 09 0A 0B 0C 0D 0E 0F
9110                         20 BF E4 F6 FF 8A 6D 66
9120 27 0C 54 BD 8C 6D 66 BB 29 40 2B 2A D6 63 91 0B
9130 5F DA B3 41 B4 BD B3 0B 54 BE D2 19 BB B0 B4 DA
9140 D8 60 91 0B 5F DA B3 41 B4 BD B3 0B 54 BE D2 17
9150 BB B0 B4 DA D7 60 91 3D 0B D4 0D D0 2D 0A D0 2A
9160 0B D0 2B 0B 8B 20 C6 D7 2F 91 0A CF 

Function $9118 (F6 FF)

911D 8A 6D 66    / $666D (Item flags)
9120 27

9121 0C
9122 54
9123 BD
9124 8C 6D 66    / $666D (Item flags)
9127 BB
9128 29

9129 40
912A 2B
912B 2A

912C D6 63 91

Loop:
	912F 0B
	9130 5F
	9131 DA
	9132 B3
	9133 41
	9134 B4
	9135 BD
	9136 B3
	9137 0B
	9138 54
	9139 BE
	913A D2
	913B 19
	913C BB
	913D B0
	913E B4
	913F DA
	9140 D8 60 91
	
	if
		9143 0B
		9144 5F
		9145 DA
		9146 B3
		9147 41
		9148 B4
		9149 BD
		914A B3
		914B 0B
		914C 54
		914D BE
		914E D2
		914F 17
		9150 BB
		9151 B0
		9152 B4
		9153 DA
		9154 D7 60 91
		
		if
			9157 3D
			9158 0B
			9159 D4
			915A 0D
			915B D0
			915C 2D
			915D 0A
			915E D0
			915F 2A
	
	9160 0B
	9161 D0
	9162 2B
Bounds check:
	9163 0B
	9164 8B 20
	9166 C6
	9167 D7 2F 91
	
916A 0A
916B CF
----------------------------------------------------
     00 01 02 03 04 05 06 07 08 09 0A 0B 0C 0D 0E 0F
9160                                     20 BF E4 FE
9170 FF 60 E9 A9 C4 02 2B 0B 51 C0 D8 8A 91 60 60 6A
9180 6F 6D 6C 68 E9 D4 EE 0E 41 CF 0B 52 C0 D8 71 91
9190 AC 56 8A 40 CF 

Function $916C (FE FF)

9171 60
9172 E9 A9 C4 02 / Call $C4A9
9176 2B

9177 0B
9178 51
9179 C0
917A D8 8A 91

if
{
	917D 60
	917E 60
	917F 6A
	9180 6F
	9181 6D
	9182 6C
	9183 68
	9184 E9 D4 EE 0E / Call $EED4 - > Sysop 0x08 (Draw black rectangle)
	9188 41
	9189 CF          / Return 1
}

918A 0B
918B 52
918C C0
918D D8 71 91

9190 AC 56 8A    / Call $8A56

9193 40
9194 CF          / Return 0
----------------------------------------------------
     00 01 02 03 04 05 06 07 08 09 0A 0B 0C 0D 0E 0F
9190                20 BF E4 EE FF 8D 10 AC 91 D7 B3
91A0 64 62 E9 BB A5 08 8E 59 9F 60 E9 E0 84 04 8E E8
91B0 00 8E 6A AF 8E AA AD 8D 10 8D 1C 6C 62 69 E9 D4
91C0 EE 10 61 8E 6D 9F E9 03 C0 04 43 29 4D 28 40 25
91D0 24 38 09 D0 B3 E9 70 C7 04 0C D8 E7 91 3C 8E 74
91E0 9F E9 99 C7 04 41 24 0D D8 AF 92 04 D2 18 BB B3
91F0 09 D0 B3 E9 70 C7 04 61 8E 7D 9F E9 03 C0 04 4B
9200 CD 09 BB 29 0D 57 C8 D7 18 92 0C D8 14 92 0D 56
9210 C8 D7 18 92 40 D6 19 92 41 23 03 D8 2C 92 66 68
9220 E9 70 C7 04 61 8E 87 9F E9 03 C0 04 0E 2B 1D BB
9230 2A D6 77 92 09 27 04 D2 18 BB 26 06 D0 B3 37 E9
9240 0B C7 04 0B D3 B3 E9 50 D5 02 B3 E9 6B D5 02 04
9250 D0 24 04 56 C8 D8 74 92 40 24 05 D0 25 05 51 C8
9260 D8 74 92 0C D8 69 92 41 24 34 E9 6C 91 02 D7 72
9270 92 CF 40 25 0B D0 2B 0B 1A C6 D7 34 92 03 D7 96
9280 92 64 68 E9 70 C7 04 61 8E 59 9F E9 03 C0 04 AC
9290 03 A0 AC 56 8A CF 40 24 25 0C D8 9F 92 41 24 34
92A0 E9 6C 91 02 D7 A8 92 CF 41 D7 2C 92 D6 C3 92 64
92B0 68 E9 70 C7 04 61 8E 59 9F E9 03 C0 04 AC 03 A0
92C0 AC 56 8A CF 
----------------------------------------------------
     00 01 02 03 04 05 06 07 08 09 0A 0B 0C 0D 0E 0F
92C0             20 BF E4 C8 FF AC 56 8A 3D 3C E9 BA
92D0 8E 04 8E 9E 74 3C E9 26 D0 04 A8 A8 74 8A 9E 74
92E0 29 A6 A8 74 BB 28 D6 A6 93 09 D3 8B 18 B5 8C A4
92F0 6A BB D3 23 03 57 B5 8C 42 65 BB 27 07 72 D3 8B
9300 32 C6 D8 99 93 03 5A B5 8C BE 6B BB 26 06 76 B3
9310 07 72 D3 B3 E9 BB 90 04 25 05 D8 A3 93 06 74 B3
9320 8D 64 06 74 D3 B3 05 D2 D2 B3 E9 E1 CF 02 B4 BB
9330 B3 E9 6C DD 04 D4 06 75 B3 8D 64 06 75 D3 B3 05
9340 D2 D2 B3 E9 E1 CF 02 B4 BB B3 E9 6C DD 04 D4 8D
9350 10 AC 91 D7 B3 64 62 E9 BB A5 08 8E 9E 9F 60 E9
9360 E0 84 04 60 8E 9F 9F E9 03 C0 04 03 D8 7D 93 07
9370 B0 B3 E9 6B D5 02 60 8E A1 9F D6 81 93 60 8E A6
9380 9F E9 03 C0 04 60 8E B6 9F E9 03 C0 04 05 B3 07
9390 72 B4 B3 D3 BB D4 D6 A3 93 03 5A B5 8C C4 6B BB
93A0 B3 40 B1 09 D0 29 09 18 C6 D7 E9 92 AC 56 8A A5
93B0 E0 74 52 C0 D7 BF 93 A5 E0 74 54 C0 D8 EB 94 63
93C0 8E FF 85 8E DE 00 61 E9 3A DE 08 AC 53 8E 60 8E
93D0 D4 9F E9 03 C0 04 8D 78 E9 9B CE 02 0D D1 55 B8
93E0 24 04 D2 D2 8C BE 6F BB B3 8D 64 04 D2 D2 8C BE
93F0 6F BB D3 B3 65 E9 E1 CF 02 B4 BB 7A B3 E9 6C DD
9400 04 D4 04 D8 2A 94 04 8C 9A 9F BB D3 25 6A E9 E1
9410 CF 02 7A B3 05 8C 8D 6B BB D3 B3 E9 6C DD 04 B3
9420 05 8C 8D 6B BB B4 B3 D3 BC D4 A5 E0 74 54 C0 D8
9430 A5 94 0C 54 BD 8C 62 66 BB 2B 0D 54 BD 8C 62 66
9440 BB 2A 0B 79 B0 B3 8A 60 EA B4 BC B3 0A 79 B0 B3
9450 E9 6C DD 04 85 C8 DE CE FF B3 3D E9 18 91 04 25
9460 87 C8 0B 79 B4 B3 B0 BB B1 0A 7D B0 B3 0B 7D B4
9470 B3 B0 DB B1 0A 7B B0 B3 0B 7B B4 B3 B0 DB B1 81
9480 C8 D7 88 94 05 D8 96 94 AC 56 8A DE CE FF B3 35
9490 87 C8 E9 95 91 06 0A 79 B3 40 B1 0A 7D B3 40 B1
94A0 0A 7B B3 40 B1 8A FC 75 85 CC 8F 3A 85 CA D6 E3
94B0 94 81 CC B0 D8 DE 94 8E 9E 74 3C E9 26 D0 04 A8
94C0 A8 74 AC 56 8A 61 8E F0 9F E9 03 C0 04 8E FC 75
94D0 8E 14 98 8E C0 00 61 E9 3A DE 08 D6 EB 94 81 CC
94E0 72 85 CC 81 CC 83 CA C6 D7 B1 94 CF 
----------------------------------------------------
     00 01 02 03 04 05 06 07 08 09 0A 0B 0C 0D 0E 0F
94E0                                     20 BF E4 FC
94F0 FF 0C 2B 0D 2A 0C D8 FD 94 0D 2B 0C 2A A5 E0 74
9500 D5 FF FF 05 00 17 95 11 95 3E 95 47 95 50 95 59
9510 95 3A 3B E9 7C 8A 04 A5 E0 74 54 C0 D8 7B 95 0A
9520 D1 55 B8 D8 7B 95 6A E9 E1 CF 02 5A B5 B3 3A E9
9530 DA 80 02 52 C0 D8 61 95 8A C8 00 D6 64 95 3A 3B
9540 E9 F0 8B 04 D6 17 95 3A 3B E9 B0 8A 04 D6 17 95
9550 3A 3B E9 7D 8C 04 D6 17 95 3A 3B E9 9D 8E 04 40
9560 CF 8A 58 02 B4 BB B3 8A 50 C3 A6 72 6F BC B3 E9
9570 6C DD 04 CD A4 72 6F BB A8 72 6F 3A 3B E9 C4 92
9580 04 41 CF 

Function $94EC

94F1 0C
94F2 2B

94F3 0D
94F4 2A

94F5 0C
94F6 D8 FD 94

if
	94F9 0D
	94FA 2B
	94FB 0C
	94FC 2A

94FD A5 E0 74 .. / $74E0
9500 D5
     FF FF 05 00
	       17 95 / (default)
		   11 95 / (case 01)
		   3E 95 / (case 02)
		   47 95 / (case 03)
		   50 95 / (case 04)
		   59 95 / (case 05)
Case 01
	9511 3A
	9512 3B
	9513 E9 7C 8A 04 / Call $8A7C
Default
	9517 A5 E0 74 .. / $74E0
	951A 54
	951B C0
	951C D8 7B 95
	
	951F 0A
	9520 D1
	9521 55
	9522 B8
	9523 D8 7B 95
	
	9526 6A
	9527 E9 E1 CF 02 / Call $CFE1 -> RNG 00-09
	952B 5A
	952C B5
	952D B3
	952E 3A
	952F E9 DA 80 02 / Call $80DA -> Get string ID
	9533 52
	9534 C0
	9535 D8 61 95
	
	9538 8A C8 00
	953B D6 64 95
Case 02
	953E 3A
	953F 3B
	9540 E9 F0 8B 04 / Call $8BF0
	9544 D6 17 95
Case 03
	9547 3A
	9548 3B
	9549 E9 B0 8A 04 / Call $8AB0 (Retreated from battle)
	954D D6 17 95
Case 04
	9550 3A
	9551 3B
	9552 E9 7D 8C 04 / Call $8C7D (Completed quest by sinking ship)
	9556 D6 17 95
Case 05
	9559 3A
	955A 3B
	955B E9 9D 8E 04 / Call $8E9D (Player died in battle)
	955F 40
	9560 CF
	
9561 8A 58 02

9564 B4
9565 BB
9566 B3
9567 8A 50 C3
956A A6 72 6F .. / $6F72 (Fame)
956D BC
956E B3
956F E9 6C DD 04
9573 CD
9574 A4 72 6F
9577 BB
9578 A8 72 6F .. / Set as new fame
	
957B 3A
957C 3B
957D E9 C4 92 04 / Call $92C4

9581 41
9582 CF
----------------------------------------------------
     00 01 02 03 04 05 06 07 08 09 0A 0B 0C 0D 0E 0F
9580          20 BF E4 00 00 AC 56 8A A5 E0 74 51 C8
9590 D8 B0 95 A5 E0 74 51 DA D8 A5 95 8D 10 E9 8C E0
95A0 02 60 D6 AC 95 8D 11 E9 8C E0 02 61 E9 C1 E0 02
95B0 A5 9D 72 B3 3C E9 EC 94 04 D8 F2 95 8A FF 00 A9
95C0 68 70 8A FF 00 A9 65 72 8A FF 00 A9 66 72 8A FF
95D0 00 A9 62 72 0C D8 DC 95 0C D6 DF 95 A5 9D 72 B3
95E0 E9 4B DB 02 AC 56 8A 61 8E F7 9F E9 03 C0 04 D6
95F0 F6 95 44 A9 67 72 41 CF 

Function $9583 (00 00)
Args:
<0C>

9588 AC 56 8A

958B A5 E0 74    /  $74E0
958E 51
958F C8
9590 D8 B0 95

if
{
	9593 A5 E0 74    / $74E0
	9596 51
	9597 DA
	9598 D8 A5 95
	
	if
	{
		959B 8D 10
		959D E9 8C E0 02 / Call $E08C
		
		95A1 60
		95A2 D6 AC 95
	}
	else
	{
		95A5 8D 11
		95A7 E9 8C E0 02 / Call $E08C
		95AB 61
	}
	
	95AC E9 C1 E0 02 / Call $E0C1
}

95B0 A5 9D 72    / $729D
95B3 B3
95B4 3C
95B5 E9 EC 94 04 / Call $94EC
95B9 D8 F2 95

if
{
	95BC 8A FF 00
	95BF A9 68 70    / $7068
	95C2 8A FF 00
	95C5 A9 65 72    / $7265
	95C8 8A FF 00
	95CB A9 66 72    / $7266
	95CE 8A FF 00
	95D1 A9 62 72    / $7262
	
	95D4 0C
	95D5 D8 DC 95
	
	if
	{
		95D8 0C
		95D9 D6 DF 95
	}
	else
	{
		95DC A5 9D 72    / $729D
	}
	
	95DF B3
	95E0 E9 4B DB 02 / Call $DB4B (Create CPU ship ID #?)
		
	95E4 AC 56 8A    / Call $8A56
		
	95E7 61
	95E8 8E F7 9F    / $9FF7 [1B 52 20] [1B 45 3F]
	95EB E9 03 C0 04 / Call $C003
	
	95EF D6 F6 95
}
else
{
	95F2 44
	95F3 A9 67 72    / $7267 (Set ending flag)
}

95F6 41
95F7 CF          / Return 1
----------------------------------------------------
$96A6 -> String ptr table
00 96C8 "Now\n\nthat we've met,\n\nyou're doomed!"
01 96ED "You won't throw me\nso easily"
02 970A "How about a taste of\njustice, pirate!"
03 9730 "Let's show the boy\nwhat pirates are made\nof!"
04 975D "This is where I see\nyou to your death!"
05 9784 "Soon you will beg\nfor mercy"
06 97A0 "Hand over your goods\nand I'll spare your\nlife!"
07 97CF "You pirate! You think\nwe'll give in without\na fight?"
08 9804 "Your\ndevilry ends here,\nyou rat!"
09 9825 "Ha! I'll slash ye\ndown before ye make\nanother move!"
0A 9859 "\nI didn't come to\nfight."
0B 9872 " Just give me\nthe"
0C 9884 "Never! You'll have to\nfight for it, ye\nyellow-belly!"
0D 98B9 "Ye made it this far,\nyoungster, but this\nis where ye die!"
0E 98F3 "So you're the rat who\nkidnapped Christiana!\nPrepare to fight!"
0F 9931 "Please save me!"
10 9941 "Hold on, I'll\nrescue you!"

$995B -> String ptr table
00 9963 Portugal
01 996C Spain
02 9972 Turk
03 9977 pirate

997E "the "
9983 "from "
9989 "They're challenging\nus to battle!"
99AB "" (blank)
99AC "\nI'm "
99B2 "! %s"
99B7 "" (blank)
99B8 "\nWe've found you,\n"
99CB "! "
99CE "" (blank)
99CF "%s%s %s\nand I'll spare you"
99EA "" (blank)
99EB "\nOh, "
99F1 "!\n\n%s"

$99F7 - String ptr table
00 99FD "I'm not staying for\nthis!"
01 9A17 "Time for me to\nleave!"
02 9A2D "So long! You'll have\nto fight this out\non your own!"

9A61 1B 52 2D 1B 45 3E

9A88 1B 52 22 1B 45 3E "["
9A90 " "
9A92 "]"
9A94 "vs."
9A98 "["
9A9A " "
9A9C "Captain "
9AA5 "]"

$9AF8 - String ptr table
00 9B12 "Blast! We're through,\nmaties!"
01 9B30 ""
02 9B31 "Im-impossible! I'm\nnot ready to die!"
03 9B56 "Cap'n, the sun's\nsetting. We can't go\non fighting"
04 9B88 "Are ye running away,\nyoungster?"
05 9BA8 "At this rate we're\nfinished for sure.\nLet's pull out"
06 9BDD "Now there's a bit o'\nwisdom! Let's sail\naway!"
07 9C0B "Now things should be\na bit quieter in this\npart of the sea"
08 9C46 "Where's the\nprincess?"
09 9C5C "Don't worry, she's\nsafe now"
0A 9C78 ", how\n\ncan I ever thank\n\nyou!"
0B 9C96 "We're thankful for\nyour safe return,\nPrincess Christiana"
0C 9CCF "Captain, restrain\nyourself until we've\nseized the treasure"

9E25 "We were lucky to\nescape!"
9E3E "Cap'n, the head count\ndoesn't tally. I fear\nwe lost a few mates"

9E7E "\n"

9ECC "\nThis is the end\n\nfor us!"
9EE6 " Glory to\n\n"
9EF2 "!"
9EF4 "All hands aided in\nour success!"
9F14 ""
9F15 "\n"
9F17 "\nOn "
9F1C " "
9F1E ", "
9F21 ",\n\nCaptain "
9F2D "\n\n"
9F30 "lost his life in a\n\nstormy battle at sea"