PAGE C5
ROM: 00A010 - 00C00F
----------------------------------------------------
Function $8000 -> Jump to main page function

8000 JMP $8C63
----------------------------------------------------
     00 01 02 03 04 05 06 07 08 09 0A 0B 0C 0D 0E 0F
8000          20 BF E4 FE FF 0C D2 D2 8C BC 6F BB 2B 
8010 63 E9 E1 CF 02 72 B3 0B 72 D3 B3 E9 6C DD 04 B3 
8020 0B 72 B4 B3 D3 BC D4 CF 

Function $8003 (FE FF) -> Reduces hostility of nation <00> by [RNG 02-05]
Args:
<0C> Nation #?

8008 0C
8009 D2
800A D2
800B 8C BC 6F    / $6FBC 
800E BB
800F 2B          / Nation stats

8010 63
8011 E9 E1 CF 02 / Call $CFE1 -> RNG 00-02
8015 72
8016 B3          / RNG 02-05
8017 0B
8018 72
8019 D3          / Hostility
801A B3
801B E9 6C DD 04 / Call $DD6C -> Get smaller of two values
801F B3
8020 0B
8021 72
8022 B4         
8023 B3         
8024 D3          
8025 BC
8026 D4
8027 CF
----------------------------------------------------
     00 01 02 03 04 05 06 07 08 09 0A 0B 0C 0D 0E 0F
8020                         20 BF E4 F6 FF 0C 54 BD 
8030 8C 62 66 BB 29 09 7F D3 58 DA D7 3E 80 CF 8E F7 
8040 00 09 7F B4 B3 D3 DA D4 0C 8F 14 57 B5 8C 42 65 
8050 BB 2B 8A 42 65 2A 3B 0C D1 55 B8 B3 E9 75 8C 04 
8060 0B 72 B3 8D 32 0A 72 D3 B3 65 E9 E1 CF 02 B4 BB 
8070 B3 E9 6C DD 04 D4 0B 73 B3 8D 32 0A 73 D3 B3 65 
8080 E9 E1 CF 02 B4 BB B3 E9 6C DD 04 D4 0C 8C D4 A0 
8090 BB B3 E9 0C D3 02 8B 13 B5 8C D8 AF BB 28 39 08 
80A0 7F B3 E9 0C D3 02 D4 09 D0 B3 08 8F 10 B3 E9 0C 
80B0 D3 02 D4 09 72 B3 08 8F 11 B3 E9 0C D3 02 D4 09 
80C0 73 B3 08 8F 12 B3 E9 0C D3 02 D4 0B 74 B3 0C D1 
80D0 55 B8 B3 E9 D1 DA 02 B1 0C D1 8B 33 B5 8C 08 60 
80E0 BB B3 44 D4 09 7B B3 40 B1 8E 00 80 09 7D B4 B3 
80F0 B0 DA B1 0C D1 8B 33 B5 8C 04 60 BB 27 07 75 B3 
8100 0C 8C D4 A0 BB B3 E9 0C D3 02 D4 07 74 B3 44 D4 
8110 07 77 B3 40 B1 CF 

Function $8028 (F6 FF)

802D 0C
802E 54
802F BD
8030 8C 62 66    / $6662
8033 BB
8034 29

8035 09
8036 7F
8037 D3
8038 58
8039 DA
803A D7 3E 80

if
{
	803D CF
}

803E 8E F7 00
8041 09
8042 7F
8043 B4
8044 B3
8045 D3
8046 DA
8047 D4

8048 0C
8049 8F 14
804B 57
804C B5
804D 8C 42 65    / $6542
8050 BB
8051 2B

8052 8A 42 65    / $6542
8055 2A

8056 3B
8057 0C
8058 D1
8059 55
805A B8
805B B3
805C E9 75 8C 04 / Call $8C75

8060 0B
8061 72
8062 B3
8063 8D 32
8065 0A
8066 72
8067 D3
8068 B3
8069 65
806A E9 E1 CF 02 / Call $CFE1 -> RNG [00-04]
806E B4
806F BB
8070 B3
8071 E9 6C DD 04 / Call $DD6C -> Get smaller of two values
8075 D4

8076 0B
8077 73
8078 B3
8079 8D 32
807B 0A
807C 73
807D D3
807E B3
807F 65
8080 E9 E1 CF 02 / Call $CFE1 -> RNG [00-04]
8084 B4
8085 BB
8086 B3
8087 E9 6C DD 04 / Call $DD6C -> Get smaller of two values
808B D4

808C 0C
808D 8C D4 A0    / $A0D4 (Port of origin for Ship ID x)
8090 BB
8091 B3
8092 E9 0C D3 02 / Call $D30C (Get byte from page FA)
8096 8B 13
8098 B5
8099 8C D8 AF    / $AFD8 (City data)
809C BB
809D 28

809E 39
809F 08
80A0 7F
80A1 B3
80A2 E9 0C D3 02 / Call $D30C (Get byte from page FA)
80A6 D4

80A7 09
80A8 D0
80A9 B3
80AA 08
80AB 8F 10
80AD B3
80AE E9 0C D3 02 / Call $D30C (Get byte from page FA)
80B2 D4

80B3 09
80B4 72
80B5 B3
80B6 08
80B7 8F 11
80B9 B3
80BA E9 0C D3 02 / Call $D30C -> Get byte
80BE D4

80BF 09
80C0 73
80C1 B3
80C2 08
80C3 8F 12
80C5 B3
80C6 E9 0C D3 02 / Call $D30C -> Get byte
80CA D4

80CB 0B
80CC 74
80CD B3
80CE 0C
80CF D1
80D0 55
80D1 B8
80D2 B3
80D3 E9 D1 DA 02 / Call $DAD1
80D7 B1

80D8 0C
80D9 D1
80DA 8B 33
80DC B5
80DD 8C 08 60 .. / $6008 (target type)
80E0 BB
80E1 B3
80E2 44
80E3 D4

80E4 09
80E5 7B
80E6 B3
80E7 40
80E8 B1

80E9 8E 00 80
80EC 09
80ED 7D
80EE B4
80EF B3
80F0 B0
80F1 DA
80F2 B1

80F3 0C
80F4 D1
80F5 8B 33
80F7 B5
80F8 8C 04 60
80FC 27

80FD 07
80FE 75
80FF B3
8100 0C
8101 8C D4 A0 .. / $A0D4
8104 BB
8105 B3
8106 E9 0C D3 02 / Call $D30C -> Get byte
810A D4

810B 07
810C 74
810D B3
810E 44
810F D4

8110 07
8111 77
8112 B3
8113 40
8114 B1

8115 CF
----------------------------------------------------
     00 01 02 03 04 05 06 07 08 09 0A 0B 0C 0D 0E 0F
8110                   20 BF E4 EC FF 0C 8B 23 B5 8C 
8120 90 6C BB 2A 8F 23 29 D6 36 81 0A 76 D3 8B 40 DA 
8130 D8 3C 81 0A 77 2A 0A 19 C6 D7 2A 81 0C D1 55 B8 
8140 D2 8C 05 A0 BB B3 E9 0C D3 02 5E B5 8C B2 67 BB 
8150 27 63 E9 E1 CF 02 77 2B 0A 76 B3 40 D4 0A 76 B3 
8160 0B 8B 50 DB D4 3B E9 32 D5 02 28 3B E9 32 D5 02 
8170 8F 14 B3 E9 0C D3 02 55 BE 57 DA 26 3B E9 32 D5 
8180 02 8F 14 B3 E9 0C D3 02 53 DA 25 3B E9 32 D5 02 
8190 8F 14 B3 E9 0C D3 02 52 BE 53 DA 24 3B E9 32 D5 
81A0 02 8F 14 B3 E9 0C D3 02 54 BE 51 DA 23 3A 05 5A 
81B0 B5 B3 06 5A B5 B4 BB 8F 14 D4 0A D0 B3 44 13 BC 
81C0 B3 4A 14 BC B3 89 14 16 BC 8B 64 B5 8B 14 B6 B4 
81D0 B5 5A B6 B4 B5 54 B6 D4 0A 72 B3 03 73 B3 4A 16 
81E0 BC B3 04 5A B5 8F 64 B4 B5 5A B6 B4 B5 54 B6 D4 
81F0 0A 72 B3 8D 64 0A 72 D3 B3 E9 6C DD 04 D4 0A 73 
8200 B3 08 8F 11 B3 E9 0C D3 02 D4 08 7F B3 E9 26 D3 
8210 02 22 0A 74 B3 02 52 B6 B3 07 B0 8C FA 00 B6 B3 
8220 02 58 B6 B4 B5 B4 BB B1 CF 

Functon $8116 (FC FF)
Args:
<0C> ?

811B 0C
811C 8B 23
811E B5
811F 8C 90 6C    / $6C90 (array, entry size 7)
8122 BB
8123 2A
8124 8F 23
8126 29
8127 D6 36 81

Loop:
	812A 0A
	812B 76
	812C D3
	812D 8B 40
	812F DA
	8130 D8 3C 81    / break
	
	8133 0A
	8134 77
	8135 2A
	
Bounds check:
	8136 0A
	8137 19
	8138 C6
	8139 D7 2A 81
	
813C 0C
813D D1
813E 55
813F B8
8140 D2
8141 8C 05 A0
8144 BB
8145 B3
8146 E9 0C D3 02 / Call $D30C (get byte from Page FA)
814A 5E
814B B5
814C 8C B2 67    / $67B2
814F BB
8150 27          / current_city

8151 63
8152 E9 E1 CF 02 / Call $CFE1 -> RNG 00-02
8156 77
8157 2B

8158 0A
8159 76
815A B3
815B 40
815C D4

815D 0A

     00 01 02 03 04 05 06 07 08 09 0A 0B 0C 0D 0E 0F
8150 27 63 E9 E1 CF 02 77 2B 0A 76 B3 40 D4 0A 76 B3 
8160 0B 8B 50 DB D4 3B E9 32 D5 02 28 3B E9 32 D5 02 
8170 8F 14 B3 E9 0C D3 02 55 BE 57 DA 26 3B E9 32 D5 
8180 02 8F 14 B3 E9 0C D3 02 53 DA 25 3B E9 32 D5 02 
8190 8F 14 B3 E9 0C D3 02 52 BE 53 DA 24 3B E9 32 D5 
81A0 02 8F 14 B3 E9 0C D3 02 54 BE 51 DA 23 3A 05 5A 
81B0 B5 B3 06 5A B5 B4 BB 8F 14 D4 0A D0 B3 44 13 BC 
81C0 B3 4A 14 BC B3 89 14 16 BC 8B 64 B5 8B 14 B6 B4 
81D0 B5 5A B6 B4 B5 54 B6 D4 0A 72 B3 03 73 B3 4A 16 
81E0 BC B3 04 5A B5 8F 64 B4 B5 5A B6 B4 B5 54 B6 D4 
81F0 0A 72 B3 8D 64 0A 72 D3 B3 E9 6C DD 04 D4 0A 73 
8200 B3 08 8F 11 B3 E9 0C D3 02 D4 08 7F B3 E9 26 D3 
8210 02 22 0A 74 B3 02 52 B6 B3 07 B0 8C FA 00 B6 B3 
8220 02 58 B6 B4 B5 B4 BB B1 CF 
----------------------------------------------------
     00 01 02 03 04 05 06 07 08 09 0A 0B 0C 0D 0E 0F
8220                            20 BF E4 EE FF 0C D2 
8230 D2 8C BC 6F BB 23 03 B0 8B 64 B8 D0 2A 0A D7 42 
8240 82 CF 0C 55 B5 D0 2C 40 29 40 D6 70 82 DE F7 FF 
8250 B3 0B B4 BB B3 DE F2 FF B3 0C 1B BB B3 E9 26 D0 
8260 04 D4 DE F7 FF B3 0B B4 BB D3 CD 09 BB 29 0B D0 
8270 2B 0B 53 C6 D7 4D 82 09 5F C0 D8 7E 82 CF DE F7 
8280 FF 24 40 D6 BF 82 04 D3 55 C6 D8 BA 82 04 D3 D7 
8290 9A 82 0C 1B BB B3 E9 28 80 02 0C 1B BB B3 E9 16 
82A0 81 02 34 DE F2 FF B3 0C 1B BB B3 E9 26 D0 04 D4 
82B0 09 D0 29 0A D1 2A 0A D8 C6 82 04 D0 24 0B D0 2B 
82C0 0B 53 C6 D7 86 82 09 5F C6 D8 D0 82 0A D7 7E 82 
82D0 CF 

Function $8229 (EE FF)
Args:
<0C> Nation #

822E 0C
822F D2
8230 D2
8231 8C BC 6F    / $6FBC
8234 BB
8235 23

8236 03
8237 B0
8238 8B 64
823A B8
823B D0
823C 2A          / (Revenue/100) + 1

823D 0A
823E D7 42 82

if
{
	8241 CF
}

8242 0C
8243 55
8244 B5
8245 D0
8246 2C

8247 40
8248 29

8249 40
824A D6 70 82

Loop:
	824D DE F7 FF
	8250 B3
	8251 0B
	8252 B4
	8253 BB
	8254 B3
	8255 DE F2 FF
	8258 B3
	8259 0C
	825A 1B
	825B BB
	825C B3
	825D E9 26 D0 04 / Call $D026
	8261 D4
	8262 DE F7 FF
	8265 B3
	8266 0B
	8267 B4
	8268 BB
	8269 D3
	826A CD
	826B 09
	826C BB
	826D 29
	826E 0B
	826F D0
Bounds check:
	8270 2B
	8271 0B
	8272 53
	8273 C6
	8274 D7 4D 82
	
8277 09
8278 5F
8279 C0
827A D8 7E 82

if
{
	827D CF
}

827E DE F7 FF
8281 24

8282 40
8283 D6 BF 82

Loop:
	8286 04
	8287 D3
	8288 55
	8289 C6
	828A D8 BA 82
	
	if
	{
		828D 04
		828E D3
		828F D7 9A 82
		
		if
		{
			8292 0C
			8293 1B
			8294 BB
			8295 B3
			8296 E9 28 80 02 / Call $8028
		}
		
		829A 0C
		829B 1B
		829C BB
		829D B3
		829E E9 16 81 02 / Call $8116
		
		82A2 34
		82A3 DE F2 FF
		82A6 B3
		82A7 0C
		82A8 1B
		82A9 BB
		82AA B3
		82AB E9 26 D0 04 / Call $D026
		82AF D4
		
		82B0 09
		82B1 D0
		82B2 29
		
		82B3 0A
		82B4 D1
		82B5 2A
		
		82B6 0A
		82B7 D8 C6 82
	}
	
	82BA 04
	82BB D0
	82BC 24
	
	82BD 0B
	82BE D0
Bounds check:
	82BF 2B
	82C0 0B
	82C1 53
	82C2 C6
	82C3 D7 86 82
	
82C6 09
82C7 5F
82C8 C6
82C9 D8 D0 82

if
{
	82CC 0A
	82CD D7 7E 82
}

82D0 CF
----------------------------------------------------
     00 01 02 03 04 05 06 07 08 09 0A 0B 0C 0D 0E 0F
82D0    20 BF E4 F4 FF 0C 8B 23 B5 8C 90 6C BB 2A 8F 
82E0 23 29 D6 F1 82 0A 76 D3 8B 40 DA D8 F7 82 0A 77 
82F0 2A 0A 19 C6 D7 E5 82 0C D1 55 B8 D2 8C 05 A0 BB 
8300 B3 E9 0C D3 02 5E B5 8C B2 67 BB 27 62 E9 E1 CF
8310 02 79 2B 0A 76 B3 40 D4 0A 76 B3 0B 8B 40 DB D4 
8320 62 E9 E1 CF 02 72 54 BD B3 0A 76 B4 B3 D3 DB D4 
8330 3B E9 32 D5 02 28 3A 3B E9 32 D5 02 8F 14 B3 E9 
8340 0C D3 02 53 DA 5A B5 B3 3B E9 32 D5 02 8F 14 B3 
8350 E9 0C D3 02 55 BE 57 DA 5A B5 B4 BB 8F 14 D4 0A 
8360 D0 B3 3B E9 32 D5 02 8F 14 B3 E9 0C D3 02 54 BE 
8370 51 DA B3 44 B4 BC B3 3B E9 32 D5 02 8F 14 B3 E9 
8380 0C D3 02 52 BE 53 DA B3 4A B4 BC B3 3B E9 32 D5 
8390 02 8F 14 B3 E9 0C D3 02 55 BE 57 DA B3 89 14 B4 
83A0 BC 8B 64 B5 8B 14 B6 B4 B5 5A B6 B4 B5 54 B6 D4 
83B0 0A 72 B3 3B E9 32 D5 02 8F 14 B3 E9 0C D3 02 54 
83C0 BE 51 DA 73 B3 3B E9 32 D5 02 8F 14 B3 E9 0C D3 
83D0 02 55 BE 57 DA B3 4A B4 BC B3 3B E9 32 D5 02 8F 
83E0 14 B3 E9 0C D3 02 52 BE 53 DA 5A B5 8F 64 B4 B5 
83F0 5A B6 B4 B5 54 B6 D4 0A 72 B3 8D 64 0A 72 D3 B3 
8400 E9 6C DD 04 D4 0A 73 B3 08 8F 11 B3 E9 0C D3 02 
8410 D4 08 7F B3 E9 26 D3 02 26 0A 74 B3 06 52 B6 B3 
8420 07 B0 8C FA 00 B6 B3 06 58 B6 B4 B5 B4 BB B1 CF 

Function $82D1 (F4 FF)
Args:
<0C>

82D6 0C
82D7 8B 23
82D9 B5
82DA 8C 90 6C    / $6C90
82DD BB
82DE 2A
82DF 8F 23
82E1 29
82E2 D6 F1 82

82E5 0A
82E6 76
82E7 D3
82E8 8B 40
82EA DA
82EB D8 F7 82

82EE 0A
82EF 77
82F0 2A

82F1 0A
82F2 19
82F3 C6
82F4 D7 E5 82

82F7 0C
82F8 D1
82F9 55
82FA B8
82FB D2
82FC 8C 05 A0
82FF BB
8300 B3
8301 E9 0C D3 02 / Call $D30C
8305 5E
8306 B5
8307 8C B2 67    / $67B2
830A BB
830B 27

830C 62
830D E9 E1 CF 02 / Call $CFE1 -> [RNG 00-01]
8311 79
8312 2B

8313 

     00 01 02 03 04 05 06 07 08 09 0A 0B 0C 0D 0E 0F
8310 02 79 2B 0A 76 B3 40 D4 0A 76 B3 0B 8B 40 DB D4 
8320 62 E9 E1 CF 02 72 54 BD B3 0A 76 B4 B3 D3 DB D4 
8330 3B E9 32 D5 02 28 3A 3B E9 32 D5 02 8F 14 B3 E9 
8340 0C D3 02 53 DA 5A B5 B3 3B E9 32 D5 02 8F 14 B3 
8350 E9 0C D3 02 55 BE 57 DA 5A B5 B4 BB 8F 14 D4 0A 
8360 D0 B3 3B E9 32 D5 02 8F 14 B3 E9 0C D3 02 54 BE 
8370 51 DA B3 44 B4 BC B3 3B E9 32 D5 02 8F 14 B3 E9 
8380 0C D3 02 52 BE 53 DA B3 4A B4 BC B3 3B E9 32 D5 
8390 02 8F 14 B3 E9 0C D3 02 55 BE 57 DA B3 89 14 B4 
83A0 BC 8B 64 B5 8B 14 B6 B4 B5 5A B6 B4 B5 54 B6 D4 
83B0 0A 72 B3 3B E9 32 D5 02 8F 14 B3 E9 0C D3 02 54 
83C0 BE 51 DA 73 B3 3B E9 32 D5 02 8F 14 B3 E9 0C D3 
83D0 02 55 BE 57 DA B3 4A B4 BC B3 3B E9 32 D5 02 8F 
83E0 14 B3 E9 0C D3 02 52 BE 53 DA 5A B5 8F 64 B4 B5 
83F0 5A B6 B4 B5 54 B6 D4 0A 72 B3 8D 64 0A 72 D3 B3 
8400 E9 6C DD 04 D4 0A 73 B3 08 8F 11 B3 E9 0C D3 02 
8410 D4 08 7F B3 E9 26 D3 02 26 0A 74 B3 06 52 B6 B3 
8420 07 B0 8C FA 00 B6 B3 06 58 B6 B4 B5 B4 BB B1 CF 
----------------------------------------------------
     00 01 02 03 04 05 06 07 08 09 0A 0B 0C 0D 0E 0F
8430 20 BF E4 F0 FF 0C D2 D2 8C BC 6F BB 24 04 B0 8C 
8440 96 00 B8 D0 2B 0C 55 B5 74 2C 0B D7 4F 84 CF 40 
8450 2A 40 D6 78 84 DE F7 FF B3 09 B4 BB B3 DE F2 FF 
8460 B3 0C 19 BB B3 E9 26 D0 04 D4 DE F7 FF B3 09 B4 
8470 BB D3 CD 0A BB 2A 09 D0 29 09 52 C6 D7 55 84 0A 
8480 5A C0 D8 86 84 CF 40 29 DE F7 FF B3 09 B4 BB D3 
8490 55 C6 D8 CF 84 DE F7 FF B3 09 B4 BB D3 D7 A8 84 
84A0 0C 19 BB B3 E9 28 80 02 0C 19 BB B3 E9 D1 82 02 
84B0 DE F7 FF B3 09 B4 BB B3 DE F2 FF B3 0C 19 BB B3 
84C0 E9 26 D0 04 D4 0A D0 2A 0B D1 2B 0B D8 D8 84 09 
84D0 D0 29 09 52 C6 D7 88 84 0A 5A C6 D8 E2 84 0B D7 
84E0 86 84 CF 

Function $8430

8435 0C
8436 D2
8437 D2
8438 8C BC 6F
843B BB
843C 24

843D 04
843E B0
843F 8C 96 00
8442 B8
8443 D0
8444 2B

8445 0C
8446 55
8447 B5
8448 74
8449 2C

844A 0B
844B D7 4F 84

	844E CF

844F 40
8450 2A

8451 40
8452 D6 78 84

8455 DE F7 FF
8458 B3
8459 09
845A B4
845B BB
845C B3
845D DE F2 FF
8460 B3
8461 0C
8462 19
8463 BB
8464 B3
8465 E9 26 D0 04 / Call $D026
8469 D4

846A DE F7 FF
846D B3
846E 09
846F B4
8470 BB
8471 D3
8472 CD
8473 0A
8474 BB
8475 2A
8476 09
8477 D0

8478 29
8479 09
847A 52
847B C6
847C D7 55 84

847F 0A
8480 5A
8481 C0
8482 D8 86 84

	8485 CF

8486 40
8487 29

8488 DE F7 FF
848B B3
848C 09
848D B4
848E BB
848F D3
8490 55
8491 C6
8492 D8 CF 84

8495 DE F7 FF
8498 B3
8499 09
849A B4
849B BB
849C D3
849D D7 A8 84

	84A0 0C
	84A1 19
	84A2 BB
	84A3 B3
	84A4 E9 28 80 02 / Call $8028

84A8 0C
84A9 19
84AA BB
84AB B3
84AC E9 D1 82 02 / Call $82D1
84B0 DE F7 FF
84B3 B3
84B4 09
84B5 B4
84B6 BB
84B7 B3
84B8 DE F2 FF
84BB B3
84BC 0C
84BD 19
84BE BB
84BF B3
84C0 E9 26 D0 04 / Call $D026
84C4 D4

84C5 0A
84C6 D0
84C7 2A

84C8 0B
84C9 D1
84CA 2B

84CB 0B
84CC D8 D8 84

84CF 09
84D0 D0
84D1 29

84D2 09
84D3 52
84D4 C6
84D5 D7 88 84

84D8 0A
84D9 5A
84DA C6
84DB D8 E2 84

84DE 0B
84DF D7 86 84

84E2 CF
----------------------------------------------------
     00 01 02 03 04 05 06 07 08 09 0A 0B 0C 0D 0E 0F
84E0          20 BF E4 F8 FF 0C 8B 23 B5 8C 90 6C BB 
84F0 2A 8F 23 29 D6 03 85 0A 76 D3 8B 40 DA D8 09 85 
8500 0A 77 2A 0A 19 C6 D7 F7 84 63 E9 E1 CF 02 78 2B 
8510 0A 76 B3 40 D4 0A 76 B3 0B 8B 40 DB D4 62 E9 E1 
8520 CF 02 72 54 BD B3 0A 76 B4 B3 D3 DB D4 3B E9 32 
8530 D5 02 28 3A 3B E9 32 D5 02 8F 14 B3 E9 0C D3 02 
8540 53 DA 5A B5 B3 3B E9 32 D5 02 8F 14 B3 E9 0C D3 
8550 02 55 BE 57 DA 5A B5 B4 BB 8F 14 D4 0A D0 B3 3B 
8560 E9 32 D5 02 8F 14 B3 E9 0C D3 02 54 BE 51 DA B3 
8570 44 B4 BC B3 3B E9 32 D5 02 8F 14 B3 E9 0C D3 02 
8580 52 BE 53 DA B3 4A B4 BC B3 3B E9 32 D5 02 8F 14 
8590 B3 E9 0C D3 02 55 BE 57 DA B3 89 14 B4 BC 8B 64 
85A0 B5 8B 14 B6 B4 B5 5A B6 B4 B5 54 B6 D4 0A 72 B3 
85B0 3B E9 32 D5 02 8F 14 B3 E9 0C D3 02 54 BE 51 DA 
85C0 73 B3 3B E9 32 D5 02 8F 14 B3 E9 0C D3 02 55 BE 
85D0 57 DA B3 4A B4 BC B3 3B E9 32 D5 02 8F 14 B3 E9 
85E0 0C D3 02 52 BE 53 DA 5A B5 8F 64 B4 B5 5A B6 B4
85F0 B5 54 B6 D4 0A 72 B3 8D 64 0A 72 D3 B3 E9 6C DD
8600 04 D4 0A 73 B3 08 8F 11 B3 E9 0C D3 02 D4 0A 74 
8610 B3 08 7F B3 E9 26 D3 02 B1 CF 
----------------------------------------------------
     00 01 02 03 04 05 06 07 08 09 0A 0B 0C 0D 0E 0F
8610                               20 BF E4 EC FF 43 
8620 2A 0A D2 D2 8C BC 6F BB 22 45 29 0A 55 B5 D0 2A 
8630 40 28 40 D6 59 86 DE EE FF B3 0B B4 BB B3 DE F3 
8640 FF B3 0A 1B BB B3 E9 26 D0 04 D4 DE EE FF B3 0B 
8650 B4 BB D3 CD 08 BB 28 0B D0 2B 0B 55 C6 D7 36 86 
8660 08 8B 19 C0 D8 68 86 CF 40 2B DE EE FF B3 0B B4 
8670 BB D3 55 C6 D8 B1 86 DE EE FF B3 0B B4 BB D3 D7 
8680 8A 86 0A 1B BB B3 E9 28 80 02 0A 1B BB B3 E9 E3 
8690 84 02 DE EE FF B3 0B B4 BB B3 DE F3 FF B3 0A 1B 
86A0 BB B3 E9 26 D0 04 D4 08 D0 28 09 D1 29 09 D8 BA 
86B0 86 0B D0 2B 0B 55 C6 D7 6A 86 08 8B 19 C6 D8 C5 
86C0 86 09 D7 68 86 CF 

Function $861A (EC FF)

861F 43
8620 2A

8621 0A
8622 D2
8623 D2
8624 8C BC 6F    / $6FBC
8627 BB
8628 22

8629 45
862A 29

862B 0A
862C 55
862D B5
862E D0
862F 2A

8630 40
8631 28

8632 40
8633 D6 59 86

Loop:
	8636 DE EE FF
	8639 B3
	863A 0B
	863B B4
	863C BB
	863D B3
	863E DE F3 FF
	8641 B3
	8642 0A
	8643 1B
	8644 BB
	8645 B3
	8646 E9 26 D0 04 / Call $D026 -> Assemble list of goods?
	864A D4
	864B DE EE FF
	864E B3
	864F 0B
	8650 B4
	8651 BB
	8652 D3
	8653 CD
	8654 08
	8655 BB
	8656 28
	8657 0B
	8658 D0

Bounds check:
	8659 2B
	865A 0B
	865B 55
	865C C6
	865D D7 36 86
	
8660 08
8661 8B 19
8663 C0
8664 D8 68 86

if
	8667 CF

8668 40
8669 2B

866A DE EE FF
866D B3
866E 0B
866F B4
8670 BB
8671 D3
8672 55
8673 C6
8674 D8 B1 86

if
	8677 DE EE FF
	867A B3
	867B 0B
	867C B4
	867D BB
	867E D3
	867F D7 8A 86
	
	if
		8682 0A
		8683 1B
		8684 BB
		8685 B3
	
	868A

86B1
	
     00 01 02 03 04 05 06 07 08 09 0A 0B 0C 0D 0E 0F
8680 8A 86 0A 1B BB B3 E9 28 80 02 0A 1B BB B3 E9 E3 
8690 84 02 DE EE FF B3 0B B4 BB B3 DE F3 FF B3 0A 1B 
86A0 BB B3 E9 26 D0 04 D4 08 D0 28 09 D1 29 09 D8 BA 
86B0 86 0B D0 2B 0B 55 C6 D7 6A 86 08 8B 19 C6 D8 C5 
86C0 86 09 D7 68 86 CF 
----------------------------------------------------
     00 01 02 03 04 05 06 07 08 09 0A 0B 0C 0D 0E 0F
86C0                   20 BF E4 ED FF 0C D2 D2 8C BC 
86D0 6F BB 85 EF 8D 64 E9 E1 CF 02 B3 81 EF 72 D3 B4 
86E0 C8 D8 EB 86 81 EF 73 B3 44 D4 CF 48 1C BE B3 0C 
86F0 D2 D2 B3 A4 99 6B B4 BE B4 DB 51 BE 5F DA 85 F9 
8700 40 85 F5 85 F7 D6 2D 87 DE FD FF B3 42 83 F5 BC 
8710 B4 BB B3 81 F9 51 DA D4 81 F9 51 DA CD 81 F7 BB 
8720 85 F7 81 F9 51 BE 85 F9 81 F5 D0 85 F5 81 F5 53 
8730 C6 D7 08 87 8A 8D 6B 85 FB 81 F7 D9 02 00 03 00 
8740 48 87 02 00 50 87 9E 87 81 EF 73 B3 43 D6 E9 86 
8750 41 85 ED 40 D6 88 87 DE FD FF B3 81 F5 B4 BB D3 
8760 D7 85 87 0C D2 D2 83 F5 BB 8C 2E 9A BB D3 83 FB 
8770 BB D3 8B 33 C6 D8 85 87 81 EF 73 B3 81 F5 D4 40 
8780 85 ED D6 91 87 81 F5 D0 85 F5 81 F5 53 C6 D7 57 
8790 87 81 ED D8 EA 86 81 EF 73 B3 45 D6 E9 86 8A C8 
87A0 00 85 F3 40 85 F5 85 F1 D6 E3 87 81 F5 1C C1 D8 
87B0 DE 87 0C D2 D2 83 F5 BB 8C 2E 9A BB D3 83 FB BB 
87C0 D3 B3 81 F3 B4 C8 D8 DE 87 0C D2 D2 83 F5 BB 8C 
87D0 2E 9A BB D3 83 FB BB D3 85 F3 81 F5 85 F1 81 F5 
87E0 D0 85 F5 81 F5 54 C6 D7 AB 87 0C D2 8C 04 A0 BB 
87F0 B3 E9 0C D3 02 B3 44 B4 BC D2 D2 8F 1E B3 81 F3 
8800 B4 C6 D8 0E 88 81 EF 73 B3 81 F1 D6 E9 86 0C 53 
8810 C1 D7 96 87 64 E9 E1 CF 02 85 F5 81 EF 73 B3 81 
8820 F5 53 C0 D7 9A 87 81 F5 D6 E9 86
----------------------------------------------------
     00 01 02 03 04 05 06 07 08 09 0A 0B 0C 0D 0E 0F
8820                                  20 BF E4 00 00 
8830 0C 53 C0 D8 3C 88 AC 1A 86 D6 46 88 3C E9 29 82 
8840 02 3C E9 30 84 02 3C E9 C6 86 02 CF 

Function $882B (00 00)
Args:
<0C> Nation #

8830 0C
8831 53
8832 C0
8833 D8 3C 88

if
	8836 AC 1A 86    / Call $861A
	8839 D6 46 88
else
	883C 3C 
	883D E9 29 82 03 / Call $8229
	8841 3C
	8842 E9 30 84 02 / Call $8430
	
8846 3C
8847 E9 C6 86 02 / Call $86C6

884B CF
----------------------------------------------------
     00 01 02 03 04 05 06 07 08 09 0A 0B 0C 0D 0E 0F
8840                                     20 BF E4 00 
8850 00 A5 74 6F B3 A4 BC 6F 8B 32 B8 B3 6F E9 E1 CF 
8860 02 B4 BB B4 B5 CD A4 CC 6F BB A8 CC 6F 8E 10 27 
8870 AA CC 6F E9 6C DD 04 A8 CC 6F A5 74 6F B3 65 E9 
8880 E1 CF 02 B3 8E 05 A0 E9 0C D3 02 5E B5 8C B4 67 
8890 BB B0 8B 32 B8 B4 BB B4 B5 CD A4 CE 6F BB A8 CE 
88A0 6F 8E E8 03 AA CE 6F E9 6C DD 04 A8 CE 6F 62 E9 
88B0 E1 CF 02 B3 A5 74 6F B3 49 B4 BC B4 BB B3 A5 40 
88C0 65 B3 E9 6C DD 04 CD A5 40 65 BC A9 40 65 CF 

Function $884C (00 00)

8851 A5 74 6F    / $6F74 (Rank)
8854 B3
8855 A4 BC 6F    / $6FBC (Portugal Revenue)
8858 8B 32
885A B8          / Revenue / 50
885B B3
885C 6F
885D E9 E1 CF 02 / Call $CFE1 -> RNG 00-14
8861 B4
8862 BB          / 
8863 B4
8864 B5
8865 CD
8866 A4 CC 6F    / $6FCC
8869 BB
886A A8 CC 6F    / Increase $6FCC by Rank*( (Revenue/50)+RNG(15) )

886D 8E 10 27    / 10000
8870 AA CC 6F
8873 E9 6C DD 04 / Call $DD6C -> Get smaller of two values
8877 A8 CC 6F

887A A5 74 6F    / $6F74 (Rank)
887D B3
887E 65
887F E9 E1 CF 02 / Call $CFE1 -> RNG 00-04
8883 B3
8884 8E 05 A0    / $A005 (0)
8887 E9 0C D3 02 / Call $D30C -> Get byte 
888B 5E
888C B5
888D 8C B4 67    / $67B4
8890 BB
8891 B0
8892 8B 32
8894 B8
8895 B4
8896 BB
8897 B4
8898 B5
8899 CD
889A A4 CE 6F    / $6FCE
889D BB
889E A8 CE 6F

88A1 8E E8 03
88A4 AA CE 6F    / $6FCE
88A7 E9 6C DD 04 / Call $DD6C -> Get smaller value
88AB A8 CE 6F

88AE 62
88AF E9 E1 CF 02 / Call $CFE1 -> RNG 00-01
88B3 B3
88B4 A5 74 6F    / $6F74 (Rank)
88B7 B3
88B8 49
88B9 B4
88BA BC
88BB B4
88BC BB
88BD B3
88BE A5 40 65    / $6540
88C1 B3
88C2 E9 6C DD 04 / Call $DD6C -> Get smaller value
88C6 CD
88C7 A5 40 65
88CA BC
88CB A9 40 65
88CE CF 
----------------------------------------------------
     00 01 02 03 04 05 06 07 08 09 0A 0B 0C 0D 0E 0F
88C0                                              20 
88D0 BF E4 FE FF 0C D2 8C 05 A0 BB B3 E9 0C D3 02 5E 
88E0 B5 8C B2 67 BB 2B 0B B0 B3 0B 74 B0 B3 0C D2 D2 
88F0 8C BC 6F BB B0 8B 32 B8 B4 BB B4 BB CF 

Function $88CF (FE FF) -> Return (Revenue/50) + EconomicWorth + IndustrialWorth of Nation <00>
Args:
<0C> Nation #

88D4 0C
88D5 D2
88D6 8C 05 A0
88D9 BB
88DA B3
88DB E9 0C D3 02 / Call $D30C (Capital port # from page FA)
88DF 5E
88E0 B5
88E1 8C B2 67    / $67B2 (Port stats)
88E4 BB
88E5 2B          / Port stats

88E6 0B
88E7 B0
88E8 B3          / Economic Worth

88E9 0B
88EA 74
88EB B0
88EC B3          / Industrial Worth

88ED 0C
88EE D2
88EF D2
88F0 8C BC 6F    / $6FBC
88F3 BB
88F4 B0
88F5 8B 32
88F7 B8          / (Revenue / 50)
88F8 B4
88F9 BB
88FA B4
88FB BB

88FC CF 
----------------------------------------------------
     00 01 02 03 04 05 06 07 08 09 0A 0B 0C 0D 0E 0F
88F0                                        20 BF E4
8900 F2 FF 8A 8D 6B 2B 8A 93 6B 29 0C D2 D2 1D BB 8C 
8910 2E 9A BB D3 1B BB D3 8B 28 C6 D8 26 8B 48 1D BE 
8920 B3 0C D2 D2 B3 A4 99 6B B4 BE B4 DA D8 68 89 0C 
8930 D2 D2 B3 48 1D BE B4 BD 8B FF DC CD A4 99 6B DA 
8940 A8 99 6B 0D D2 D2 B3 48 1C BE B4 BD 8B FF DC CD 
8950 A4 99 6B DA A8 99 6B 0C 53 B5 1D BB 8C 3E 9A BB 
8960 D3 19 BB B3 46 D6 1B 8C 3C E9 CF 88 02 26 3D E9 
8970 CF 88 02 25 06 15 C4 D8 DB 8A 48 1D BE B3 0C D2 
8980 D2 B3 A4 9B 6B B4 BE B4 DA D8 54 8A 0C 53 B5 1D 
8990 BB 8C 3E 9A BB D3 19 BB B3 40 D4 3D E9 BA 8D 02 
89A0 28 05 53 B5 52 B6 B3 06 B4 C4 D8 1C 8C 8D 64 E9 
89B0 E1 CF 02 B3 0C D2 D2 1D BB 8C 2E 9A BB D3 1B BB 
89C0 D3 B3 0C D2 8C 04 A0 BB B3 E9 0C D3 02 5A B5 B4 
89D0 BB B4 C6 D8 1C 8C 08 D8 1C 8C 08 5E B5 8C BA 67 
89E0 BB 2A 40 27 0A 17 BB B3 07 1C C0 D8 F3 89 89 50 
89F0 D6 F4 89 40 D4 07 D0 27 07 53 C6 D7 E4 89 8E FC 
8A00 00 08 8C 76 6F BB B4 B3 D3 DA D4 0C D0 B3 08 8C 
8A10 76 6F BB B4 B3 D3 DB D4 0C D2 D2 1D BB 8C 2E 9A 
8A20 BB D3 1B BB B3 8D 64 0C D2 D2 1D BB 8C 2E 9A BB 
8A30 D3 1B BB D3 B3 65 E9 E1 CF 02 B4 BB 73 B3 E9 6C 
8A40 DD 04 D4 0C 53 B5 1D BB 8C 3E 9A BB D3 19 BB B3 
8A50 44 D6 1B 8C 8D 64 E9 E1 CF 02 B3 0C D2 D2 1D BB 
8A60 8C 2E 9A BB D3 1B BB D3 B3 0C D2 8C 04 A0 BB B3 
8A70 E9 0C D3 02 55 B5 B4 BB B4 C6 D8 CA 8A 0C D2 D2 
8A80 B3 48 1D BE B4 BD CD A4 9B 6B DB A8 9B 6B 63 E9 
8A90 E1 CF 02 72 B3 0C D2 D2 1D BB 8C 2E 9A BB D3 1B 
8AA0 BB D3 B3 E9 6C DD 04 B3 0C D2 D2 1D BB 8C 2E 9A 
8AB0 BB D3 1B BB B4 B3 D3 BC D4 0C 53 B5 1D BB 8C 3E 
8AC0 9A BB D3 19 BB B3 42 D6 1B 8C 0C 53 B5 1D BB 8C 
8AD0 3E 9A BB D3 19 BB B3 40 D6 1B 8C 0C 53 B5 1D BB 
8AE0 8C 3E 9A BB D3 19 BB B3 41 D4 06 D2 15 C4 D8 F9 
8AF0 8A 63 E9 E1 CF 02 D7 CA 8A 0C D2 D2 1D BB 8C 2E 
8B00 9A BB D3 1B BB B3 8D 64 0C D2 D2 1D BB 8C 2E 9A 
8B10 BB D3 1B BB D3 B3 63 E9 E1 CF 02 B4 BB D0 B3 E9 
8B20 6C DD 04 D6 1B 8C 48 1D BE B3 0C D2 D2 B3 A4 9B 
8B30 6B B4 BE B4 DA D8 5D 8B 0C D2 D2 B3 48 1D BE B4 
8B40 BD 8B FF DC CD A4 9B 6B DA A8 9B 6B 0C 53 B5 1D 
8B50 BB 8C 3E 9A BB D3 19 BB B3 43 D6 1B 8C 0C D2 D2 
8B60 1D BB 8C 2E 9A BB D3 1B BB D3 8B 3C C6 D8 C2 8B 
8B70 0C D2 8C 04 A0 BB B3 E9 0C D3 02 B3 67 E9 E1 CF 
8B80 02 B4 C6 D7 CA 8A 0C D2 D2 1D BB 8C 2E 9A BB D3 
8B90 1B BB B3 8D 64 0C D2 D2 1D BB 8C 2E 9A BB D3 1B 
8BA0 BB D3 B3 63 E9 E1 CF 02 B4 BB D0 B3 E9 6C DD 04 
8BB0 D4 0C 53 B5 1D BB 8C 3E 9A BB D3 19 BB B3 41 D6 
8BC0 1B 8C 0C 53 B5 1D BB 8C 3E 9A BB D3 19 BB B3 40 
8BD0 D4 48 1D BE B3 0C D2 D2 B3 A4 99 6B B4 BE B4 DA 
8BE0 D7 1C 8C 64 E9 E1 CF 02 D7 1C 8C 0C D2 D2 B3 48 
8BF0 1D BE B4 BD CD A4 99 6B DB A8 99 6B 0D D2 D2 B3
8C00 48 1C BE B4 BD CD A4 99 6B DB A8 99 6B 0C 53 B5 
8C10 1D BB 8C 3E 9A BB D3 19 BB B3 45 D4 CF 

Function $88FD (F2 FF)
Args:
<0C> Nation 1
<0D> Nation 2

8902 8A 8D 6B    / $6B8D
8905 2B          /

8906 8A 93 6B    / $6B93 
8909 29          /

890A 0C          /
890B D2          /
890C D2          /
890D 1D          /
890E BB          /
890F 8C 2E 9A    / $9A2E
8912 BB          /
8913 D3          /
8914 1B          /
8915 BB          /
8916 D3          /
8917 8B 28       /
8919 C6          /
891A D8 26 8B    /

891D 48          /
891E 1D          /
891F BE          /
8920 B3          /
8921 0C          /
8922 D2          /
8923 D2          /
8924 B3          /
8925 A4 99 6B    / $6B99
8928 B4          /
8929 BE          /
892A B4          / 
892B DA          /
892C D8 68 89    /

892F 0C          /
8930 D2          /
8931 D2          /
8932 B3          /
8933 48          /
8934 1D          /
8935 BE          /
8936 B4          /
8937 BD          /
8938 8B FF       /
893A DC          /
893B CD          /
893C A4 99 6B    / $6B99
893F DA          /
8940 A8 99 6B    / $6B99
8943 0D          /
8944 D2          /
8945 D2          /
8946 B3          /
8947 48          /
8948 1C          /
8949 BE          /
894A B4          /
894B BD          /
894C 8B FF       /
894E DC          /
894F CD          /
8950 A4 99 6B    /
8953 DA          /
8954 A8 99 6B    /
8957 0C          /
8958 53          /
8959 B5          /
895A 1D          /
895B BB          /
895C 8C 3E 9A    /
895F BB          /
8960 D3          /
8961 19          /
8962 BB          /
8963 B3          /
8964 46          /
8965 D6 1B 8C    /

8968 3C          /
8969 E9 CF 88 02 / Call $88CF -> Economic Value of Nation 1
896D 26          /

896E 3D          /
896F E9 CF 88 02 / Call $88CF -> Economic Value of Nation 2
8973 25          /

8974 06          /
8975 15          /
8976 C4          /
8977 D8 DB 8A    /

897A 48          /
897B 1D          /
897C BE          /
897D B3          /
897E 0C          /
897F D2          /
8980 D2          /
8981 B3          /
8982 A4 9B 6B    /
8985 B4
8986 BE
8987 B4
8988 DA
8989 D8 54 8A
898C 0C
898D 53
898E B5
898F 1D
8990 BB
8991 8C 3E 9A
8994 BB
8995 D3
8996 19
8997 BB
8998 B3
8999 40
899A D4
899B 3D
899E E9 BA 8D 02 / Call $8DBA

8ADB 

8B26

8C1B

     00 01 02 03 04 05 06 07 08 09 0A 0B 0C 0D 0E 0F
8990 BB 8C 3E 9A BB D3 19 BB B3 40 D4 3D E9 BA 8D 02 
89A0 28 05 53 B5 52 B6 B3 06 B4 C4 D8 1C 8C 8D 64 E9 
89B0 E1 CF 02 B3 0C D2 D2 1D BB 8C 2E 9A BB D3 1B BB 
89C0 D3 B3 0C D2 8C 04 A0 BB B3 E9 0C D3 02 5A B5 B4 
89D0 BB B4 C6 D8 1C 8C 08 D8 1C 8C 08 5E B5 8C BA 67 
89E0 BB 2A 40 27 0A 17 BB B3 07 1C C0 D8 F3 89 89 50 
89F0 D6 F4 89 40 D4 07 D0 27 07 53 C6 D7 E4 89 8E FC 
8A00 00 08 8C 76 6F BB B4 B3 D3 DA D4 0C D0 B3 08 8C 
8A10 76 6F BB B4 B3 D3 DB D4 0C D2 D2 1D BB 8C 2E 9A 
8A20 BB D3 1B BB B3 8D 64 0C D2 D2 1D BB 8C 2E 9A BB 
8A30 D3 1B BB D3 B3 65 E9 E1 CF 02 B4 BB 73 B3 E9 6C 
8A40 DD 04 D4 0C 53 B5 1D BB 8C 3E 9A BB D3 19 BB B3 
8A50 44 D6 1B 8C 8D 64 E9 E1 CF 02 B3 0C D2 D2 1D BB 
8A60 8C 2E 9A BB D3 1B BB D3 B3 0C D2 8C 04 A0 BB B3 
8A70 E9 0C D3 02 55 B5 B4 BB B4 C6 D8 CA 8A 0C D2 D2 
8A80 B3 48 1D BE B4 BD CD A4 9B 6B DB A8 9B 6B 63 E9 
8A90 E1 CF 02 72 B3 0C D2 D2 1D BB 8C 2E 9A BB D3 1B 
8AA0 BB D3 B3 E9 6C DD 04 B3 0C D2 D2 1D BB 8C 2E 9A 
8AB0 BB D3 1B BB B4 B3 D3 BC D4 0C 53 B5 1D BB 8C 3E 
8AC0 9A BB D3 19 BB B3 42 D6 1B 8C 0C 53 B5 1D BB 8C 
8AD0 3E 9A BB D3 19 BB B3 40 D6 1B 8C 0C 53 B5 1D BB 
8AE0 8C 3E 9A BB D3 19 BB B3 41 D4 06 D2 15 C4 D8 F9 
8AF0 8A 63 E9 E1 CF 02 D7 CA 8A 0C D2 D2 1D BB 8C 2E 
8B00 9A BB D3 1B BB B3 8D 64 0C D2 D2 1D BB 8C 2E 9A 
8B10 BB D3 1B BB D3 B3 63 E9 E1 CF 02 B4 BB D0 B3 E9 
8B20 6C DD 04 D6 1B 8C 48 1D BE B3 0C D2 D2 B3 A4 9B 
8B30 6B B4 BE B4 DA D8 5D 8B 0C D2 D2 B3 48 1D BE B4 
8B40 BD 8B FF DC CD A4 9B 6B DA A8 9B 6B 0C 53 B5 1D 
8B50 BB 8C 3E 9A BB D3 19 BB B3 43 D6 1B 8C 0C D2 D2 
8B60 1D BB 8C 2E 9A BB D3 1B BB D3 8B 3C C6 D8 C2 8B 
8B70 0C D2 8C 04 A0 BB B3 E9 0C D3 02 B3 67 E9 E1 CF 
8B80 02 B4 C6 D7 CA 8A 0C D2 D2 1D BB 8C 2E 9A BB D3 
8B90 1B BB B3 8D 64 0C D2 D2 1D BB 8C 2E 9A BB D3 1B 
8BA0 BB D3 B3 63 E9 E1 CF 02 B4 BB D0 B3 E9 6C DD 04 
8BB0 D4 0C 53 B5 1D BB 8C 3E 9A BB D3 19 BB B3 41 D6 
8BC0 1B 8C 0C 53 B5 1D BB 8C 3E 9A BB D3 19 BB B3 40 
8BD0 D4 48 1D BE B3 0C D2 D2 B3 A4 99 6B B4 BE B4 DA 
8BE0 D7 1C 8C 64 E9 E1 CF 02 D7 1C 8C 0C D2 D2 B3 48 
8BF0 1D BE B4 BD CD A4 99 6B DB A8 99 6B 0D D2 D2 B3
8C00 48 1C BE B4 BD CD A4 99 6B DB A8 99 6B 0C 53 B5 
8C10 1D BB 8C 3E 9A BB D3 19 BB B3 45 D4 CF 
----------------------------------------------------
     00 01 02 03 04 05 06 07 08 09 0A 0B 0C 0D 0E 0F
8C10                                        20 BF E4 
8C20 FE FF 40 2B 0C 1B C1 D8 30 8C 3B 3C E9 FD 88 04 
8C30 0B D0 2B 0B 53 C6 D7 24 8C CF 

Function $8C1D (FE FF)
Args:
<0C> Nation #
Locs:
<0B> Nation #

8C22 40
8C23 2B

8C24 0C
8C25 1B
8C26 C1
8C27 D8 30 8C

if (Nation 1 != Nation 2)
{
	8C2A 3B
	8C2B 3C
	8C2C E9 FD 88 04 / Call $88FD
}

8C30 0B
8C31 D0
8C32 2B

8C33 0B
8C34 53
8C35 C6
8C36 D7 24 8C

8C39 CF          / Return
----------------------------------------------------
     00 01 02 03 04 05 06 07 08 09 0A 0B 0C 0D 0E 0F
8C30                               20 BF E4 FE FF 40 
8C40 2B 3B E9 03 80 02 0B 53 C1 D8 51 8C 3B E9 1D 8C 
8C50 02 3B E9 2B 88 02 0B D0 2B 0B 54 C6 D7 41 8C AC 
8C60 4C 88 CF 

Function $8C3A (FE FF)

Loop through each nation:

8C3F 40          /
8C40 2B          /

8C41 3B          /
8C42 E9 03 80 02 / Call $8003 -> Reduce hostility of nation by [RNG 02-05]

8C46 0B          /
8C47 53          /
8C48 C1          /
8C49 D8 51 8C    /

if (...)
{
	8C4C 3B          /
	8C4D E9 1D 8C 02 / Call $8C1D
}

8C51 3B
8C52 E9 2B 88 02 / Call $882B
8C56 0B          /
8C57 D0          /
8C58 2B          /

8C59 0B          /
8C5A 54          /
8C5B C6          /
8C5C D7 41 8C    /

8C5F AC 4C 88    / Call $884C
8C52 CF          / Return
----------------------------------------------------
     00 01 02 03 04 05 06 07 08 09 0A 0B 0C 0D 0E 0F
8C60          20 BF E4 00 00 AC 86 91 AC 3A 8C AC 90 
8C70 98 AC 8E 99 CF

Function $8C63 (00 00)
8C68 AC 86 91    / Call $9186
8C6B AC 3A 8C    / Call $8C3A
8C6E AC 90 98    / Call $9890
8C71 AC 8E 99    / Call $998E
8C74 CF          / Return
----------------------------------------------------
 02:8C75:20 99 E2  JSR $E299
 02:8C78:00        BRK
 02:8C79:F6 FF     INC $FF,X @ $00FF = #$00
 02:8C7B:A0 0B     LDY #$0B
 02:8C7D:B1 04     LDA ($04),Y @ $0513 = #$BA
 02:8C7F:C8        INY
 02:8C80:11 04     ORA ($04),Y @ $0513 = #$BA
 02:8C82:D0 03     BNE $8C87
 02:8C84:4C 96 8C  JMP $8C96
 02:8C87:18        CLC
 02:8C88:A9 FF     LDA #$FF
 02:8C8A:88        DEY
 02:8C8B:71 04     ADC ($04),Y @ $0513 = #$BA
 02:8C8D:91 04     STA ($04),Y @ $0513 = #$BA
 02:8C8F:A9 FF     LDA #$FF
 02:8C91:C8        INY
 02:8C92:71 04     ADC ($04),Y @ $0513 = #$BA
 02:8C94:91 04     STA ($04),Y @ $0513 = #$BA
 02:8C96:A9 42     LDA #$42
 02:8C98:A0 FC     LDY #$FC
 02:8C9A:91 06     STA ($06),Y @ $0413 = #$06
 02:8C9C:A9 65     LDA #$65
 02:8C9E:C8        INY
 02:8C9F:91 06     STA ($06),Y @ $0413 = #$06
 02:8CA1:18        CLC
 02:8CA2:A9 1F     LDA #$1F
 02:8CA4:69 42     ADC #$42
 02:8CA6:A0 FA     LDY #$FA
 02:8CA8:91 06     STA ($06),Y @ $0413 = #$06
 02:8CAA:A9 01     LDA #$01
 02:8CAC:69 65     ADC #$65
 02:8CAE:C8        INY
 02:8CAF:91 06     STA ($06),Y @ $0413 = #$06
 02:8CB1:8A        TXA
 02:8CB2:A0 F6     LDY #$F6
 02:8CB4:91 06     STA ($06),Y @ $0413 = #$06
 02:8CB6:C8        INY
 02:8CB7:91 06     STA ($06),Y @ $0413 = #$06
 02:8CB9:A9 01     LDA #$01
 02:8CBB:85 18     STA $0018 = #$F4
 02:8CBD:86 19     STX $0019 = #$00
 02:8CBF:A0 0B     LDY #$0B
 02:8CC1:B1 04     LDA ($04),Y @ $0513 = #$BA
 02:8CC3:85 14     STA $0014 = #$92
 02:8CC5:C8        INY
 02:8CC6:B1 04     LDA ($04),Y @ $0513 = #$BA
 02:8CC8:85 15     STA $0015 = #$68
 02:8CCA:A0 14     LDY #$14
 02:8CCC:A2 18     LDX #$18
 02:8CCE:A9 10     LDA #$10
 02:8CD0:20 F0 E3  JSR $E3F0
 02:8CD3:18        CLC
 02:8CD4:A5 10     LDA $0010 = #$92
 02:8CD6:69 48     ADC #$48
 02:8CD8:85 18     STA $0018 = #$F4
 02:8CDA:A5 11     LDA $0011 = #$68
 02:8CDC:69 9A     ADC #$9A
 02:8CDE:85 19     STA $0019 = #$00
 02:8CE0:84 14     STY $0014 = #$92
 02:8CE2:86 15     STX $0015 = #$68
 02:8CE4:A2 18     LDX #$18
 02:8CE6:20 95 E3  JSR $E395
 02:8CE9:A2 14     LDX #$14
 02:8CEB:20 95 E3  JSR $E395
 02:8CEE:48        PHA
 02:8CEF:A9 5A     LDA #$5A
 02:8CF1:48        PHA
 02:8CF2:20 38 E3  JSR $E338
 02:8CF5:E1 CF     SBC ($CF,X) @ $0000 = #$E7
 02:8CF7:04        UNDEFINED
 02:8CF8:A2 14     LDX #$14
 02:8CFA:20 BA E3  JSR $E3BA
 02:8CFD:A0 08     LDY #$08
 02:8CFF:A2 14     LDX #$14
 02:8D01:A9 18     LDA #$18
 02:8D03:20 F0 E3  JSR $E3F0
 02:8D06:A2 14     LDX #$14
 02:8D08:20 BA E3  JSR $E3BA
 02:8D0B:18        CLC
 02:8D0C:A5 18     LDA $0018 = #$F4
 02:8D0E:61 14     ADC ($14,X) @ $6892 = #$4D
 02:8D10:85 10     STA $0010 = #$92
 02:8D12:A5 19     LDA $0019 = #$00
 02:8D14:71 14     ADC ($14),Y @ $6896 = #$81
 02:8D16:85 11     STA $0011 = #$68
 02:8D18:A5 11     LDA $0011 = #$68
 02:8D1A:48        PHA
 02:8D1B:A5 10     LDA $0010 = #$92
 02:8D1D:48        PHA
 02:8D1E:20 38 E3  JSR $E338
 02:8D21:26 D3     ROL $00D3 = #$00
 02:8D23:04        UNDEFINED
 02:8D24:A5 08     LDA $0008 = #$04
 02:8D26:A0 FE     LDY #$FE
 02:8D28:91 06     STA ($06),Y @ $0413 = #$06
 02:8D2A:A5 09     LDA $0009 = #$00
 02:8D2C:C8        INY
 02:8D2D:91 06     STA ($06),Y @ $0413 = #$06
 02:8D2F:A0 FC     LDY #$FC
 02:8D31:B1 06     LDA ($06),Y @ $0413 = #$06
 02:8D33:A0 F8     LDY #$F8
 02:8D35:91 06     STA ($06),Y @ $0413 = #$06
 02:8D37:A0 FD     LDY #$FD
 02:8D39:B1 06     LDA ($06),Y @ $0413 = #$06
 02:8D3B:A0 F9     LDY #$F9
 02:8D3D:91 06     STA ($06),Y @ $0413 = #$06
 02:8D3F:4C 51 8D  JMP $8D51
 02:8D42:18        CLC
 02:8D43:A9 07     LDA #$07
 02:8D45:A0 F8     LDY #$F8
 02:8D47:71 06     ADC ($06),Y @ $0413 = #$06
 02:8D49:91 06     STA ($06),Y @ $0413 = #$06
 02:8D4B:8A        TXA
 02:8D4C:C8        INY
 02:8D4D:71 06     ADC ($06),Y @ $0413 = #$06
 02:8D4F:91 06     STA ($06),Y @ $0413 = #$06
 02:8D51:A0 F8     LDY #$F8
 02:8D53:B1 06     LDA ($06),Y @ $0413 = #$06
 02:8D55:A0 FA     LDY #$FA
 02:8D57:D1 06     CMP ($06),Y @ $0413 = #$06
 02:8D59:88        DEY
 02:8D5A:B1 06     LDA ($06),Y @ $0413 = #$06
 02:8D5C:A0 FB     LDY #$FB
 02:8D5E:F1 06     SBC ($06),Y @ $0413 = #$06
 02:8D60:90 03     BCC $8D65
 02:8D62:4C 95 8D  JMP $8D95
 02:8D65:A0 F8     LDY #$F8
 02:8D67:B1 06     LDA ($06),Y @ $0413 = #$06
 02:8D69:85 18     STA $0018 = #$F4
 02:8D6B:C8        INY
 02:8D6C:B1 06     LDA ($06),Y @ $0413 = #$06
 02:8D6E:85 19     STA $0019 = #$00
 02:8D70:A1 18     LDA ($18,X) @ $00F4 = #$00
 02:8D72:A0 FE     LDY #$FE
 02:8D74:D1 06     CMP ($06),Y @ $0413 = #$06
 02:8D76:D0 08     BNE $8D80
 02:8D78:A0 01     LDY #$01
 02:8D7A:B1 18     LDA ($18),Y @ $00F8 = #$00
 02:8D7C:A0 FF     LDY #$FF
 02:8D7E:D1 06     CMP ($06),Y @ $0413 = #$06
 02:8D80:F0 03     BEQ $8D85
 02:8D82:4C 92 8D  JMP $8D92
 02:8D85:A9 01     LDA #$01
 02:8D87:A0 F6     LDY #$F6
 02:8D89:91 06     STA ($06),Y @ $0413 = #$06
 02:8D8B:8A        TXA
 02:8D8C:C8        INY
 02:8D8D:91 06     STA ($06),Y @ $0413 = #$06
 02:8D8F:4C 95 8D  JMP $8D95
 02:8D92:4C 42 8D  JMP $8D42
 02:8D95:A0 F6     LDY #$F6
 02:8D97:B1 06     LDA ($06),Y @ $0413 = #$06
 02:8D99:C8        INY
 02:8D9A:11 06     ORA ($06),Y @ $0413 = #$06
 02:8D9C:F0 03     BEQ $8DA1
 02:8D9E:4C B1 8C  JMP $8CB1
 02:8DA1:A0 0D     LDY #$0D
 02:8DA3:B1 04     LDA ($04),Y @ $0513 = #$BA
 02:8DA5:85 18     STA $0018 = #$F4
 02:8DA7:C8        INY
 02:8DA8:B1 04     LDA ($04),Y @ $0513 = #$BA
 02:8DAA:85 19     STA $0019 = #$00
 02:8DAC:A0 FE     LDY #$FE
 02:8DAE:B1 06     LDA ($06),Y @ $0413 = #$06
 02:8DB0:81 18     STA ($18,X) @ $00F4 = #$00
 02:8DB2:C8        INY
 02:8DB3:B1 06     LDA ($06),Y @ $0413 = #$06
 02:8DB5:A0 01     LDY #$01
 02:8DB7:91 18     STA ($18),Y @ $00F8 = #$00
 02:8DB9:60        RTS -----------------------------------------
----------------------------------------------------------------
Function $8DBA (00 FA FF)

 02:8DC0:A0 FA     LDY #$FA
 02:8DC2:91 06     STA ($06),Y
 02:8DC4:C8        INY
 02:8DC5:91 06     STA ($06),Y ; loc_FA = 0x00
 
 02:8DC7:A9 03     LDA #$03
 02:8DC9:A0 FE     LDY #$FE
 02:8DCB:91 06     STA ($06),Y
 02:8DCD:8A        TXA
 02:8DCE:C8        INY
 02:8DCF:91 06     STA ($06),Y ; loc_FE = 0x03
 
 02:8DD1:4C E3 8D  JMP $8DE3
 
 Loop (for loc_FE = 3; loc_FE < 50; loc_FE++)
	 02:8DD4:18        CLC
	 02:8DD5:A9 01     LDA #$01
	 02:8DD7:A0 FE     LDY #$FE
	 02:8DD9:71 06     ADC ($06),Y
	 02:8DDB:91 06     STA ($06),Y 
	 02:8DDD:8A        TXA
	 02:8DDE:C8        INY
	 02:8DDF:71 06     ADC ($06),Y
	 02:8DE1:91 06     STA ($06),Y ; loc_FE++
	 
	 02:8DE3:A0 FE     LDY #$FE
	 02:8DE5:B1 06     LDA ($06),Y
	 02:8DE7:C9 32     CMP #$32
	 02:8DE9:C8        INY
	 02:8DEA:B1 06     LDA ($06),Y
	 02:8DEC:E9 00     SBC #$00
	 02:8DEE:90 03     BCC $8DF3
	 02:8DF0:4C 45 8E  JMP $8E45
 
	 02:8DF3:18        CLC
	 02:8DF4:88        DEY
	 02:8DF5:B1 06     LDA ($06),Y
	 02:8DF7:69 76     ADC #$76
	 02:8DF9:85 18     STA $0018
	 02:8DFB:C8        INY
	 02:8DFC:B1 06     LDA ($06),Y
	 02:8DFE:69 6F     ADC #$6F
	 02:8E00:85 19     STA $0019   ; $18 = cur entry in $6F76
	 
	 02:8E02:A1 18     LDA ($18,X)
	 02:8E04:85 14     STA $0014
	 02:8E06:86 15     STX $0015
	 02:8E08:A9 03     LDA #$03
	 02:8E0A:25 14     AND $0014
	 02:8E0C:85 18     STA $0018
	 02:8E0E:8A        TXA
	 02:8E0F:85 19     STA $0019
	 
	 02:8E11:A5 18     LDA $0018
	 02:8E13:A0 0B     LDY #$0B
	 02:8E15:D1 04     CMP ($04),Y
	 02:8E17:D0 05     BNE $8E1E
	 02:8E19:A5 19     LDA $0019
	 02:8E1B:C8        INY
	 02:8E1C:D1 04     CMP ($04),Y
	 02:8E1E:F0 03     BEQ $8E23
	 02:8E20:4C 42 8E  JMP $8E42
	 
	 02:8E23:18        CLC
	 02:8E24:A9 01     LDA #$01
	 02:8E26:A0 FA     LDY #$FA
	 02:8E28:71 06     ADC ($06),Y @ $0413 = #$06
	 02:8E2A:91 06     STA ($06),Y @ $0413 = #$06
	 02:8E2C:8A        TXA
	 02:8E2D:C8        INY
	 02:8E2E:71 06     ADC ($06),Y @ $0413 = #$06
	 02:8E30:91 06     STA ($06),Y @ $0413 = #$06
	 02:8E32:A0 FE     LDY #$FE
	 02:8E34:B1 06     LDA ($06),Y @ $0413 = #$06
	 02:8E36:A0 FC     LDY #$FC
	 02:8E38:91 06     STA ($06),Y @ $0413 = #$06
	 02:8E3A:A0 FF     LDY #$FF
	 02:8E3C:B1 06     LDA ($06),Y @ $0413 = #$06
	 02:8E3E:A0 FD     LDY #$FD
	 02:8E40:91 06     STA ($06),Y @ $0413 = #$06
	 
	 02:8E42:4C D4 8D  JMP $8DD4
 
 02:8E45:A0 FA     LDY #$FA
 02:8E47:B1 06     LDA ($06),Y @ $0413 = #$06
 02:8E49:C8        INY
 02:8E4A:11 06     ORA ($06),Y @ $0413 = #$06
 02:8E4C:D0 03     BNE $8E51
 02:8E4E:4C 5E 8E  JMP $8E5E
 02:8E51:C8        INY
 02:8E52:B1 06     LDA ($06),Y @ $0413 = #$06
 02:8E54:85 08     STA $0008 = #$04
 02:8E56:C8        INY
 02:8E57:B1 06     LDA ($06),Y @ $0413 = #$06
 02:8E59:85 09     STA $0009 = #$00
 02:8E5B:4C 62 8E  JMP $8E62
 
 02:8E5E:86 08     STX $0008
 02:8E60:86 09     STX $0009
 02:8E62:60        RTS -----------------------------------------
----------------------------------------------------------------
Function $8E63 (00 F5 FF)

 02:8E69:A9 05     LDA #$05
 02:8E6B:85 18     STA $0018
 02:8E6D:86 19     STX $0019
 
 02:8E6F:A0 0B     LDY #$0B
 02:8E71:B1 04     LDA ($04),Y
 02:8E73:85 14     STA $0014
 02:8E75:C8        INY
 02:8E76:B1 04     LDA ($04),Y
 02:8E78:85 15     STA $0015
 
 02:8E7A:A0 14     LDY #$14
 02:8E7C:A2 18     LDX #$18
 02:8E7E:A9 10     LDA #$10
 02:8E80:20 77 E1  JSR $E177
 
 02:8E83:18        CLC
 02:8E84:98        TYA
 02:8E85:65 10     ADC $0010 = #$92
 02:8E87:A0 F5     LDY #$F5
 02:8E89:91 06     STA ($06),Y @ $0413 = #$06
 02:8E8B:8A        TXA
 02:8E8C:65 11     ADC $0011 = #$68
 02:8E8E:C8        INY
 02:8E8F:91 06     STA ($06),Y @ $0413 = #$06
 02:8E91:88        DEY
 02:8E92:B1 06     LDA ($06),Y @ $0413 = #$06
 02:8E94:A0 F7     LDY #$F7
 02:8E96:91 06     STA ($06),Y @ $0413 = #$06
 02:8E98:88        DEY
 02:8E99:B1 06     LDA ($06),Y @ $0413 = #$06
 02:8E9B:A0 F8     LDY #$F8
 02:8E9D:91 06     STA ($06),Y @ $0413 = #$06
 02:8E9F:18        CLC
 02:8EA0:A9 05     LDA #$05
 02:8EA2:A0 F5     LDY #$F5
 02:8EA4:71 06     ADC ($06),Y @ $0413 = #$06
 02:8EA6:91 06     STA ($06),Y @ $0413 = #$06
 02:8EA8:8A        TXA
 02:8EA9:C8        INY
 02:8EAA:71 06     ADC ($06),Y @ $0413 = #$06
 02:8EAC:91 06     STA ($06),Y @ $0413 = #$06
 02:8EAE:8A        TXA
 02:8EAF:A0 F9     LDY #$F9
 02:8EB1:91 06     STA ($06),Y @ $0413 = #$06
 02:8EB3:C8        INY
 02:8EB4:91 06     STA ($06),Y @ $0413 = #$06
 02:8EB6:4C C8 8E  JMP $8EC8
 02:8EB9:18        CLC
 02:8EBA:A9 01     LDA #$01
 02:8EBC:A0 F7     LDY #$F7
 02:8EBE:71 06     ADC ($06),Y @ $0413 = #$06
 02:8EC0:91 06     STA ($06),Y @ $0413 = #$06
 02:8EC2:8A        TXA
 02:8EC3:C8        INY
 02:8EC4:71 06     ADC ($06),Y @ $0413 = #$06
 02:8EC6:91 06     STA ($06),Y @ $0413 = #$06
 02:8EC8:A0 F7     LDY #$F7
 02:8ECA:B1 06     LDA ($06),Y @ $0413 = #$06
 02:8ECC:A0 F5     LDY #$F5
 02:8ECE:D1 06     CMP ($06),Y @ $0413 = #$06
 02:8ED0:A0 F8     LDY #$F8
 02:8ED2:B1 06     LDA ($06),Y @ $0413 = #$06
 02:8ED4:A0 F6     LDY #$F6
 02:8ED6:F1 06     SBC ($06),Y @ $0413 = #$06
 02:8ED8:90 03     BCC $8EDD
 02:8EDA:4C 11 8F  JMP $8F11
 
 02:8EDD:18        CLC
 02:8EDE:A9 FB     LDA #$FB
 02:8EE0:65 06     ADC $0006 = #$0F
 02:8EE2:85 18     STA $0018 = #$F4
 02:8EE4:8A        TXA
 02:8EE5:65 07     ADC $0007 = #$04
 02:8EE7:85 19     STA $0019 = #$00
 02:8EE9:A5 19     LDA $0019 = #$00
 02:8EEB:48        PHA
 02:8EEC:A5 18     LDA $0018 = #$F4
 02:8EEE:48        PHA
 02:8EEF:A0 F8     LDY #$F8
 02:8EF1:B1 06     LDA ($06),Y @ $0413 = #$06
 02:8EF3:48        PHA
 02:8EF4:88        DEY
 02:8EF5:B1 06     LDA ($06),Y @ $0413 = #$06
 02:8EF7:48        PHA
 02:8EF8:20 38 E3  JSR $E338
 02:8EFB:26 D0     ROL $00D0 = #$00
 02:8EFD:06 18     ASL $0018 = #$F4
 02:8EFF:A0 F9     LDY #$F9
 02:8F01:B1 06     LDA ($06),Y @ $0413 = #$06
 02:8F03:65 08     ADC $0008 = #$04
 02:8F05:91 06     STA ($06),Y @ $0413 = #$06
 02:8F07:C8        INY
 02:8F08:B1 06     LDA ($06),Y @ $0413 = #$06
 02:8F0A:65 09     ADC $0009 = #$00
 02:8F0C:91 06     STA ($06),Y @ $0413 = #$06
 02:8F0E:4C B9 8E  JMP $8EB9
 
 02:8F11:A0 F9     LDY #$F9
 02:8F13:B1 06     LDA ($06),Y
 02:8F15:85 08     STA $0008
 02:8F17:C8        INY
 02:8F18:B1 06     LDA ($06),Y
 02:8F1A:85 09     STA $0009
 02:8F1C:60        RTS -----------------------------------------
----------------------------------------------------------------
Function $8F1D (00 FA FF)
Args:
+0B Port #

 02:8F23:A9 0E     LDA #$0E
 02:8F25:85 18     STA $0018
 02:8F27:86 19     STX $0019   ; $18 = 0x0E
 
 02:8F29:A0 0B     LDY #$0B
 02:8F2B:B1 04     LDA ($04),Y 
 02:8F2D:85 14     STA $0014
 02:8F2F:C8        INY
 02:8F30:B1 04     LDA ($04),Y
 02:8F32:85 15     STA $0015   ; $14 = <arg_0B>
 
 02:8F34:A0 14     LDY #$14
 02:8F36:A2 18     LDX #$18
 02:8F38:A9 10     LDA #$10
 02:8F3A:20 77 E1  JSR $E177   ; $10 = 0x0E * <arg_0B>
 
 02:8F3D:18        CLC
 02:8F3E:A5 10     LDA $0010
 02:8F40:69 B2     ADC #$B2
 02:8F42:A0 FA     LDY #$FA
 02:8F44:91 06     STA ($06),Y
 02:8F46:A5 11     LDA $0011
 02:8F48:69 67     ADC #$67
 02:8F4A:C8        INY
 02:8F4B:91 06     STA ($06),Y ; loc_FA = ptr to port economic worth
 
 02:8F4D:88        DEY
 02:8F4E:B1 06     LDA ($06),Y
 02:8F50:85 18     STA $0018
 02:8F52:C8        INY
 02:8F53:B1 06     LDA ($06),Y
 02:8F55:85 19     STA $0019
 02:8F57:A0 02     LDY #$02
 02:8F59:B1 18     LDA ($18),Y
 02:8F5B:A0 FE     LDY #$FE
 02:8F5D:91 06     STA ($06),Y
 02:8F5F:A0 03     LDY #$03
 02:8F61:B1 18     LDA ($18),Y
 02:8F63:A0 FF     LDY #$FF
 02:8F65:91 06     STA ($06),Y ; loc_FE = ptr to port economic investment
 
 02:8F67:A0 FA     LDY #$FA
 02:8F69:B1 06     LDA ($06),Y
 02:8F6B:85 18     STA $0018
 02:8F6D:C8        INY
 02:8F6E:B1 06     LDA ($06),Y
 02:8F70:85 19     STA $0019
 02:8F72:A0 06     LDY #$06
 02:8F74:B1 18     LDA ($18),Y
 02:8F76:A0 FC     LDY #$FC
 02:8F78:91 06     STA ($06),Y
 02:8F7A:A0 07     LDY #$07
 02:8F7C:B1 18     LDA ($18),Y 
 02:8F7E:A0 FD     LDY #$FD
 02:8F80:91 06     STA ($06),Y ; loc_FC = ptr to port industrial investment
 
 02:8F82:A9 E8     LDA #$E8
 02:8F84:C8        INY
 02:8F85:D1 06     CMP ($06),Y
 02:8F87:A9 03     LDA #$03
 02:8F89:C8        INY
 02:8F8A:F1 06     SBC ($06),Y
 02:8F8C:90 03     BCC $8F91
 02:8F8E:4C 80 90  JMP $9080
 
 if (economic investment >= 1000?)
	 02:8F91:A0 FA     LDY #$FA
	 02:8F93:B1 06     LDA ($06),Y
	 02:8F95:85 18     STA $0018
	 02:8F97:C8        INY
	 02:8F98:B1 06     LDA ($06),Y
	 02:8F9A:85 19     STA $0019   ; economic worth
	 
	 02:8F9C:88        DEY
	 02:8F9D:B1 06     LDA ($06),Y
	 02:8F9F:85 14     STA $0014
	 02:8FA1:C8        INY
	 02:8FA2:B1 06     LDA ($06),Y
	 02:8FA4:85 15     STA $0015   ; economic worth
	 
	 02:8FA6:A9 02     LDA #$02
	 02:8FA8:85 10     STA $0010
	 02:8FAA:86 11     STX $0011
	 
	 02:8FAC:A9 E8     LDA #$E8
	 02:8FAE:85 0C     STA $000C
	 02:8FB0:A9 03     LDA #$03
	 02:8FB2:85 0D     STA $000D
	 
	 02:8FB4:A0 FE     LDY #$FE
	 02:8FB6:B1 06     LDA ($06),Y
	 02:8FB8:85 08     STA $0008
	 02:8FBA:C8        INY
	 02:8FBB:B1 06     LDA ($06),Y
	 02:8FBD:85 09     STA $0009
	 
	 02:8FBF:A2 18     LDX #$18
	 02:8FC1:20 95 E3  JSR $E395   ; push economic_worth

	 02:8FC4:A0 08     LDY #$08    ; economic_investment
	 02:8FC6:A2 0C     LDX #$0C    ; 1000
	 02:8FC8:A9 18     LDA #$18    ; 
	 02:8FCA:20 D9 E1  JSR $E1D9   ; $18 = economic_investment / 1000

	 02:8FCD:A0 18     LDY #$18
	 02:8FCF:A2 10     LDX #$10
	 02:8FD1:A9 0C     LDA #$0C
	 02:8FD3:20 F0 E3  JSR $E3F0   ; $0C = 2 << $18

	 02:8FD6:A2 14     LDX #$14
	 02:8FD8:20 95 E3  JSR $E395   ; push economic_worth

	 02:8FDB:A2 0C     LDX #$0C
	 02:8FDD:20 95 E3  JSR $E395   ; push (2 << (economic_investment/1000) )

	 02:8FE0:48        PHA
	 02:8FE1:A9 0A     LDA #$0A
	 02:8FE3:48        PHA
	 02:8FE4:20 38 E3  JSR $E338 -> $CFE1 (04) -> RNG 00-09

	 02:8FEA:A2 0C     LDX #$0C
	 02:8FEC:20 BA E3  JSR $E3BA   ; pop (2 << (economic_investment/1000) )

	 02:8FEF:18        CLC
	 02:8FF0:A5 08     LDA $0008
	 02:8FF2:65 0C     ADC $000C
	 02:8FF4:85 18     STA $0018
	 02:8FF6:A5 09     LDA $0009
	 02:8FF8:65 0D     ADC $000D
	 02:8FFA:85 19     STA $0019   ; $18 = (2 << (economic_investment/1000) ) + RNG 00-09

	 02:8FFC:A2 14     LDX #$14
	 02:8FFE:20 BA E3  JSR $E3BA   ; pop economic_worth

	 02:9001:A2 10     LDX #$10
	 02:9003:20 BA E3  JSR $E3BA   ; pop economic_worth

	 02:9006:18        CLC
	 02:9007:A5 18     LDA $0018
	 02:9009:61 14     ADC ($14,X)
	 02:900B:81 10     STA ($10,X)
	 02:900D:A5 19     LDA $0019
	 02:900F:71 14     ADC ($14),Y
	 02:9011:91 10     STA ($10),Y ; increment economic worth by (2 << (economic_investment/1000) ) + RNG 00-09
	 
	 02:9013:A0 FA     LDY #$FA
	 02:9015:B1 06     LDA ($06),Y
	 02:9017:85 18     STA $0018
	 02:9019:C8        INY
	 02:901A:B1 06     LDA ($06),Y
	 02:901C:85 19     STA $0019   ; economic_worth
	 
	 02:901E:A2 18     LDX #$18
	 02:9020:20 95 E3  JSR $E395   ; push economic_worth
	 
	 02:9023:A9 03     LDA #$03
	 02:9025:48        PHA
	 02:9026:A9 E8     LDA #$E8
	 02:9028:48        PHA         ; push 1000
	 
	 02:9029:A0 FA     LDY #$FA
	 02:902B:B1 06     LDA ($06),Y
	 02:902D:85 18     STA $0018
	 02:902F:C8        INY
	 02:9030:B1 06     LDA ($06),Y
	 02:9032:85 19     STA $0019
	 02:9034:A0 01     LDY #$01
	 02:9036:B1 18     LDA ($18),Y
	 02:9038:48        PHA
	 02:9039:A1 18     LDA ($18,X)
	 02:903B:48        PHA
	 02:903C:20 38 E3  JSR $E338 -> $DD6C (06) -> Get smaller value
	 
	 02:9042:A2 18     LDX #$18
	 02:9044:20 BA E3  JSR $E3BA
	 
	 02:9047:A5 08     LDA $0008
	 02:9049:81 18     STA ($18,X)
	 02:904B:A5 09     LDA $0009
	 02:904D:91 18     STA ($18),Y ; Max out economic worth at 1000
	 
	 02:904F:A0 FA     LDY #$FA
	 02:9051:B1 06     LDA ($06),Y
	 02:9053:85 18     STA $0018
	 02:9055:C8        INY
	 02:9056:B1 06     LDA ($06),Y
	 02:9058:85 19     STA $0019   ; Economic worth
	  
	 02:905A:A9 E8     LDA #$E8
	 02:905C:85 14     STA $0014
	 02:905E:A9 03     LDA #$03
	 02:9060:85 15     STA $0015   ; 1000
	 
	 02:9062:A0 FE     LDY #$FE
	 02:9064:B1 06     LDA ($06),Y
	 02:9066:85 10     STA $0010
	 02:9068:C8        INY
	 02:9069:B1 06     LDA ($06),Y
	 02:906B:85 11     STA $0011   ; Economic investment
	 
	 02:906D:A0 10     LDY #$10
	 02:906F:A2 14     LDX #$14
	 02:9071:A9 0C     LDA #$0C
	 02:9073:20 EB E1  JSR $E1EB   ; 
	 
	 02:9076:A5 0C     LDA $000C
	 02:9078:C8        INY
	 02:9079:91 18     STA ($18),Y
	 02:907B:A5 0D     LDA $000D
	 02:907D:C8        INY
	 02:907E:91 18     STA ($18),Y
 
 02:9080:A9 E8     LDA #$E8
 02:9082:A0 FC     LDY #$FC
 02:9084:D1 06     CMP ($06),Y
 02:9086:A9 03     LDA #$03
 02:9088:C8        INY
 02:9089:F1 06     SBC ($06),Y ; loc_FC (industrial investment)
 02:908B:90 03     BCC $9090
 02:908D:4C 85 91  JMP $9185
 
 if (industrial investment >= 1000)
	 02:9090:A0 FA     LDY #$FA
	 02:9092:B1 06     LDA ($06),Y
	 02:9094:85 18     STA $0018
	 02:9096:C8        INY
	 02:9097:B1 06     LDA ($06),Y
	 02:9099:85 19     STA $0019   ; $18 = economic_worth
	 
	 02:909B:88        DEY
	 02:909C:B1 06     LDA ($06),Y
	 02:909E:85 14     STA $0014
	 02:90A0:C8        INY
	 02:90A1:B1 06     LDA ($06),Y
	 02:90A3:85 15     STA $0015    ; $14 = economic_worth
	 
	 02:90A5:A9 02     LDA #$02
	 02:90A7:85 10     STA $0010
	 02:90A9:86 11     STX $0011
	 
	 02:90AB:A9 E8     LDA #$E8
	 02:90AD:85 0C     STA $000C
	 02:90AF:A9 03     LDA #$03
	 02:90B1:85 0D     STA $000D
	 
	 02:90B3:C8        INY
	 02:90B4:B1 06     LDA ($06),Y
	 02:90B6:85 08     STA $0008
	 02:90B8:C8        INY
	 02:90B9:B1 06     LDA ($06),Y
	 02:90BB:85 09     STA $0009    ; industrial_investment
	 
	 02:90BD:A2 18     LDX #$18
	 02:90BF:20 95 E3  JSR $E395
	 
	 02:90C2:A0 08     LDY #$08
	 02:90C4:A2 0C     LDX #$0C
	 02:90C6:A9 18     LDA #$18
	 02:90C8:20 D9 E1  JSR $E1D9
	 
	 02:90CB:A0 18     LDY #$18
	 02:90CD:A2 10     LDX #$10
	 02:90CF:A9 0C     LDA #$0C
	 02:90D1:20 F0 E3  JSR $E3F0
	 
	 02:90D4:A2 14     LDX #$14
	 02:90D6:20 95 E3  JSR $E395
	 
	 02:90D9:A2 0C     LDX #$0C
	 02:90DB:20 95 E3  JSR $E395
	 
	 02:90DE:48        PHA
	 02:90DF:A9 0A     LDA #$0A
	 02:90E1:48        PHA
	 02:90E2:20 38 E3  JSR $E338 -> $CFE1 (04) -> RNG 00-09

	 02:90E8:A2 0C     LDX #$0C
	 02:90EA:20 BA E3  JSR $E3BA

	 02:90ED:18        CLC
	 02:90EE:A5 08     LDA $0008
	 02:90F0:65 0C     ADC $000C
	 02:90F2:85 18     STA $0018
	 02:90F4:A5 09     LDA $0009
	 02:90F6:65 0D     ADC $000D
	 02:90F8:85 19     STA $0019

	 02:90FA:A2 14     LDX #$14
	 02:90FC:20 BA E3  JSR $E3BA

	 02:90FF:A2 10     LDX #$10
	 02:9101:20 BA E3  JSR $E3BA

	 02:9104:18        CLC
	 02:9105:A5 18     LDA $0018
	 02:9107:A0 04     LDY #$04
	 02:9109:71 14     ADC ($14),Y
	 02:910B:91 10     STA ($10),Y
	 02:910D:A5 19     LDA $0019
	 02:910F:C8        INY
	 02:9110:71 14     ADC ($14),Y
	 02:9112:91 10     STA ($10),Y
	 
	 02:9114:A0 FA     LDY #$FA
	 02:9116:B1 06     LDA ($06),Y
	 02:9118:85 18     STA $0018
	 02:911A:C8        INY
	 02:911B:B1 06     LDA ($06),Y
	 02:911D:85 19     STA $0019
	 02:911F:A2 18     LDX #$18
	 02:9121:20 95 E3  JSR $E395
	 02:9124:A9 03     LDA #$03
	 02:9126:48        PHA
	 02:9127:A9 E8     LDA #$E8
	 02:9129:48        PHA
	 02:912A:A0 FA     LDY #$FA
	 02:912C:B1 06     LDA ($06),Y
	 02:912E:85 18     STA $0018
	 02:9130:C8        INY
	 02:9131:B1 06     LDA ($06),Y
	 02:9133:85 19     STA $0019
	 02:9135:A0 05     LDY #$05
	 02:9137:B1 18     LDA ($18),Y
	 02:9139:48        PHA
	 02:913A:88        DEY
	 02:913B:B1 18     LDA ($18),Y
	 02:913D:48        PHA
	 02:913E:20 38 E3  JSR $E338 -> $DD6C (06) -> Get smaller value
	 
	 02:9144:A2 18     LDX #$18
	 02:9146:20 BA E3  JSR $E3BA
	 
	 02:9149:A5 08     LDA $0008
	 02:914B:A0 04     LDY #$04
	 02:914D:91 18     STA ($18),Y
	 02:914F:A5 09     LDA $0009
	 02:9151:C8        INY
	 02:9152:91 18     STA ($18),Y
	 
	 02:9154:A0 FA     LDY #$FA
	 02:9156:B1 06     LDA ($06),Y
	 02:9158:85 18     STA $0018
	 02:915A:C8        INY
	 02:915B:B1 06     LDA ($06),Y
	 02:915D:85 19     STA $0019
	 
	 02:915F:A9 E8     LDA #$E8
	 02:9161:85 14     STA $0014
	 02:9163:A9 03     LDA #$03
	 02:9165:85 15     STA $0015
	 
	 02:9167:C8        INY
	 02:9168:B1 06     LDA ($06),Y
	 02:916A:85 10     STA $0010
	 02:916C:C8        INY
	 02:916D:B1 06     LDA ($06),Y
	 02:916F:85 11     STA $0011
	 
	 02:9171:A0 10     LDY #$10
	 02:9173:A2 14     LDX #$14
	 02:9175:A9 0C     LDA #$0C
	 02:9177:20 EB E1  JSR $E1EB
	 
	 02:917A:A5 0C     LDA $000C
	 02:917C:A0 06     LDY #$06
	 02:917E:91 18     STA ($18),Y
	 02:9180:A5 0D     LDA $000D
	 02:9182:C8        INY
	 02:9183:91 18     STA ($18),Y
	 
 02:9185:60        RTS -----------------------------------------
----------------------------------------------------------------
Function $9186 (00 62 FF)

 02:918C:48        PHA
 02:918D:48        PHA
 02:918E:48        PHA
 02:918F:A9 40     LDA #$40
 02:9191:48        PHA
 02:9192:18        CLC
 02:9193:A9 B2     LDA #$B2
 02:9195:65 06     ADC $0006
 02:9197:85 18     STA $0018
 02:9199:8A        TXA
 02:919A:65 07     ADC $0007
 02:919C:85 19     STA $0019
 02:919E:A5 19     LDA $0019
 02:91A0:48        PHA
 02:91A1:A5 18     LDA $0018
 02:91A3:48        PHA
 02:91A4:20 38 E3  JSR $E338 -> $F33A (08) (Initialize local array with 0x00)

 02:91AA:48        PHA
 02:91AB:48        PHA
 02:91AC:48        PHA
 02:91AD:A9 40     LDA #$40
 02:91AF:48        PHA
 02:91B0:18        CLC
 02:91B1:A9 72     LDA #$72
 02:91B3:65 06     ADC $0006
 02:91B5:85 18     STA $0018
 02:91B7:8A        TXA
 02:91B8:65 07     ADC $0007
 02:91BA:85 19     STA $0019
 02:91BC:A5 19     LDA $0019
 02:91BE:48        PHA
 02:91BF:A5 18     LDA $0018
 02:91C1:48        PHA
 02:91C2:20 38 E3  JSR $E338 -> $F33A (08) (Initialize local array with 0x00)

 02:91C8:A9 B2     LDA #$B2
 02:91CA:A0 66     LDY #$66
 02:91CC:91 06     STA ($06),Y
 02:91CE:A9 67     LDA #$67
 02:91D0:C8        INY
 02:91D1:91 06     STA ($06),Y ; loc_66 = 0x67B2
 
 02:91D3:A9 0A     LDA #$0A
 02:91D5:A0 64     LDY #$64
 02:91D7:91 06     STA ($06),Y
 02:91D9:A9 B5     LDA #$B5
 02:91DB:C8        INY
 02:91DC:91 06     STA ($06),Y ; loc_64 = 0xB50A
 
 02:91DE:8A        TXA
 02:91DF:A0 FA     LDY #$FA
 02:91E1:91 06     STA ($06),Y
 02:91E3:C8        INY
 02:91E4:91 06     STA ($06),Y ; loc_FA = 0x00
 
 02:91E6:A9 76     LDA #$76
 02:91E8:A0 FE     LDY #$FE
 02:91EA:91 06     STA ($06),Y
 02:91EC:A9 6F     LDA #$6F
 02:91EE:C8        INY
 02:91EF:91 06     STA ($06),Y ; loc_FE = 0x6F76 (start ptr)
 
 02:91F1:18        CLC
 02:91F2:A9 32     LDA #$32
 02:91F4:69 76     ADC #$76
 02:91F6:A0 FC     LDY #$FC
 02:91F8:91 06     STA ($06),Y
 02:91FA:8A        TXA
 02:91FB:69 6F     ADC #$6F
 02:91FD:C8        INY
 02:91FE:91 06     STA ($06),Y ; loc_FC = end ptr
 02:9200:4C 3F 92  JMP $923F
 
 
 02:9203:18        CLC
 02:9204:A9 01     LDA #$01
 02:9206:A0 FA     LDY #$FA
 02:9208:71 06     ADC ($06),Y
 02:920A:91 06     STA ($06),Y
 02:920C:8A        TXA
 02:920D:C8        INY
 02:920E:71 06     ADC ($06),Y
 02:9210:91 06     STA ($06),Y
 
 02:9212:18        CLC
 02:9213:A9 0E     LDA #$0E
 02:9215:A0 66     LDY #$66
 02:9217:71 06     ADC ($06),Y
 02:9219:91 06     STA ($06),Y
 02:921B:8A        TXA
 02:921C:C8        INY
 02:921D:71 06     ADC ($06),Y
 02:921F:91 06     STA ($06),Y
 02:9221:18        CLC
 02:9222:A9 05     LDA #$05
 02:9224:A0 64     LDY #$64
 02:9226:71 06     ADC ($06),Y
 02:9228:91 06     STA ($06),Y
 02:922A:8A        TXA
 02:922B:C8        INY
 02:922C:71 06     ADC ($06),Y
 02:922E:91 06     STA ($06),Y
 02:9230:18        CLC
 02:9231:A9 01     LDA #$01
 02:9233:A0 FE     LDY #$FE
 02:9235:71 06     ADC ($06),Y
 02:9237:91 06     STA ($06),Y
 02:9239:8A        TXA
 02:923A:C8        INY
 02:923B:71 06     ADC ($06),Y
 02:923D:91 06     STA ($06),Y
 
 02:923F:A0 FE     LDY #$FE
 02:9241:B1 06     LDA ($06),Y
 02:9243:A0 FC     LDY #$FC
 02:9245:D1 06     CMP ($06),Y
 02:9247:A0 FF     LDY #$FF
 02:9249:B1 06     LDA ($06),Y
 02:924B:A0 FD     LDY #$FD
 02:924D:F1 06     SBC ($06),Y
 02:924F:90 03     BCC $9254
 02:9251:4C F4 94  JMP $94F4
 
 02:9254:C8        INY
 02:9255:B1 06     LDA ($06),Y
 02:9257:85 18     STA $0018
 02:9259:C8        INY
 02:925A:B1 06     LDA ($06),Y
 02:925C:85 19     STA $0019
 02:925E:A1 18     LDA ($18,X)
 02:9260:85 14     STA $0014
 02:9262:86 15     STX $0015
 02:9264:A9 03     LDA #$03
 02:9266:25 14     AND $0014
 02:9268:A0 F4     LDY #$F4
 02:926A:91 06     STA ($06),Y
 02:926C:8A        TXA
 02:926D:C8        INY
 02:926E:91 06     STA ($06),Y
 
 02:9270:18        CLC
 02:9271:A9 04     LDA #$04
 02:9273:A0 64     LDY #$64
 02:9275:71 06     ADC ($06),Y
 02:9277:85 18     STA $0018
 02:9279:8A        TXA
 02:927A:C8        INY
 02:927B:71 06     ADC ($06),Y
 02:927D:85 19     STA $0019
 02:927F:A5 19     LDA $0019
 02:9281:48        PHA
 02:9282:A5 18     LDA $0018
 02:9284:48        PHA
 02:9285:20 38 E3  JSR $E338 -> $D30C (04)

 02:928B:86 09     STX $0009
 02:928D:A5 08     LDA $0008
 02:928F:A0 F2     LDY #$F2
 02:9291:91 06     STA ($06),Y
 02:9293:A5 09     LDA $0009
 02:9295:C8        INY
 02:9296:91 06     STA ($06),Y
 
 02:9298:A0 FB     LDY #$FB
 02:929A:B1 06     LDA ($06),Y
 02:929C:48        PHA
 02:929D:88        DEY
 02:929E:B1 06     LDA ($06),Y ; curPort
 02:92A0:48        PHA
 02:92A1:20 38 E3  JSR $E338 -> $8F1D (04) Upgrade economic/industrial worth

 02:92A7:18        CLC
 02:92A8:A9 B2     LDA #$B2
 02:92AA:65 06     ADC $0006 = #$0F
 02:92AC:85 18     STA $0018 = #$F4
 02:92AE:8A        TXA
 02:92AF:65 07     ADC $0007 = #$04
 02:92B1:85 19     STA $0019 = #$00
 02:92B3:84 14     STY $0014 = #$92
 02:92B5:86 15     STX $0015 = #$68
 02:92B7:A0 F2     LDY #$F2
 02:92B9:B1 06     LDA ($06),Y @ $0413 = #$06
 02:92BB:85 10     STA $0010 = #$92
 02:92BD:C8        INY
 02:92BE:B1 06     LDA ($06),Y @ $0413 = #$06
 02:92C0:85 11     STA $0011 = #$68
 
 02:92C2:A0 10     LDY #$10
 02:92C4:A2 14     LDX #$14
 02:92C6:A9 0C     LDA #$0C
 02:92C8:20 F0 E3  JSR $E3F0
 
 02:92CB:A9 04     LDA #$04
 02:92CD:85 14     STA $0014 = #$92
 02:92CF:86 15     STX $0015 = #$68
 02:92D1:A0 F4     LDY #$F4
 02:92D3:B1 06     LDA ($06),Y @ $0413 = #$06
 02:92D5:85 10     STA $0010 = #$92
 02:92D7:C8        INY
 02:92D8:B1 06     LDA ($06),Y @ $0413 = #$06
 02:92DA:85 11     STA $0011 = #$68
 
 02:92DC:A0 10     LDY #$10
 02:92DE:A2 14     LDX #$14
 02:92E0:A9 08     LDA #$08
 02:92E2:20 F0 E3  JSR $E3F0
 
 02:92E5:18        CLC
 02:92E6:A5 08     LDA $0008
 02:92E8:65 0C     ADC $000C
 02:92EA:85 14     STA $0014
 02:92EC:A5 09     LDA $0009
 02:92EE:65 0D     ADC $000D
 02:92F0:85 15     STA $0015
 
 02:92F2:18        CLC
 02:92F3:A5 14     LDA $0014
 02:92F5:65 18     ADC $0018
 02:92F7:85 10     STA $0010
 02:92F9:A5 15     LDA $0015
 02:92FB:65 19     ADC $0019
 02:92FD:85 11     STA $0011
 
 02:92FF:A9 04     LDA #$04
 02:9301:85 18     STA $0018
 02:9303:86 19     STX $0019
 
 02:9305:A0 66     LDY #$66
 02:9307:B1 06     LDA ($06),Y @ $0413 = #$06
 02:9309:85 14     STA $0014 = #$92
 02:930B:C8        INY
 02:930C:B1 06     LDA ($06),Y @ $0413 = #$06
 02:930E:85 15     STA $0015 = #$68
 02:9310:A1 14     LDA ($14,X) @ $6892 = #$4D
 02:9312:85 0C     STA $000C = #$F0
 02:9314:A0 01     LDY #$01
 02:9316:B1 14     LDA ($14),Y @ $6896 = #$81
 02:9318:85 0D     STA $000D = #$00
 
 02:931A:A2 10     LDX #$10
 02:931C:20 95 E3  JSR $E395
 
 02:931F:A2 18     LDX #$18
 02:9321:20 95 E3  JSR $E395
 
 02:9324:A2 0C     LDX #$0C
 02:9326:20 95 E3  JSR $E395
 
 02:9329:A0 65     LDY #$65
 02:932B:B1 06     LDA ($06),Y @ $0413 = #$06
 02:932D:48        PHA
 02:932E:88        DEY
 02:932F:B1 06     LDA ($06),Y @ $0413 = #$06
 02:9331:48        PHA
 02:9332:20 38 E3  JSR $E338 -> $D30C (04)

 02:9338:86 09     STX $0009 = #$00
 02:933A:18        CLC
 02:933B:98        TYA
 02:933C:65 08     ADC $0008 = #$04
 02:933E:85 18     STA $0018 = #$F4
 02:9340:8A        TXA
 02:9341:65 09     ADC $0009 = #$00
 02:9343:85 19     STA $0019 = #$00
 
 02:9345:A2 0C     LDX #$0C
 02:9347:20 BA E3  JSR $E3BA
 
 02:934A:A0 18     LDY #$18
 02:934C:A2 0C     LDX #$0C
 02:934E:A9 14     LDA #$14
 02:9350:20 77 E1  JSR $E177
 
 02:9353:A2 18     LDX #$18
 02:9355:20 BA E3  JSR $E3BA
 
 02:9358:A0 14     LDY #$14
 02:935A:A2 18     LDX #$18
 02:935C:A9 10     LDA #$10
 02:935E:20 B4 E1  JSR $E1B4
 
 02:9361:A2 18     LDX #$18
 02:9363:20 BA E3  JSR $E3BA
 
 02:9366:18        CLC
 02:9367:A1 18     LDA ($18,X) @ $00F4 = #$00
 02:9369:65 10     ADC $0010 = #$92
 02:936B:81 18     STA ($18,X) @ $00F4 = #$00
 02:936D:B1 18     LDA ($18),Y @ $00F8 = #$00
 02:936F:65 11     ADC $0011 = #$68
 02:9371:91 18     STA ($18),Y @ $00F8 = #$00
 
 02:9373:18        CLC
 02:9374:A9 72     LDA #$72
 02:9376:65 06     ADC $0006 = #$0F
 02:9378:85 18     STA $0018 = #$F4
 02:937A:8A        TXA
 02:937B:65 07     ADC $0007 = #$04
 02:937D:85 19     STA $0019 = #$00
 02:937F:84 14     STY $0014 = #$92
 02:9381:86 15     STX $0015 = #$68
 02:9383:A0 F2     LDY #$F2
 02:9385:B1 06     LDA ($06),Y @ $0413 = #$06
 02:9387:85 10     STA $0010 = #$92
 02:9389:C8        INY
 02:938A:B1 06     LDA ($06),Y @ $0413 = #$06
 02:938C:85 11     STA $0011 = #$68
 
 02:938E:A0 10     LDY #$10
 02:9390:A2 14     LDX #$14
 02:9392:A9 0C     LDA #$0C
 02:9394:20 F0 E3  JSR $E3F0
 
 02:9397:A9 04     LDA #$04
 02:9399:85 14     STA $0014 = #$92
 02:939B:86 15     STX $0015 = #$68
 
 02:939D:A0 F4     LDY #$F4
 02:939F:B1 06     LDA ($06),Y @ $0413 = #$06
 02:93A1:85 10     STA $0010 = #$92
 02:93A3:C8        INY
 02:93A4:B1 06     LDA ($06),Y @ $0413 = #$06
 02:93A6:85 11     STA $0011 = #$68
 
 02:93A8:A0 10     LDY #$10
 02:93AA:A2 14     LDX #$14
 02:93AC:A9 08     LDA #$08
 02:93AE:20 F0 E3  JSR $E3F0
 
 02:93B1:18        CLC
 02:93B2:A5 08     LDA $0008 = #$04
 02:93B4:65 0C     ADC $000C = #$F0
 02:93B6:85 14     STA $0014 = #$92
 02:93B8:A5 09     LDA $0009 = #$00
 02:93BA:65 0D     ADC $000D = #$00
 02:93BC:85 15     STA $0015 = #$68
 
 02:93BE:18        CLC
 02:93BF:A5 14     LDA $0014 = #$92
 02:93C1:65 18     ADC $0018 = #$F4
 02:93C3:85 10     STA $0010 = #$92
 02:93C5:A5 15     LDA $0015 = #$68
 02:93C7:65 19     ADC $0019 = #$00
 02:93C9:85 11     STA $0011 = #$68
 
 02:93CB:A0 66     LDY #$66
 02:93CD:B1 06     LDA ($06),Y @ $0413 = #$06
 02:93CF:85 18     STA $0018 = #$F4
 02:93D1:C8        INY
 02:93D2:B1 06     LDA ($06),Y @ $0413 = #$06
 02:93D4:85 19     STA $0019 = #$00
 02:93D6:18        CLC
 02:93D7:A1 10     LDA ($10,X) @ $6892 = #$4D
 02:93D9:A0 04     LDY #$04
 02:93DB:71 18     ADC ($18),Y @ $00F8 = #$00
 02:93DD:81 10     STA ($10,X) @ $6892 = #$4D
 02:93DF:A0 01     LDY #$01
 02:93E1:B1 10     LDA ($10),Y @ $6896 = #$81
 02:93E3:A0 05     LDY #$05
 02:93E5:71 18     ADC ($18),Y @ $00F8 = #$00
 02:93E7:A0 01     LDY #$01
 02:93E9:91 10     STA ($10),Y @ $6896 = #$81
 02:93EB:A0 66     LDY #$66
 02:93ED:B1 06     LDA ($06),Y @ $0413 = #$06
 02:93EF:85 18     STA $0018 = #$F4
 02:93F1:C8        INY
 02:93F2:B1 06     LDA ($06),Y @ $0413 = #$06
 02:93F4:85 19     STA $0019 = #$00
 02:93F6:A0 0B     LDY #$0B
 02:93F8:B1 18     LDA ($18),Y @ $00F8 = #$00
 02:93FA:85 14     STA $0014 = #$92
 02:93FC:86 15     STX $0015 = #$68
 02:93FE:A9 32     LDA #$32
 02:9400:C5 14     CMP $0014 = #$92
 02:9402:8A        TXA
 02:9403:E5 15     SBC $0015 = #$68
 02:9405:90 03     BCC $940A
 02:9407:4C 38 94  JMP $9438
 
 02:940A:A0 66     LDY #$66
 02:940C:B1 06     LDA ($06),Y @ $0413 = #$06
 02:940E:85 18     STA $0018 = #$F4
 02:9410:C8        INY
 02:9411:B1 06     LDA ($06),Y @ $0413 = #$06
 02:9413:85 19     STA $0019 = #$00
 02:9415:A0 0B     LDY #$0B
 02:9417:B1 18     LDA ($18),Y @ $00F8 = #$00
 02:9419:85 14     STA $0014 = #$92
 02:941B:86 15     STX $0015 = #$68
 02:941D:18        CLC
 02:941E:A9 CE     LDA #$CE
 02:9420:65 14     ADC $0014 = #$92
 02:9422:85 18     STA $0018 = #$F4
 02:9424:A9 FF     LDA #$FF
 02:9426:65 15     ADC $0015 = #$68
 02:9428:85 19     STA $0019 = #$00
 02:942A:A5 18     LDA $0018 = #$F4
 02:942C:A0 F6     LDY #$F6
 02:942E:91 06     STA ($06),Y
 02:9430:A5 19     LDA $0019 = #$00
 02:9432:C8        INY
 02:9433:91 06     STA ($06),Y
 02:9435:4C 62 94  JMP $9462
 
 02:9438:A0 66     LDY #$66
 02:943A:B1 06     LDA ($06),Y
 02:943C:85 18     STA $0018
 02:943E:C8        INY
 02:943F:B1 06     LDA ($06),Y
 02:9441:85 19     STA $0019
 02:9443:A0 0B     LDY #$0B
 02:9445:B1 18     LDA ($18),Y
 02:9447:85 14     STA $0014
 02:9449:86 15     STX $0015
 02:944B:38        SEC
 02:944C:A9 32     LDA #$32
 02:944E:E5 14     SBC $0014
 02:9450:85 18     STA $0018
 02:9452:8A        TXA
 02:9453:E5 15     SBC $0015
 02:9455:85 19     STA $0019
 02:9457:A5 18     LDA $0018
 02:9459:A0 F6     LDY #$F6
 02:945B:91 06     STA ($06),Y
 02:945D:A5 19     LDA $0019
 02:945F:C8        INY
 02:9460:91 06     STA ($06),Y
 
 02:9462:A9 05     LDA #$05
 02:9464:A0 F6     LDY #$F6
 02:9466:D1 06     CMP ($06),Y
 02:9468:8A        TXA
 02:9469:C8        INY
 02:946A:F1 06     SBC ($06),Y
 02:946C:90 03     BCC $9471
 02:946E:4C 7A 94  JMP $947A
 
 02:9471:A9 05     LDA #$05
 02:9473:85 18     STA $0018
 02:9475:86 19     STX $0019
 02:9477:4C 85 94  JMP $9485
 
 02:947A:A0 F6     LDY #$F6
 02:947C:B1 06     LDA ($06),Y
 02:947E:85 18     STA $0018
 02:9480:C8        INY
 02:9481:B1 06     LDA ($06),Y
 02:9483:85 19     STA $0019
 
 02:9485:A5 19     LDA $0019 = #$00
 02:9487:48        PHA
 02:9488:A5 18     LDA $0018 = #$F4
 02:948A:48        PHA
 02:948B:20 38 E3  JSR $E338 -> $CFE1 (04)

 02:9491:38        SEC
 02:9492:A0 F6     LDY #$F6
 02:9494:B1 06     LDA ($06),Y @ $0413 = #$06
 02:9496:E5 08     SBC $0008 = #$04
 02:9498:91 06     STA ($06),Y @ $0413 = #$06
 02:949A:C8        INY
 02:949B:B1 06     LDA ($06),Y @ $0413 = #$06
 02:949D:E5 09     SBC $0009 = #$00
 02:949F:91 06     STA ($06),Y @ $0413 = #$06
 02:94A1:A0 66     LDY #$66
 02:94A3:B1 06     LDA ($06),Y @ $0413 = #$06
 02:94A5:85 18     STA $0018 = #$F4
 02:94A7:C8        INY
 02:94A8:B1 06     LDA ($06),Y @ $0413 = #$06
 02:94AA:85 19     STA $0019 = #$00
 02:94AC:88        DEY
 02:94AD:B1 06     LDA ($06),Y @ $0413 = #$06
 02:94AF:85 14     STA $0014 = #$92
 02:94B1:C8        INY
 02:94B2:B1 06     LDA ($06),Y @ $0413 = #$06
 02:94B4:85 15     STA $0015 = #$68
 02:94B6:A0 0B     LDY #$0B
 02:94B8:B1 14     LDA ($14),Y @ $6896 = #$81
 02:94BA:85 10     STA $0010 = #$92
 02:94BC:86 11     STX $0011 = #$68
 02:94BE:A9 32     LDA #$32
 02:94C0:C5 10     CMP $0010 = #$92
 02:94C2:8A        TXA
 02:94C3:E5 11     SBC $0011 = #$68
 02:94C5:90 03     BCC $94CA
 02:94C7:4C DC 94  JMP $94DC
 
 if
	 02:94CA:18        CLC
	 02:94CB:A9 32     LDA #$32
	 02:94CD:A0 F6     LDY #$F6
	 02:94CF:71 06     ADC ($06),Y
	 02:94D1:85 14     STA $0014
	 02:94D3:8A        TXA
	 02:94D4:C8        INY
	 02:94D5:71 06     ADC ($06),Y
	 02:94D7:85 15     STA $0015
	 02:94D9:4C EB 94  JMP $94EB
 else
	 02:94DC:38        SEC
	 02:94DD:A9 32     LDA #$32
	 02:94DF:A0 F6     LDY #$F6
	 02:94E1:F1 06     SBC ($06),Y
	 02:94E3:85 14     STA $0014
	 02:94E5:8A        TXA
	 02:94E6:C8        INY
	 02:94E7:F1 06     SBC ($06),Y
	 02:94E9:85 15     STA $0015
 
 02:94EB:A5 14     LDA $0014 = #$92
 02:94ED:A0 0B     LDY #$0B
 02:94EF:91 18     STA ($18),Y @ $00F8 = #$00
 02:94F1:4C 03 92  JMP $9203
 02:94F4:8A        TXA
 02:94F5:48        PHA
 02:94F6:48        PHA
 02:94F7:48        PHA
 02:94F8:A9 06     LDA #$06
 02:94FA:48        PHA
 02:94FB:18        CLC
 02:94FC:A9 6C     LDA #$6C
 02:94FE:65 06     ADC $0006 = #$0F
 02:9500:85 18     STA $0018 = #$F4
 02:9502:8A        TXA
 02:9503:65 07     ADC $0007 = #$04
 02:9505:85 19     STA $0019 = #$00
 02:9507:A5 19     LDA $0019 = #$00
 02:9509:48        PHA
 02:950A:A5 18     LDA $0018 = #$F4
 02:950C:48        PHA
 02:950D:20 38 E3  JSR $E338 -> $F33A (08)

 02:9513:98        TYA
 02:9514:A0 FA     LDY #$FA
 02:9516:91 06     STA ($06),Y @ $0413 = #$06
 02:9518:8A        TXA
 02:9519:C8        INY
 02:951A:91 06     STA ($06),Y @ $0413 = #$06
 02:951C:18        CLC
 02:951D:A9 6C     LDA #$6C
 02:951F:65 06     ADC $0006 = #$0F
 02:9521:85 18     STA $0018 = #$F4
 02:9523:8A        TXA
 02:9524:65 07     ADC $0007 = #$04
 02:9526:85 19     STA $0019 = #$00
 02:9528:A5 18     LDA $0018 = #$F4
 02:952A:A0 6A     LDY #$6A
 02:952C:91 06     STA ($06),Y @ $0413 = #$06
 02:952E:A5 19     LDA $0019 = #$00
 02:9530:C8        INY
 02:9531:91 06     STA ($06),Y @ $0413 = #$06
 02:9533:18        CLC
 02:9534:A9 06     LDA #$06
 02:9536:65 18     ADC $0018 = #$F4
 02:9538:A0 68     LDY #$68
 02:953A:91 06     STA ($06),Y @ $0413 = #$06
 02:953C:8A        TXA
 02:953D:65 19     ADC $0019 = #$00
 02:953F:C8        INY
 02:9540:91 06     STA ($06),Y @ $0413 = #$06
 02:9542:4C 63 95  JMP $9563
 
 02:9545:18        CLC
 02:9546:A9 01     LDA #$01
 02:9548:A0 FA     LDY #$FA
 02:954A:71 06     ADC ($06),Y @ $0413 = #$06
 02:954C:91 06     STA ($06),Y @ $0413 = #$06
 02:954E:8A        TXA
 02:954F:C8        INY
 02:9550:71 06     ADC ($06),Y @ $0413 = #$06
 02:9552:91 06     STA ($06),Y @ $0413 = #$06
 02:9554:18        CLC
 02:9555:A9 02     LDA #$02
 02:9557:A0 6A     LDY #$6A
 02:9559:71 06     ADC ($06),Y @ $0413 = #$06
 02:955B:91 06     STA ($06),Y @ $0413 = #$06
 02:955D:8A        TXA
 02:955E:C8        INY
 02:955F:71 06     ADC ($06),Y @ $0413 = #$06
 02:9561:91 06     STA ($06),Y @ $0413 = #$06
 
 02:9563:A0 6A     LDY #$6A
 02:9565:B1 06     LDA ($06),Y @ $0413 = #$06
 02:9567:A0 68     LDY #$68
 02:9569:D1 06     CMP ($06),Y @ $0413 = #$06
 02:956B:A0 6B     LDY #$6B
 02:956D:B1 06     LDA ($06),Y @ $0413 = #$06
 02:956F:A0 69     LDY #$69
 02:9571:F1 06     SBC ($06),Y @ $0413 = #$06
 02:9573:90 03     BCC $9578
 02:9575:4C 99 97  JMP $9799
 
 02:9578:8A        TXA
 02:9579:A0 F8     LDY #$F8
 02:957B:91 06     STA ($06),Y @ $0413 = #$06
 02:957D:C8        INY
 02:957E:91 06     STA ($06),Y @ $0413 = #$06
 02:9580:4C 92 95  JMP $9592
 02:9583:18        CLC
 02:9584:A9 01     LDA #$01
 02:9586:A0 F8     LDY #$F8
 02:9588:71 06     ADC ($06),Y @ $0413 = #$06
 02:958A:91 06     STA ($06),Y @ $0413 = #$06
 02:958C:8A        TXA
 02:958D:C8        INY
 02:958E:71 06     ADC ($06),Y @ $0413 = #$06
 02:9590:91 06     STA ($06),Y @ $0413 = #$06
 02:9592:A0 F8     LDY #$F8
 02:9594:B1 06     LDA ($06),Y @ $0413 = #$06
 02:9596:C9 05     CMP #$05
 02:9598:C8        INY
 02:9599:B1 06     LDA ($06),Y @ $0413 = #$06
 02:959B:E9 00     SBC #$00
 02:959D:90 03     BCC $95A2
 02:959F:4C 86 96  JMP $9686
 
 02:95A2:18        CLC
 02:95A3:A9 72     LDA #$72
 02:95A5:65 06     ADC $0006 = #$0F
 02:95A7:85 18     STA $0018 = #$F4
 02:95A9:8A        TXA
 02:95AA:65 07     ADC $0007 = #$04
 02:95AC:85 19     STA $0019 = #$00
 02:95AE:A9 01     LDA #$01
 02:95B0:85 14     STA $0014 = #$92
 02:95B2:86 15     STX $0015 = #$68
 02:95B4:88        DEY
 02:95B5:B1 06     LDA ($06),Y @ $0413 = #$06
 02:95B7:85 10     STA $0010 = #$92
 02:95B9:C8        INY
 02:95BA:B1 06     LDA ($06),Y @ $0413 = #$06
 02:95BC:85 11     STA $0011 = #$68
 
 02:95BE:A0 10     LDY #$10
 02:95C0:A2 14     LDX #$14
 02:95C2:A9 0C     LDA #$0C
 02:95C4:20 F0 E3  JSR $E3F0
 
 02:95C7:A9 04     LDA #$04
 02:95C9:85 14     STA $0014 = #$92
 02:95CB:86 15     STX $0015 = #$68
 
 02:95CD:A0 FA     LDY #$FA
 02:95CF:B1 06     LDA ($06),Y @ $0413 = #$06
 02:95D1:85 10     STA $0010 = #$92
 02:95D3:C8        INY
 02:95D4:B1 06     LDA ($06),Y @ $0413 = #$06
 02:95D6:85 11     STA $0011 = #$68
 
 02:95D8:A0 10     LDY #$10
 02:95DA:A2 14     LDX #$14
 02:95DC:A9 08     LDA #$08
 02:95DE:20 F0 E3  JSR $E3F0   
 
 02:95E1:18        CLC
 02:95E2:A5 08     LDA $0008   
 02:95E4:65 0C     ADC $000C
 02:95E6:85 14     STA $0014
 02:95E8:A5 09     LDA $0009
 02:95EA:65 0D     ADC $000D
 02:95EC:85 15     STA $0015   
 
 02:95EE:18        CLC
 02:95EF:A5 14     LDA $0014
 02:95F1:65 18     ADC $0018
 02:95F3:85 10     STA $0010
 02:95F5:A5 15     LDA $0015
 02:95F7:65 19     ADC $0019
 02:95F9:85 11     STA $0011   
 
 02:95FB:A9 2B     LDA #$2B
 02:95FD:C1 10     CMP ($10,X)
 02:95FF:98        TYA
 02:9600:F1 10     SBC ($10),Y @ $6896 = #$81
 02:9602:90 03     BCC $9607
 02:9604:4C 86 96  JMP $9686
 
 02:9607:A0 6A     LDY #$6A
 02:9609:B1 06     LDA ($06),Y @ $0413 = #$06
 02:960B:85 18     STA $0018 = #$F4
 02:960D:C8        INY
 02:960E:B1 06     LDA ($06),Y @ $0413 = #$06
 02:9610:85 19     STA $0019 = #$00
 
 02:9612:18        CLC
 02:9613:A9 B2     LDA #$B2
 02:9615:65 06     ADC $0006 = #$0F
 02:9617:85 14     STA $0014 = #$92
 02:9619:8A        TXA
 02:961A:65 07     ADC $0007 = #$04
 02:961C:85 15     STA $0015 = #$68
 02:961E:A9 01     LDA #$01
 02:9620:85 10     STA $0010 = #$92
 02:9622:86 11     STX $0011 = #$68
 02:9624:A0 F8     LDY #$F8
 02:9626:B1 06     LDA ($06),Y @ $0413 = #$06
 02:9628:85 0C     STA $000C = #$F0
 02:962A:C8        INY
 02:962B:B1 06     LDA ($06),Y @ $0413 = #$06
 02:962D:85 0D     STA $000D = #$00
 
 02:962F:A0 0C     LDY #$0C
 02:9631:A2 10     LDX #$10
 02:9633:A9 08     LDA #$08
 02:9635:20 F0 E3  JSR $E3F0
 
 02:9638:A9 04     LDA #$04
 02:963A:85 10     STA $0010 = #$92
 02:963C:86 11     STX $0011 = #$68
 
 02:963E:A0 FA     LDY #$FA
 02:9640:B1 06     LDA ($06),Y @ $0413 = #$06
 02:9642:85 0C     STA $000C = #$F0
 02:9644:C8        INY
 02:9645:B1 06     LDA ($06),Y @ $0413 = #$06
 02:9647:85 0D     STA $000D = #$00
 
 02:9649:A2 18     LDX #$18
 02:964B:20 95 E3  JSR $E395
 
 02:964E:A0 0C     LDY #$0C
 02:9650:A2 10     LDX #$10
 02:9652:A9 18     LDA #$18
 02:9654:20 F0 E3  JSR $E3F0
 
 02:9657:18        CLC
 02:9658:A5 18     LDA $0018 = #$F4
 02:965A:65 08     ADC $0008 = #$04
 02:965C:85 10     STA $0010 = #$92
 02:965E:A5 19     LDA $0019 = #$00
 02:9660:65 09     ADC $0009 = #$00
 02:9662:85 11     STA $0011 = #$68
 
 02:9664:18        CLC
 02:9665:A5 10     LDA $0010 = #$92
 02:9667:65 14     ADC $0014 = #$92
 02:9669:85 18     STA $0018 = #$F4
 02:966B:A5 11     LDA $0011 = #$68
 02:966D:65 15     ADC $0015 = #$68
 02:966F:85 19     STA $0019 = #$00
 
 02:9671:A2 14     LDX #$14
 02:9673:20 BA E3  JSR $E3BA
 
 02:9676:18        CLC
 02:9677:A1 14     LDA ($14,X) @ $6892 = #$4D
 02:9679:61 18     ADC ($18,X) @ $00F4 = #$00
 02:967B:81 14     STA ($14,X) @ $6892 = #$4D
 02:967D:B1 14     LDA ($14),Y @ $6896 = #$81
 02:967F:71 18     ADC ($18),Y @ $00F8 = #$00
 02:9681:91 14     STA ($14),Y @ $6896 = #$81
 02:9683:4C 83 95  JMP $9583
 
 02:9686:A9 05     LDA #$05
 02:9688:A0 F8     LDY #$F8
 02:968A:91 06     STA ($06),Y @ $0413 = #$06
 02:968C:8A        TXA
 02:968D:C8        INY
 02:968E:91 06     STA ($06),Y @ $0413 = #$06
 02:9690:4C A2 96  JMP $96A2
 
 02:9693:18        CLC
 02:9694:A9 01     LDA #$01
 02:9696:A0 F8     LDY #$F8
 02:9698:71 06     ADC ($06),Y @ $0413 = #$06
 02:969A:91 06     STA ($06),Y @ $0413 = #$06
 02:969C:8A        TXA
 02:969D:C8        INY
 02:969E:71 06     ADC ($06),Y @ $0413 = #$06
 02:96A0:91 06     STA ($06),Y @ $0413 = #$06
 02:96A2:A0 F8     LDY #$F8
 
 02:96A4:B1 06     LDA ($06),Y @ $0413 = #$06
 02:96A6:C9 07     CMP #$07
 02:96A8:C8        INY
 02:96A9:B1 06     LDA ($06),Y @ $0413 = #$06
 02:96AB:E9 00     SBC #$00
 02:96AD:90 03     BCC $96B2
 02:96AF:4C 96 97  JMP $9796
 
 02:96B2:18        CLC
 02:96B3:A9 72     LDA #$72
 02:96B5:65 06     ADC $0006 = #$0F
 02:96B7:85 18     STA $0018 = #$F4
 02:96B9:8A        TXA
 02:96BA:65 07     ADC $0007 = #$04
 02:96BC:85 19     STA $0019 = #$00
 
 02:96BE:A9 01     LDA #$01
 02:96C0:85 14     STA $0014 = #$92
 02:96C2:86 15     STX $0015 = #$68
 
 02:96C4:88        DEY
 02:96C5:B1 06     LDA ($06),Y @ $0413 = #$06
 02:96C7:85 10     STA $0010 = #$92
 02:96C9:C8        INY
 02:96CA:B1 06     LDA ($06),Y @ $0413 = #$06
 02:96CC:85 11     STA $0011 = #$68
 
 02:96CE:A0 10     LDY #$10
 02:96D0:A2 14     LDX #$14
 02:96D2:A9 0C     LDA #$0C
 02:96D4:20 F0 E3  JSR $E3F0
 
 02:96D7:A9 04     LDA #$04
 02:96D9:85 14     STA $0014 = #$92
 02:96DB:86 15     STX $0015 = #$68
 
 02:96DD:A0 FA     LDY #$FA
 02:96DF:B1 06     LDA ($06),Y @ $0413 = #$06
 02:96E1:85 10     STA $0010 = #$92
 02:96E3:C8        INY
 02:96E4:B1 06     LDA ($06),Y @ $0413 = #$06
 02:96E6:85 11     STA $0011 = #$68
 
 02:96E8:A0 10     LDY #$10
 02:96EA:A2 14     LDX #$14
 02:96EC:A9 08     LDA #$08
 02:96EE:20 F0 E3  JSR $E3F0
 
 02:96F1:18        CLC
 02:96F2:A5 08     LDA $0008 = #$04
 02:96F4:65 0C     ADC $000C = #$F0
 02:96F6:85 14     STA $0014 = #$92
 02:96F8:A5 09     LDA $0009 = #$00
 02:96FA:65 0D     ADC $000D = #$00
 02:96FC:85 15     STA $0015 = #$68
 
 02:96FE:18        CLC
 02:96FF:A5 14     LDA $0014 = #$92
 02:9701:65 18     ADC $0018 = #$F4
 02:9703:85 10     STA $0010 = #$92
 02:9705:A5 15     LDA $0015 = #$68
 02:9707:65 19     ADC $0019 = #$00
 02:9709:85 11     STA $0011 = #$68
 
 02:970B:A9 2B     LDA #$2B
 02:970D:C1 10     CMP ($10,X) @ $6892 = #$4D
 02:970F:98        TYA
 02:9710:F1 10     SBC ($10),Y @ $6896 = #$81
 02:9712:90 03     BCC $9717
 02:9714:4C 93 97  JMP $9793
 
 02:9717:A0 6A     LDY #$6A
 02:9719:B1 06     LDA ($06),Y @ $0413 = #$06
 02:971B:85 18     STA $0018 = #$F4
 02:971D:C8        INY
 02:971E:B1 06     LDA ($06),Y @ $0413 = #$06
 02:9720:85 19     STA $0019 = #$00
 
 02:9722:18        CLC
 02:9723:A9 B2     LDA #$B2
 02:9725:65 06     ADC $0006 = #$0F
 02:9727:85 14     STA $0014 = #$92
 02:9729:8A        TXA
 02:972A:65 07     ADC $0007 = #$04
 02:972C:85 15     STA $0015 = #$68
 
 02:972E:A9 01     LDA #$01
 02:9730:85 10     STA $0010 = #$92
 02:9732:86 11     STX $0011 = #$68
 
 02:9734:A0 F8     LDY #$F8
 02:9736:B1 06     LDA ($06),Y @ $0413 = #$06
 02:9738:85 0C     STA $000C = #$F0
 02:973A:C8        INY
 02:973B:B1 06     LDA ($06),Y @ $0413 = #$06
 02:973D:85 0D     STA $000D = #$00
 
 02:973F:A0 0C     LDY #$0C
 02:9741:A2 10     LDX #$10
 02:9743:A9 08     LDA #$08
 02:9745:20 F0 E3  JSR $E3F0
 
 02:9748:A9 04     LDA #$04
 02:974A:85 10     STA $0010 = #$92
 02:974C:86 11     STX $0011 = #$68
 
 02:974E:A0 FA     LDY #$FA
 02:9750:B1 06     LDA ($06),Y @ $0413 = #$06
 02:9752:85 0C     STA $000C = #$F0
 02:9754:C8        INY
 02:9755:B1 06     LDA ($06),Y @ $0413 = #$06
 02:9757:85 0D     STA $000D = #$00
 
 02:9759:A2 18     LDX #$18
 02:975B:20 95 E3  JSR $E395
 
 02:975E:A0 0C     LDY #$0C
 02:9760:A2 10     LDX #$10
 02:9762:A9 18     LDA #$18
 02:9764:20 F0 E3  JSR $E3F0
 
 02:9767:18        CLC
 02:9768:A5 18     LDA $0018 = #$F4
 02:976A:65 08     ADC $0008 = #$04
 02:976C:85 10     STA $0010 = #$92
 02:976E:A5 19     LDA $0019 = #$00
 02:9770:65 09     ADC $0009 = #$00
 02:9772:85 11     STA $0011 = #$68
 
 02:9774:18        CLC
 02:9775:A5 10     LDA $0010 = #$92
 02:9777:65 14     ADC $0014 = #$92
 02:9779:85 18     STA $0018 = #$F4
 02:977B:A5 11     LDA $0011 = #$68
 02:977D:65 15     ADC $0015 = #$68
 02:977F:85 19     STA $0019 = #$00
 
 02:9781:A2 14     LDX #$14
 02:9783:20 BA E3  JSR $E3BA
 
 02:9786:18        CLC
 02:9787:A1 14     LDA ($14,X) @ $6892 = #$4D
 02:9789:61 18     ADC ($18,X) @ $00F4 = #$00
 02:978B:81 14     STA ($14,X) @ $6892 = #$4D
 02:978D:B1 14     LDA ($14),Y @ $6896 = #$81
 02:978F:71 18     ADC ($18),Y @ $00F8 = #$00
 02:9791:91 14     STA ($14),Y @ $6896 = #$81
 02:9793:4C 93 96  JMP $9693
 
 02:9796:4C 45 95  JMP $9545
 
 02:9799:8A        TXA
 02:979A:A0 FA     LDY #$FA
 02:979C:91 06     STA ($06),Y @ $0413 = #$06
 02:979E:C8        INY
 02:979F:91 06     STA ($06),Y @ $0413 = #$06
 02:97A1:A9 BC     LDA #$BC
 02:97A3:A0 62     LDY #$62
 02:97A5:91 06     STA ($06),Y @ $0413 = #$06
 02:97A7:A9 6F     LDA #$6F
 02:97A9:C8        INY
 02:97AA:91 06     STA ($06),Y @ $0413 = #$06
 
 02:97AC:18        CLC
 02:97AD:A9 6C     LDA #$6C
 02:97AF:65 06     ADC $0006 = #$0F
 02:97B1:85 18     STA $0018 = #$F4
 02:97B3:8A        TXA
 02:97B4:65 07     ADC $0007 = #$04
 02:97B6:85 19     STA $0019 = #$00
 
 02:97B8:A5 18     LDA $0018 = #$F4
 02:97BA:A0 6A     LDY #$6A
 02:97BC:91 06     STA ($06),Y @ $0413 = #$06
 02:97BE:A5 19     LDA $0019 = #$00
 02:97C0:C8        INY
 02:97C1:91 06     STA ($06),Y @ $0413 = #$06
 
 02:97C3:18        CLC
 02:97C4:A9 06     LDA #$06
 02:97C6:65 18     ADC $0018 = #$F4
 02:97C8:A0 68     LDY #$68
 02:97CA:91 06     STA ($06),Y @ $0413 = #$06
 02:97CC:8A        TXA
 02:97CD:65 19     ADC $0019 = #$00
 02:97CF:C8        INY
 02:97D0:91 06     STA ($06),Y @ $0413 = #$06
 02:97D2:4C 02 98  JMP $9802
 
 02:97D5:18        CLC
 02:97D6:A9 04     LDA #$04
 02:97D8:A0 62     LDY #$62
 02:97DA:71 06     ADC ($06),Y @ $0413 = #$06
 02:97DC:91 06     STA ($06),Y @ $0413 = #$06
 02:97DE:8A        TXA
 02:97DF:C8        INY
 02:97E0:71 06     ADC ($06),Y @ $0413 = #$06
 02:97E2:91 06     STA ($06),Y @ $0413 = #$06
 02:97E4:18        CLC
 02:97E5:A9 01     LDA #$01
 02:97E7:A0 FA     LDY #$FA
 02:97E9:71 06     ADC ($06),Y @ $0413 = #$06
 02:97EB:91 06     STA ($06),Y @ $0413 = #$06
 02:97ED:8A        TXA
 02:97EE:C8        INY
 02:97EF:71 06     ADC ($06),Y @ $0413 = #$06
 02:97F1:91 06     STA ($06),Y @ $0413 = #$06
 02:97F3:18        CLC
 02:97F4:A9 02     LDA #$02
 02:97F6:A0 6A     LDY #$6A
 02:97F8:71 06     ADC ($06),Y @ $0413 = #$06
 02:97FA:91 06     STA ($06),Y @ $0413 = #$06
 02:97FC:8A        TXA
 02:97FD:C8        INY
 02:97FE:71 06     ADC ($06),Y @ $0413 = #$06
 02:9800:91 06     STA ($06),Y @ $0413 = #$06
 
 02:9802:A0 6A     LDY #$6A
 02:9804:B1 06     LDA ($06),Y @ $0413 = #$06
 02:9806:A0 68     LDY #$68
 02:9808:D1 06     CMP ($06),Y @ $0413 = #$06
 02:980A:A0 6B     LDY #$6B
 02:980C:B1 06     LDA ($06),Y @ $0413 = #$06
 02:980E:A0 69     LDY #$69
 02:9810:F1 06     SBC ($06),Y @ $0413 = #$06
 02:9812:90 03     BCC $9817
 02:9814:4C 8F 98  JMP $988F
 
 02:9817:A0 62     LDY #$62
 02:9819:B1 06     LDA ($06),Y @ $0413 = #$06
 02:981B:85 18     STA $0018 = #$F4
 02:981D:C8        INY
 02:981E:B1 06     LDA ($06),Y @ $0413 = #$06
 02:9820:85 19     STA $0019 = #$00
 02:9822:A2 18     LDX #$18
 02:9824:20 95 E3  JSR $E395
 02:9827:A9 C3     LDA #$C3
 02:9829:48        PHA
 02:982A:A9 50     LDA #$50
 02:982C:48        PHA
 02:982D:A9 19     LDA #$19
 02:982F:85 18     STA $0018 = #$F4
 02:9831:86 19     STX $0019 = #$00
 02:9833:A0 6A     LDY #$6A
 02:9835:B1 06     LDA ($06),Y @ $0413 = #$06
 02:9837:85 14     STA $0014 = #$92
 02:9839:C8        INY
 02:983A:B1 06     LDA ($06),Y @ $0413 = #$06
 02:983C:85 15     STA $0015 = #$68
 02:983E:A1 14     LDA ($14,X) @ $6892 = #$4D
 02:9840:85 10     STA $0010 = #$92
 02:9842:A0 01     LDY #$01
 02:9844:B1 14     LDA ($14),Y @ $6896 = #$81
 02:9846:85 11     STA $0011 = #$68
 02:9848:A0 10     LDY #$10
 02:984A:A2 18     LDX #$18
 02:984C:A9 14     LDA #$14
 02:984E:20 D9 E1  JSR $E1D9
 02:9851:A2 14     LDX #$14
 02:9853:20 95 E3  JSR $E395
 02:9856:A0 FB     LDY #$FB
 02:9858:B1 06     LDA ($06),Y @ $0413 = #$06
 02:985A:48        PHA
 02:985B:88        DEY
 02:985C:B1 06     LDA ($06),Y @ $0413 = #$06
 02:985E:48        PHA
 02:985F:20 38 E3  JSR $E338 -> $8E63 (04)

 02:9865:A2 14     LDX #$14
 02:9867:20 BA E3  JSR $E3BA
 
 02:986A:A0 08     LDY #$08
 02:986C:A2 14     LDX #$14
 02:986E:A9 18     LDA #$18
 02:9870:20 77 E1  JSR $E177
 02:9873:A5 19     LDA $0019 = #$00
 02:9875:48        PHA
 02:9876:A5 18     LDA $0018 = #$F4
 02:9878:48        PHA
 02:9879:20 38 E3  JSR $E338 -> $DD6C (06)

 02:987F:A2 18     LDX #$18
 02:9881:20 BA E3  JSR $E3BA
 
 02:9884:A5 08     LDA $0008 = #$04
 02:9886:81 18     STA ($18,X) @ $00F4 = #$00
 02:9888:A5 09     LDA $0009 = #$00
 02:988A:91 18     STA ($18),Y @ $00F8 = #$00
 02:988C:4C D5 97  JMP $97D5
 
 02:988F:60        RTS -----------------------------------------
 ---------------------------------------------------------------
 Function $9890 (00 FA FF)

 02:9896:A9 6E     LDA #$6E
 02:9898:A0 FC     LDY #$FC
 02:989A:91 06     STA ($06),Y
 02:989C:A9 6A     LDA #$6A
 02:989E:C8        INY
 02:989F:91 06     STA ($06),Y ; loc_FC = 0x6A6E (loyalty)

 02:98A1:18        CLC
 02:98A2:A9 14     LDA #$14
 02:98A4:69 6E     ADC #$6E
 02:98A6:A0 FA     LDY #$FA
 02:98A8:91 06     STA ($06),Y
 02:98AA:8A        TXA
 02:98AB:69 6A     ADC #$6A
 02:98AD:C8        INY
 02:98AE:91 06     STA ($06),Y
 02:98B0:4C C2 98  JMP $98C2
 
 02:98B3:18        CLC
 02:98B4:A9 02     LDA #$02
 02:98B6:A0 FC     LDY #$FC
 02:98B8:71 06     ADC ($06),Y @ $0413 = #$06
 02:98BA:91 06     STA ($06),Y @ $0413 = #$06
 02:98BC:8A        TXA
 02:98BD:C8        INY
 02:98BE:71 06     ADC ($06),Y @ $0413 = #$06
 02:98C0:91 06     STA ($06),Y @ $0413 = #$06
 
 02:98C2:A0 FC     LDY #$FC
 02:98C4:B1 06     LDA ($06),Y @ $0413 = #$06
 02:98C6:A0 FA     LDY #$FA
 02:98C8:D1 06     CMP ($06),Y @ $0413 = #$06
 02:98CA:A0 FD     LDY #$FD
 02:98CC:B1 06     LDA ($06),Y @ $0413 = #$06
 02:98CE:A0 FB     LDY #$FB
 02:98D0:F1 06     SBC ($06),Y @ $0413 = #$06
 02:98D2:90 03     BCC $98D7
 02:98D4:4C 8D 99  JMP $998D
 
 02:98D7:C8        INY
 02:98D8:B1 06     LDA ($06),Y @ $0413 = #$06
 02:98DA:85 18     STA $0018 = #$F4
 02:98DC:C8        INY
 02:98DD:B1 06     LDA ($06),Y @ $0413 = #$06
 02:98DF:85 19     STA $0019 = #$00
 02:98E1:A0 01     LDY #$01
 02:98E3:B1 18     LDA ($18),Y @ $00F8 = #$00
 02:98E5:85 14     STA $0014 = #$92
 02:98E7:86 15     STX $0015 = #$68
 02:98E9:A5 14     LDA $0014 = #$92
 02:98EB:C9 FF     CMP #$FF
 02:98ED:D0 04     BNE $98F3
 02:98EF:A5 15     LDA $0015 = #$68
 02:98F1:C9 00     CMP #$00
 02:98F3:D0 03     BNE $98F8
 02:98F5:4C 8A 99  JMP $998A

 02:98F8:8A        TXA
 02:98F9:48        PHA
 02:98FA:A9 03     LDA #$03
 02:98FC:48        PHA
 02:98FD:20 38 E3  JSR $E338 -> $CFE1 (04)

 02:9903:A0 FC     LDY #$FC
 02:9905:B1 06     LDA ($06),Y @ $0413 = #$06
 02:9907:85 18     STA $0018 = #$F4
 02:9909:C8        INY
 02:990A:B1 06     LDA ($06),Y @ $0413 = #$06
 02:990C:85 19     STA $0019 = #$00
 02:990E:A0 01     LDY #$01
 02:9910:B1 18     LDA ($18),Y @ $00F8 = #$00
 02:9912:85 14     STA $0014 = #$92
 02:9914:86 15     STX $0015 = #$68

 02:9916:18        CLC
 02:9917:A5 14     LDA $0014 = #$92
 02:9919:65 08     ADC $0008 = #$04
 02:991B:85 18     STA $0018 = #$F4
 02:991D:A5 15     LDA $0015 = #$68
 02:991F:65 09     ADC $0009 = #$00
 02:9921:85 19     STA $0019 = #$00

 02:9923:18        CLC
 02:9924:A9 FF     LDA #$FF
 02:9926:65 18     ADC $0018
 02:9928:A0 FE     LDY #$FE
 02:992A:91 06     STA ($06),Y

 02:992C:A9 FF     LDA #$FF
 02:992E:65 19     ADC $0019 = #$00
 02:9930:C8        INY
 02:9931:91 06     STA ($06),Y @ $0413 = #$06
 02:9933:B1 06     LDA ($06),Y @ $0413 = #$06
 02:9935:30 03     BMI $993A
 02:9937:4C 46 99  JMP $9946
 
 02:993A:A9 31     LDA #$31
 02:993C:88        DEY
 02:993D:91 06     STA ($06),Y @ $0413 = #$06
 02:993F:8A        TXA
 02:9940:C8        INY
 02:9941:91 06     STA ($06),Y @ $0413 = #$06
 02:9943:4C 78 99  JMP $9978
 
 02:9946:A9 31     LDA #$31
 02:9948:A0 FE     LDY #$FE
 02:994A:D1 06     CMP ($06),Y @ $0413 = #$06
 02:994C:8A        TXA
 02:994D:C8        INY
 02:994E:F1 06     SBC ($06),Y @ $0413 = #$06
 02:9950:70 04     BVS $9956
 02:9952:30 07     BMI $995B
 02:9954:10 02     BPL $9958
 02:9956:10 03     BPL $995B
 02:9958:4C 62 99  JMP $9962
 
 02:995B:86 18     STX $0018 = #$F4
 02:995D:86 19     STX $0019 = #$00
 02:995F:4C 6D 99  JMP $996D
 
 02:9962:A0 FE     LDY #$FE
 02:9964:B1 06     LDA ($06),Y @ $0413 = #$06
 02:9966:85 18     STA $0018 = #$F4
 02:9968:C8        INY
 02:9969:B1 06     LDA ($06),Y @ $0413 = #$06
 02:996B:85 19     STA $0019 = #$00
 
 02:996D:A5 18     LDA $0018 = #$F4
 02:996F:A0 FE     LDY #$FE
 02:9971:91 06     STA ($06),Y @ $0413 = #$06
 02:9973:A5 19     LDA $0019 = #$00
 02:9975:C8        INY
 02:9976:91 06     STA ($06),Y @ $0413 = #$06
 
 02:9978:A0 FC     LDY #$FC
 02:997A:B1 06     LDA ($06),Y @ $0413 = #$06
 02:997C:85 18     STA $0018 = #$F4
 02:997E:C8        INY
 02:997F:B1 06     LDA ($06),Y @ $0413 = #$06
 02:9981:85 19     STA $0019 = #$00
 02:9983:C8        INY
 02:9984:B1 06     LDA ($06),Y @ $0413 = #$06
 02:9986:A0 01     LDY #$01
 02:9988:91 18     STA ($18),Y @ $00F8 = #$00
 02:998A:4C B3 98  JMP $98B3
 02:998D:60        RTS -----------------------------------------
----------------------------------------------------------------
Function $998E (00 FC FF)

 02:9994:A9 2C     LDA #$2C
 02:9996:A0 FE     LDY #$FE
 02:9998:91 06     STA ($06),Y
 02:999A:A9 65     LDA #$65
 02:999C:C8        INY
 02:999D:91 06     STA ($06),Y ; loc_FE = 0x652C
 
 02:999F:18        CLC
 02:99A0:A9 14     LDA #$14
 02:99A2:69 2C     ADC #$2C
 02:99A4:A0 FC     LDY #$FC
 02:99A6:91 06     STA ($06),Y @ $0413 = #$06
 02:99A8:8A        TXA
 02:99A9:69 65     ADC #$65
 02:99AB:C8        INY
 02:99AC:91 06     STA ($06),Y @ $0413 = #$06
 02:99AE:4C C0 99  JMP $99C0
 
 02:99B1:18        CLC
 02:99B2:A9 01     LDA #$01
 02:99B4:A0 FE     LDY #$FE
 02:99B6:71 06     ADC ($06),Y @ $0413 = #$06
 02:99B8:91 06     STA ($06),Y @ $0413 = #$06
 02:99BA:8A        TXA
 02:99BB:C8        INY
 02:99BC:71 06     ADC ($06),Y @ $0413 = #$06
 02:99BE:91 06     STA ($06),Y @ $0413 = #$06
 
 02:99C0:A0 FE     LDY #$FE
 02:99C2:B1 06     LDA ($06),Y @ $0413 = #$06
 02:99C4:A0 FC     LDY #$FC
 02:99C6:D1 06     CMP ($06),Y @ $0413 = #$06
 02:99C8:A0 FF     LDY #$FF
 02:99CA:B1 06     LDA ($06),Y @ $0413 = #$06
 02:99CC:A0 FD     LDY #$FD
 02:99CE:F1 06     SBC ($06),Y @ $0413 = #$06
 02:99D0:90 03     BCC $99D5
 02:99D2:4C 2D 9A  JMP $9A2D
 
 02:99D5:C8        INY
 02:99D6:B1 06     LDA ($06),Y @ $0413 = #$06
 02:99D8:85 18     STA $0018 = #$F4
 02:99DA:C8        INY
 02:99DB:B1 06     LDA ($06),Y @ $0413 = #$06
 02:99DD:85 19     STA $0019 = #$00
 02:99DF:A2 18     LDX #$18
 02:99E1:20 95 E3  JSR $E395
 02:99E4:A0 FE     LDY #$FE
 02:99E6:B1 06     LDA ($06),Y @ $0413 = #$06
 02:99E8:85 18     STA $0018 = #$F4
 02:99EA:C8        INY
 02:99EB:B1 06     LDA ($06),Y @ $0413 = #$06
 02:99ED:85 19     STA $0019 = #$00
 02:99EF:A1 18     LDA ($18,X) @ $00F4 = #$00
 02:99F1:85 14     STA $0014 = #$92
 02:99F3:86 15     STX $0015 = #$68
 02:99F5:A5 15     LDA $0015 = #$68
 02:99F7:48        PHA
 02:99F8:A5 14     LDA $0014 = #$92
 02:99FA:48        PHA
 02:99FB:8A        TXA
 02:99FC:48        PHA
 02:99FD:A9 04     LDA #$04
 02:99FF:48        PHA
 02:9A00:20 38 E3  JSR $E338 -> $CFE1 (04)

 02:9A06:18        CLC
 02:9A07:A9 05     LDA #$05
 02:9A09:65 08     ADC $0008 = #$04
 02:9A0B:85 18     STA $0018 = #$F4
 02:9A0D:8A        TXA
 02:9A0E:65 09     ADC $0009 = #$00
 02:9A10:85 19     STA $0019 = #$00
 02:9A12:A5 19     LDA $0019 = #$00
 02:9A14:48        PHA
 02:9A15:A5 18     LDA $0018 = #$F4
 02:9A17:48        PHA
 02:9A18:20 38 E3  JSR $E338 -> $DD6C (06)

 02:9A1E:A2 18     LDX #$18
 02:9A20:20 BA E3  JSR $E3BA
 
 02:9A23:38        SEC
 02:9A24:A1 18     LDA ($18,X) @ $00F4 = #$00
 02:9A26:E5 08     SBC $0008 = #$04
 02:9A28:81 18     STA ($18,X) @ $00F4 = #$00
 02:9A2A:4C B1 99  JMP $99B1
 02:9A2D:60        RTS -----------------------------------------
----------------------------------------------------------------
 02:9A2E:FF        UNDEFINED
 02:9A2F:00        BRK
 02:9A30:02        UNDEFINED
 02:9A31:03        UNDEFINED
 02:9A32:00        BRK
 02:9A33:FF        UNDEFINED
 02:9A34:01 04     ORA ($04,X) @ $050F = #$75
 02:9A36:02        UNDEFINED
 02:9A37:01 FF     ORA ($FF,X) @ $E700 = #$A5
 02:9A39:05 03     ORA $0003 = #$05
 02:9A3B:04        UNDEFINED
 02:9A3C:05 FF     ORA $00FF = #$00
 02:9A3E:FF        UNDEFINED
 02:9A3F:00        BRK
 02:9A40:01 02     ORA ($02,X) @ $0509 = #$92
 02:9A42:FF        UNDEFINED
 02:9A43:03        UNDEFINED
 02:9A44:04        UNDEFINED
 02:9A45:05 FF     ORA $00FF = #$00
 02:9A47:00        BRK
 02:9A48:FF        UNDEFINED
 02:9A49:A4 79     LDY $0079 = #$00
 02:9A4B:A8        TAY
 02:9A4C:88        DEY
 02:9A4D:AB        UNDEFINED
 02:9A4E:FF        UNDEFINED