Page E1
ROM: 0x02010-0x0400F
----------------------------------------------------
Function $8000
8000 JMP $8397
----------------------------------------------------
     00 01 02 03 04 05 06 07 08 09 0A 0B 0C 0D 0E 0F
8000          20 D1 E4 FE FF A5 2E 78 8C F0 00 DA 54
8010 BE A2 FF FF A5 2E 78 5F DA A2 FE FF A0 FF FF 52
8020 C0 D8 32 80 A0 FE FF 55 C0 D8 32 80 8E E7 00 D6
8030 51 80 A0 FF FF 55 C0 D8 48 80 A0 FE FF 55 C0 D8
8040 48 80 8E F5 00 D6 51 80 A0 FF FF 8C 4E 9E BB D3
8050 B3 62 62 E9 E6 EE 06 CF 

Function $8003 (FE FF)
8008 A5 2E 78    
800B 8C F0 00
800E DA
800F 54
8010 BE 
8011 A2 FF FF

8014 A5 2E 78
8017 5F
8018 DA
8019 A2 FE FF

801C A0 FF FF
801F 52
8020 C0
8021 D8 32 80

8024	A0 FE FF
8027	55
8028	C0
8029	D8 32 80

802C	   8E E7 00
802F       D6 51 80

8032 A0 FF FF
8035 55
8036 C0
8037 D8 48 80

803A    A0 FE FF
803D	55
803E	C0
803F	D8 48 80

8042	   8E F5 00
8045	   D6 51 80

8048 A0 FF FF
804B 8C 4E 9E
804E BB
804F D3
8050 B3

8051 62
8052 62
8053 E9 E6 EE 06 / Bank switch

8057 CF
----------------------------------------------------
     00 01 02 03 04 05 06 07 08 09 0A 0B 0C 0D 0E 0F
8050                         20 D1 E4 FE FF AA 2F 78
8060 E9 B3 D1 02 8A FF 00 A9 82 7C 61 AA 2F 78 E9 60
8070 8C 04 8A FF 00 A9 2E 78 D6 52 81 A4 2A 78 74 B0
8080 2B D7 8A 80 AC 12 97 D6 A4 80 AA 2F 78 3B E9 6A
8090 D5 04 D8 A4 80 8A 80 00 A9 2E 78 AC 03 80 8A FF
80A0 00 A9 2E 78 AC E5 96 A4 2F 78 8C F4 73 BC 8B 19
80B0 B8 D0 B3 60 AA 2C 78 E9 2D C1 04 B3 8E 58 9E E9
80C0 9D C6 06 AC 8E 99 A5 2E 78 D9 01 00 FF 00 D2 80
80D0 F1 80 8E 65 AE 8E F0 00 62 E9 12 F4 06 D8 04 81
80E0 AC E5 96 AA 2F 78 E9 E3 8D 02 D6 04 81 41 D6 29
80F0 81 AC 03 80 A5 2E 78 8C 90 00 C0 D8 04 81 8A FF
8100 00 A9 2E 78 A5 31 78 51 DA D8 52 81 AC E4 D1 AC
8110 38 9C AC 3B D3 AC A3 97 AC B4 E0 A4 2F 78 8F 10
8120 D3 8C 80 00 DA D7 ED 80 40 D7 3A 81 8A FF 00 A9
8130 82 7C 61 AA 2F 78 E9 60 8C 04 A4 2F 78 A8 5E 78
8140 8A FE 00 CD A5 31 78 DA A9 31 78 AA 2F 78 E9 B3
8150 D1 02 A4 2F 78 8F 10 D3 8C 80 00 DA D8 63 81 41
8160 D6 64 81 40 D7 8D 81 AA 2F 78 E9 BA D8 02 D7 75
8170 81 41 D6 76 81 40 D7 8D 81 AC 59 8E D7 8D 81 AA
8180 2F 78 E9 BA D8 02 A6 2A 78 C0 D7 7B 80 8A FF 00
8190 A9 2E 78 CF 

Function $8058 (FE FF)

805D AA 2F 78    /
8060 E9 B3 D1 02 / Call $D1B3
8064 8A FF 00    /
8067 A9 82 7C    /
806A 61
806B AA 2F 78    /
806E E9 60 8C 04 / Call $8C60
8072 8A FF 00
8075 A9 2E 78
8078 D6 52 81

LOOP:
807B A4 2A 78
807E 74
807F B0
8080 2B
8081 D7 8A 80
8084 AC 12 97
8087 D6 A4 80
808A AA 2F 78
808D 3B
808E E9 6A D5 04
8092 D8 A4 80
8095 8A 80 00
8098 A9 2E 78
809B AC 03 80
809E 8A FF 00
80A1 A9 2E 78
80A4 AC E5 96
80A7 A4 2F 78
80AA 8C F4 73
80AD BC
80AE 8B 19
80B0 B8
80B1 D0
80B2 B3
80B3 60
80B4 AA 2C 78
80B7 E9 2D C1 04
80BB B3
80BC 8E 58 9E    | "Master %s,\nyour orders for\nProvince %2d ?"
80BF E9 9D C6 06 | Print

80C3 AC 8E 99
80C6 A5 2E 78
80C9 D9 01 00
        FF 00
		D2 80
		F1 80
80D2 8E 65 AE
80D5 8E F0 00
80D8 62
80D9 E9 12 F4 06
80DD D8 04 81
80E0 AC E5 96
80E3 AA 2F 78
80E6 E9 E3 8D 02
80EA D6 04 81

80ED 41
80EE D6 29 81
 		
80F1 AC 03 80
80F4 A5 2E 78
80F7 8C 90 00
80FA C0
80FB D8 04 81

80FE 8A FF 00
8101 A9 2E 78
8104 A5 31 78
8107 51
8108 DA
8109 D8 52 81

810C AC E4 D1
810F AC 38 9C
8112 AC 3B D3
8115 AC A3 97
8118 AC B4 E0

811B A4 2F 78
811E 8F 10
8120 D3
8121 8C 80 00
8124 DA
8125 D7 ED 80

8128 40
8129 D7 3A 81

812C 8A FF 00
812F A9 82 7C
8132 61
8133 AA 2F 78
8136 E9 60 8C 04
813A A4 2F 78
813D A8 5E 78
8140 8A FE 00
8143 CD
8144 A5 31 78
8147 DA 
8148 A9 31 78
814B AA 2F 78
814E E9 B3 D1 02

8152 A4 2F 78
8155 8F 10
8157 D3
8158 8C 80 00
815B DA
815C D8 63 81

815F 41
8160 D6 64 81

8163 40

8164 D7 8D 81
8167 AA 2F 78
816A E9 BA D8 02
816E D7 75 81

8171 41
8172 D6 76 81

8175 40

8176 D7 8D 81
8179 AC 59 8E
817C D7 8D 81

817F AA 2F 78
8182 E9 BA D8 02

8186 A6 2A 78
8189 C0
818A D7 7B 80

818D 8A FF 00
8190 A9 2E 78
8193 CF
----------------------------------------------------
     00 01 02 03 04 05 06 07 08 09 0A 0B 0C 0D 0E 0F
8190             20 D1 E4 F6 FF 8A 07 78 2B A5 45 78
81A0 8B 20 DA D8 BC 81 A5 29 78 D2 CD 0B BB 2B 8A DF
81B0 00 CD A5 45 78 DA A9 45 78 D6 83 82 40 A9 29 78
81C0 D6 83 82 A4 2A 78 B0 D8 76 82 AC 59 8E D8 DC 81
81D0 8E FE 00 A4 2A 78 77 B4 B3 D3 DA D4 64 8E 7A A5
81E0 8E E0 00 62 E9 12 F4 08 60 A4 2A 78 B0 B3 E9 2D
81F0 C1 04 B3 A5 29 78 D0 B3 8E 82 9E E9 9D C6 06 AA
8200 2A 78 E9 E2 D4 02 D8 0C 82 AC 3B D3 A4 2A 78 72
8210 D6 54 82 AA 2F 78 E9 BA D8 02 A6 2A 78 C1 D7 5E
8220 82 A4 2A 78 B0 A8 2C 78 A4 2F 78 8F 10 D3 8C 80
8230 00 DA D8 39 82 41 D6 3A 82 40 D7 51 82 A4 2F 78
8240 7F D3 8C FF 00 C1 D8 4D 82 41 D6 4E 82 40 D8 8C
8250 82 A4 2F 78 B0 A8 2F 78 A4 2F 78 D7 13 82 AA 2A
8260 78 E9 E2 D4 02 D8 76 82 A5 81 7C 5F DA D8 73 82
8270 AC 3B D3 AC 79 97 0B 72 2B 8F FE A5 29 78 D0 A9
8280 29 78 D1 0B B0 A8 2A 78 D7 C3 81 CF A4 2F 78 A8
8290 5E 78 AA 2A 78 E9 E2 D4 02 D8 B5 82 A4 2F 78 8F
82A0 10 D3 54 DA D8 AB 82 41 D6 AC 82 40 D7 B5 82 AC
82B0 58 80 D6 52 83 40 A2 FA FF A5 81 7C 5F DA D7 0B
82C0 83 60 AA 2F 78 E9 34 C2 04 28 61 AA 2F 78 E9 34
82D0 C2 04 27 8E FF 00 DE FB FF B3 60 61 61 37 08 D1
82E0 B3 8D 18 E9 E6 EE 10 A0 FB FF 8C C0 00 DC A2 FC
82F0 FF 8E FF 00 DE FC FF B3 60 61 61 37 08 D1 B3 68
8300 E9 E6 EE 10 41 A2 FA FF D6 16 83 8E 3A AF 8E F0
8310 00 62 E9 12 F4 06 A5 2E 78 A2 FD FF 8A F0 00 A9
8320 2E 78 8E E4 00 62 62 E9 E6 EE 06 A0 FD FF A9 2E
8330 78 A5 81 7C 5F DA D7 52 83 A0 FA FF D8 52 83 8E
8340 FF 00 DE FB FF B3 60 61 61 37 08 D1 B3 68 E9 E6
8350 EE 10 40 A8 5E 78 AC 59 8E D8 6B 83 8E FE 00 A4
8360 2A 78 77 B4 B3 D3 DA D4 D6 5E 82 AA 2F 78 E9 BA
8370 D8 02 D7 79 83 41 D6 7A 83 40 D7 88 83 A4 2A 78
8380 77 D3 8B 10 DA D8 51 82 8E EF 00 A4 2A 78 77 B4
8390 B3 D3 DA D4 D6 0C 82 

Function $8194 (F6 FF)

8199 8A 07 78    / load #$7807 (list of nations)
819C 2B
819D A5 45 78    / load $7845
81A0 8B 20
81A2 DA
81A3 D8 BC 81

81A6	A5 29 78    / load $7829 (nation turn #)
81A9	D2
81AA	CD
81AB	0B
81AC	BB
81AD	2B
81AE	8A DF 00
81B1	CD
81B2	A5 45 78
81B5	DA
81B6	A9 45 78
81B9	D6 83 82

81BC	40
81BD	A9 29 78    / $7829 Nation turn #
81C0	D6 83 82

LOOP:
81C3 A4 2A 78       / $782A = Active Nation
81C6 B0
81C7 D8 76 82

81CA	AC 59 8E       / Call $8E59
81CD	D8 DC 81

81D0	   8E FE 00
81D3	   A4 2A 78
81D6       77
81D7	   B4
81D8	   B3
81D9	   D3
81DA	   DA
81DB	   D4

81DC	64
81DD	8E 7A A5    
81E0	8E E0 00
81E3	62
81E4	E9 12 F4 08 / Call $F412 -> E0:A57A

81E8 60
81E9 A4 2A 78    / $782A (Active nation)
81EC B0
81ED B3
81EE E9 2D C1 04 / Call $C12D -> Get name of ruler
81F2 B3
81F3 A5 29 78    / $7829 -> Nation turn #
81F6 D0
81F7 B3
81F8 8E 82 9E    / $9E82 "No.%2d %-17s\nnow plotting strategy"
81FB E9 9D C6 06 / Call $C69D -> Print

81FF AA 2A 78    / $782A (Active nation)
8202 E9 E2 D4 02 / Call $D4E2 -> Check if player-controlled
8206 D8 0C 82

	8209 AC 3B D3    / Call $D33B

820C A4 2A 78        / $782A (Active nation)
820F 72
8210 D6 54 82

Loop:
8213 AA 2F 78        / $782F (Active province)
8216 E9 BA D8 02     / Call $D8BA (Get nation of province)
821A A6 2A 78        / $782A
821D C1
821E D7 5E 82

8221 A4 2A 78
8224 B0
8225 A8 2C 78        / $782C

8228 A4 2F 78        / $782F (Active province)
822B 8F 10
822D D3
822E 8C 80 00
8231 DA
8232 D8 39 82

8235 41
8236 D6 3A 82

8239 40

823A D7 51 82

823D A4 2F 78    / $782F (Active province)
8240 7F
8241 D3          / Invaded
8242 8C FF 00
8245 C1
8246 D8 4D 82

8249 41
824A D6 4E 82

824D 40

824E D8 8C 82

8251 A4 2F 78

Bounds check:
8254 B0
8255 A8 2F 78

8258 A4 2F 78

8276

8283

828C

     00 01 02 03 04 05 06 07 08 09 0A 0B 0C 0D 0E 0F
8250 82 A4 2F 78 B0 A8 2F 78 A4 2F 78 D7 13 82 AA 2A
8260 78 E9 E2 D4 02 D8 76 82 A5 81 7C 5F DA D8 73 82
8270 AC 3B D3 AC 79 97 0B 72 2B 8F FE A5 29 78 D0 A9
8280 29 78 D1 0B B0 A8 2A 78 D7 C3 81 CF A4 2F 78 A8
8290 5E 78 AA 2A 78 E9 E2 D4 02 D8 B5 82 A4 2F 78 8F
82A0 10 D3 54 DA D8 AB 82 41 D6 AC 82 40 D7 B5 82 AC
82B0 58 80 D6 52 83 40 A2 FA FF A5 81 7C 5F DA D7 0B
82C0 83 60 AA 2F 78 E9 34 C2 04 28 61 AA 2F 78 E9 34
82D0 C2 04 27 8E FF 00 DE FB FF B3 60 61 61 37 08 D1
82E0 B3 8D 18 E9 E6 EE 10 A0 FB FF 8C C0 00 DC A2 FC
82F0 FF 8E FF 00 DE FC FF B3 60 61 61 37 08 D1 B3 68
8300 E9 E6 EE 10 41 A2 FA FF D6 16 83 8E 3A AF 8E F0
8310 00 62 E9 12 F4 06 A5 2E 78 A2 FD FF 8A F0 00 A9
8320 2E 78 8E E4 00 62 62 E9 E6 EE 06 A0 FD FF A9 2E
8330 78 A5 81 7C 5F DA D7 52 83 A0 FA FF D8 52 83 8E
8340 FF 00 DE FB FF B3 60 61 61 37 08 D1 B3 68 E9 E6
8350 EE 10 40 A8 5E 78 AC 59 8E D8 6B 83 8E FE 00 A4
8360 2A 78 77 B4 B3 D3 DA D4 D6 5E 82 AA 2F 78 E9 BA
8370 D8 02 D7 79 83 41 D6 7A 83 40 D7 88 83 A4 2A 78
8380 77 D3 8B 10 DA D8 51 82 8E EF 00 A4 2A 78 77 B4
8390 B3 D3 DA D4 D6 0C 82 
----------------------------------------------------
     00 01 02 03 04 05 06 07 08 09 0A 0B 0C 0D 0E 0F
8390                      20 D1 E4 00 00 AC 71 D3 AC
83A0 94 81 CF 

Function $8397 (00 00)

839C AC 71 D3
839F AC 94 81
83A2 CF
----------------------------------------------------
     00 01 02 03 04 05 06 07 08 09 0A 0B 0C 0D 0E 0F
83A0          20 D1 E4 00 00 0D 50 C2 D8 B9 83 0D CB
83B0 B3 3C E9 3B D8 04 D6 C2 83 8D 64 0D B3 3C E9 02
83C0 D8 06 CF 

Function $83A3 (00 00)
Args:
<0C> num (e.g. 03)
<0D> num (e.g. 03)

83A8 0D
83A9 50
83AA C2
83AB D8 B9 83

83AE	0D
83AF	CB
83B0	B3
83B1	3C
83B2	E9 3B D8 04 / Call $D83B
83B6	D6 C2 83

83B9	8D 64
83BB	0D
83BC	B3
83BD	3C
83BE	E9 02 D8 06 / Call $D802

83C2 CF
----------------------------------------------------
     00 01 02 03 04 05 06 07 08 09 0A 0B 0C 0D 0E 0F
83C0          20 D1 E4 00 00 3D 0C 76 B3 E9 A3 83 04
83D0 CF 

Function $83C3 (00 00)
Args:
<0C> Nation
<0D>

83C8 3D
83C9 0C
83CA 76
83CB B3          / Push Nation's ?
83CC E9 A3 83 04 / Call $83A3
83D0 CF
----------------------------------------------------
     00 01 02 03 04 05 06 07 08 09 0A 0B 0C 0D 0E 0F
83D0    20 D1 E4 00 00 3E 0D 8C D4 71 BC 8B 22 B8 1C
83E0 BB 7E B3 E9 A3 83 04 CF 

Function $83D1 (00 00)
Arguments:
C - ?
D - Nation
E - ?

83D6 3E          / Push E
83D7 0D          
83D8 8C D4 71
83DB BC
83DC 8B 22
83DE B8          / Convert Nation D to Hex ID
83DF 1C
83E0 BB
83E1 7E
83E2 B3
83E3 E9 A3 83 04 / Call $83A3
83E7 CF
----------------------------------------------------
     00 01 02 03 04 05 06 07 08 09 0A 0B 0C 0D 0E 0F
83E0                         20 D1 E4 FD FF 40 A2 FF
83F0 FF A4 2F 78 72 D6 0A 84 87 FD E9 8B D4 02 D8 08
8400 84 A0 FF FF D0 A2 FF FF 81 FD B0 85 FD 81 FD D7
8410 F8 83 A0 FF FF CF 

Function $83E8 (FD FF) -> Returns the # of generals in active province capable of acting
Locs:
+FD  ?
+FF  ?

83ED 40
83EE A2 FF FF

83F1 A4 2F 78    / $782F (Active province)
83F4 72
83F5 D6 0A 84

Loop:
	83F8 87 FD
	83FA E9 8B D4 02 / Call $D48B - Check if current general is capable of acting
	83FE D8 08 84

		8401 A0 FF FF
		8404 D0
		8405 A2 FF FF

	8408 81 FD

Bounds check:
	840A B0
	840B 85 FD
	840D 81 FD
	840F D7 F8 83

8412 A0 FF FF
8415 CF	
----------------------------------------------------
     00 01 02 03 04 05 06 07 08 09 0A 0B 0C 0D 0E 0F
8410                   20 D1 E4 00 00 0C 74 B0 D7 2D
8420 84 8D 50 0C B0 74 D3 B3 E9 A8 D7 04 CF 0C 74 B0
8430 74 D3 CF 

Function $8416 (00 00)
Returns the Int of nation <0C>'s advisor, 
or 80% of the Ruler's Int if there is no advisor.

Args:
<0C> Nation

841B 0C
841C 74
841D B0          / Get advisor
841E D7 2D 84

If nation has no advisor:
8421	8D 50
8423	0C
8424	B0      	/ Ruler
8425    74
8426	D3      	/ Ruler - Int
8427	B3
8428	E9 A8 D7 04 / Call $D7A8
842C	CF          / Return 80% of Ruler's Int

Else:
842D 0C
842E 74
842F B0
8430 74
8431 D3
8432 CF / Return Advisor's Int
----------------------------------------------------
     00 01 02 03 04 05 06 07 08 09 0A 0B 0C 0D 0E 0F
8430          20 D1 E4 FF FF 8D 14 E9 C5 D7 02 B3 AA
8440 2A 78 E9 16 84 02 B3 0E 74 D3 51 BE B3 A4 2A 78
8450 76 D3 51 BE B4 BB B4 BB 51 BE B4 BB A2 FF FF A5
8460 44 78 53 B5 B3 3C E9 16 84 02 B3 A4 42 7D 74 D3
8470 51 BE B3 0D 78 D3 51 BE B3 0C 76 D3 51 BE B4 BB
8480 B4 BB B4 BB 53 B8 B4 BB B3 DE FF FF B3 E9 3B D8
8490 04 A0 FF FF CF 
----------------------------------------------------
     00 01 02 03 04 05 06 07 08 09 0A 0B 0C 0D 0E 0F
8490                20 D1 E4 00 00 3D 3C 8E 98 B9 8E
84A0 E0 00 62 E9 12 F4 0A CF 

Function $8495 (00 00)
849A 3D
849B 3C
849C 8E 98 B9
849F 8E E0 00
84A2 62
84A3 E9 12 F4 0A / Call $F412 -> E0:B998 (Compatibility difference)
84A7 CF            
----------------------------------------------------
     00 01 02 03 04 05 06 07 08 09 0A 0B 0C 0D 0E 0F
84A0                         20 D1 E4 FF FF 8D 14 E9
84B0 C5 D7 02 B3 AA 2A 78 E9 16 84 02 B3 0E 76 D3 B3
84C0 A4 2A 78 76 D3 B3 3D E9 A3 D8 02 B0 B3 3D E9 95
84D0 84 04 D2 B4 BB B4 BB B4 BB 52 BE B4 BB A2 FF FF
84E0 A5 44 78 53 B5 B3 0C 76 D3 B3 0D 78 D3 B3 60 3D
84F0 E9 19 C0 04 51 BE B4 BB B4 BB 53 B8 B4 BB B3 DE
8500 FF FF B3 E9 3B D8 04 A0 FF FF CF 

Args:
<0C> Nation
<0D> Target general?
<0E> Acting general

Function $84A8 (FF FF)

84AD 8D 14
84AF E9 C5 D7 02 / Call $D7C5 [RNG 00-19]
84B3 B3
84B4 AA 2A 78    / $782A (Active Nation)
84B7 E9 16 84 02 / Call $8416 (Nation Int Val)
84BB B3
84BC 0E
84BD 76
84BE D3	         / Acting general - Charm
84BF B3
84C0 A4 2A 78    / $782A (Active nation)
84C3 76
84C4 D3          / ?
84C5 B3
84C6 3D          / Target general
84C7 E9 A3 D8 02 / Call $D8A3 (Get target general's nation)
84CB B0          / Ruler
84CC B3
84CD E9 95 84 04 / Call $8495 - Compatibility difference
84D2 D2
84D3 B4
84D4 BB
84D5 B4
84D6 BB
84D7 B4
84D8 BB
84D9 52
84DA BE
84DB B4
84DC BB
84DD A2 FF FF

84E0 A5 44 78    / $7844 (Game Level)
84E3 53
84E4 B5
84E5 B3
84E6 0C
84E7 76
84E8 D3
84E9 B3
84EA 0D
84EB 78
84EC D3
84ED B3

84EE 60
84EF 3D
84F0 E9 19 C0 04 / Call $C019 -> Get general reliability

84F4 51
84F5 BE
84F6 B4
84F7 BB
84F8 B4
84F9 BB
84FA 53
84FB B8
84FC B4
84FD BB
84FE B3
84FF DE FF FF
8502 B3
8503 E9 3B D8 04 / Call $D83B
8507 A0 FF FF
850A CF
----------------------------------------------------
     00 01 02 03 04 05 06 07 08 09 0A 0B 0C 0D 0E 0F
8500                                  20 D1 E4 FF FF
8510 A5 09 60 8B 10 C9 D7 21 85 0D 72 D3 52 DA D8 28
8520 85 40 A2 FF FF D6 58 85 62 3D E9 19 C0 04 B3 0E
8530 76 D3 55 B8 B4 BB 8F 64 A2 FF FF 60 3D E9 19 C0
8540 04 B3 0D 78 D3 B3 A5 44 78 55 B5 B4 BB B4 BB B3
8550 DE FF FF B3 E9 3B D8 04 A0 FF FF CF 
----------------------------------------------------
     00 01 02 03 04 05 06 07 08 09 0A 0B 0C 0D 0E 0F
8550                                     20 D1 E4 FF
8560 FF 8D 1E E9 C5 D7 02 B3 AA 2A 78 E9 16 84 02 B3
8570 0D 74 D3 B3 A4 2A 78 76 D3 B4 BB 51 BE B4 BB B4
8580 BB 8F 19 A2 FF FF A5 44 78 53 B5 B3 3C E9 16 84
8590 02 D2 B4 BB B3 DE FF FF B3 E9 3B D8 04 A0 FF FF
85A0 CF 

Function $855C (FF FF)
Args:
<0C>
<0D>

8561 8D 1E
8563 E9 C5 D7 02 / Call $D7C5
8567 B3          / Random number [00-29]
8568 AA 2A 78    / $782A (Active Nation)
856B E9 16 84 02 / Call $8416 (Nation Int value)
856F B3
8570 0D
8571 74
8572 D3
8573 B3
8574 A4 2A 78    / $782A (Active Nation)
8577 76
8578 D3
8579 B4
857A BB
857B 51
857C BE
857D B4
857E BB
857F B4
8580 BB
8581 8F 19       / Add 25
8583 A2 FF FF

     00 01 02 03 04 05 06 07 08 09 0A 0B 0C 0D 0E 0F
8580 BB 8F 19 A2 FF FF A5 44 78 53 B5 B3 3C E9 16 84
8590 02 D2 B4 BB B3 DE FF FF B3 E9 3B D8 04 A0 FF FF
85A0 CF 
----------------------------------------------------
     00 01 02 03 04 05 06 07 08 09 0A 0B 0C 0D 0E 0F
85A0    20 D1 E4 FF FF 0D 76 D3 53 B8 B3 0C B0 B3 AA
85B0 2C 78 E9 95 84 04 51 BE B3 89 32 B4 BC B3 A4 2C
85C0 78 76 D3 B3 A4 2A 78 76 D3 B4 BB 51 BE B4 BB B4
85D0 BB A2 FF FF A4 2A 78 8C D4 71 BC 8B 22 B8 1C BB
85E0 7E D3 B3 A5 44 78 55 B5 B4 BB B3 DE FF FF B3 E9
85F0 3B D8 04 A0 FF FF CF 
----------------------------------------------------
     00 01 02 03 04 05 06 07 08 09 0A 0B 0C 0D 0E 0F
85F0                      20 D1 E4 FF FF 61 3C E9 A1
8600 96 04 D7 07 86 40 CF A5 44 78 B3 44 B4 BC 53 B5
8610 B3 A0 0F 00 B3 0C B0 B3 E9 19 C0 04 B3 0D 76 D3
8620 B3 A4 2A 78 76 D3 B3 0F 8C D4 71 BC 8B 22 B8 1C
8630 BB 7E D3 D2 B4 BB B4 BB B4 BB 53 B8 B4 BB A2 FF
8640 FF A4 2A 78 8C D4 71 BC 8B 22 B8 1C BB 7E D3 B3
8650 DE FF FF B3 E9 3B D8 04 A0 FF FF CF 

Function $85F7 (FF FF)

85FC 61
85FD 3C
85FE E9 A1 96 04 / Call $96A1

     00 01 02 03 04 05 06 07 08 09 0A 0B 0C 0D 0E 0F
85F0                      20 D1 E4 FF FF 61 3C E9 A1
8600 96 04 D7 07 86 40 CF A5 44 78 B3 44 B4 BC 53 B5
8610 B3 A0 0F 00 B3 0C B0 B3 E9 19 C0 04 B3 0D 76 D3
8620 B3 A4 2A 78 76 D3 B3 0F 8C D4 71 BC 8B 22 B8 1C
8630 BB 7E D3 D2 B4 BB B4 BB B4 BB 53 B8 B4 BB A2 FF
8640 FF A4 2A 78 8C D4 71 BC 8B 22 B8 1C BB 7E D3 B3
8650 DE FF FF B3 E9 3B D8 04 A0 FF FF CF 
----------------------------------------------------
     00 01 02 03 04 05 06 07 08 09 0A 0B 0C 0D 0E 0F
8650                                     20 D1 E4 00
8660 00 AA F2 7B E9 BA D8 02 B3 62 3D 3C E9 F7 85 08
8670 CF 
----------------------------------------------------
     00 01 02 03 04 05 06 07 08 09 0A 0B 0C 0D 0E 0F
8670    20 D1 E4 FF FF 0C A6 10 7C C0 D8 82 86 40 D6
8680 8C 86 AA 07 7C 61 3D 3C E9 F7 85 08 A2 FF FF A0
8690 FF FF CF 

Function $8671 (FF FF)

8676 0C
8677 A6 10 7C    / $7C10
867A C0
867B D8 82 86

867E 40
867F D6 8C 86

8682 AA 07 7C    / $7C07
8685 61
8686 3D
8687 3C
8688 E9 F7 85 08 / Call $85F7

868C A2 FF FF

868F A0 FF FF
8692 CF
----------------------------------------------------
     00 01 02 03 04 05 06 07 08 09 0A 0B 0C 0D 0E 0F
8690          20 D1 E4 FE FF A4 2A 78 8C D4 71 BC 8B
86A0 22 B8 A2 FE FF 0D 76 D3 B3 A4 2A 78 76 D3 B4 BB
86B0 51 BE A2 FF FF A5 44 78 55 B5 B3 A0 FE FF 1C BB
86C0 7E D3 53 B8 B4 BB B3 DE FF FF B3 E9 3B D8 04 A0
86D0 FE FF B3 0C 78 D3 B4 C0 D8 E4 86 42 CD A0 FF FF
86E0 B5 A2 FF FF A0 FE FF B3 0C 79 D3 B4 C0 D8 F9 86
86F0 43 CD A0 FF FF B8 A2 FF FF A0 FF FF CF 

Function $8693 (FE FF)
Args:
<0D> General
<0C>
Locs:
+FE  Active Nation ID

8698 A4 2A 78    / $782A (Active nation)
869B 8C D4 71    /
869E BC
869F 8B 22
86A1 B8
86A2 A2 FE FF    /

86A5 0D
86A6 76
86A7 D3          / General - Charm
86A8 B3
86A9 A4 2A 78    / $782A (Active Nation)
86AC 76
86AD D3          / ?
86AE B4
86AF BB          / Add to charm
86B0 51
86B1 BE          / Half
86B2 A2 FF FF

86B5 A5 44 78    / $7844 (Game Level)
86B8 55
86B9 B5
86BA B3
86BB A0 FE FF
86BE 1C
86BF BB
86C0 7E
86C1 D3
86C2 53
86C3 B8
86C4 B4
86C5 BB
86C6 B3
86C7 DE FF FF
86CA B3
86CB E9 3B D8 04 / Call $D83B

     00 01 02 03 04 05 06 07 08 09 0A 0B 0C 0D 0E 0F
86B0 51 BE A2 FF FF A5 44 78 55 B5 B3 A0 FE FF 1C BB
86C0 7E D3 53 B8 B4 BB B3 DE FF FF B3 E9 3B D8 04 A0
86D0 FE FF B3 0C 78 D3 B4 C0 D8 E4 86 42 CD A0 FF FF
86E0 B5 A2 FF FF A0 FE FF B3 0C 79 D3 B4 C0 D8 F9 86
86F0 43 CD A0 FF FF B8 A2 FF FF A0 FF FF CF 
----------------------------------------------------
     00 01 02 03 04 05 06 07 08 09 0A 0B 0C 0D 0E 0F
86F0                                        20 D1 E4
8700 FD FF 0C 76 B0 2B 40 A2 FD FF D6 18 87 0B B0 2B
8710 A0 FD FF D0 A2 FD FF D1 0B D7 0D 87 A0 FD FF CF
----------------------------------------------------
     00 01 02 03 04 05 06 07 08 09 0A 0B 0C 0D 0E 0F
8720 20 D1 E4 FF FF 0D 76 D3 51 BE B3 0D 74 D3 53 B8
8730 B4 BB A2 FF FF 8D 14 E9 C5 D7 02 B3 DE FF FF B3
8740 E9 3B D8 04 0C 76 B0 D7 4E 87 40 D6 51 87 A0 FF
8750 FF CF 
----------------------------------------------------
     00 01 02 03 04 05 06 07 08 09 0A 0B 0C 0D 0E 0F
8750       20 D1 E4 FC FF 0C 74 2B A0 0F 00 D9 03 00
8760 00 00 6E 87 01 00 90 87 02 00 9E 87 BA 87 0B 72
8770 D3 B3 0B D3 B4 BB 2A A5 44 78 73 8B 32 B5 B3 A4
8780 2A 78 76 D3 1A BB B3 A0 11 00 B3 E9 63 D7 06 CF
8790 0B 72 D3 B3 0B D0 D3 53 B5 B4 BC D6 76 87 0B 72
87A0 D3 B3 62 3C E9 19 C0 04 B3 60 3C E9 19 C0 04 B3
87B0 89 64 B4 BC D2 B4 BB D6 99 87 0D 76 D3 B3 A4 2A
87C0 78 76 D3 D2 D6 74 87 

Function $8752 (FC FF)

Args:
<0C> Target general
<0D> Acting general
+0F  Recruitment type
+11  (100 - Target general's loyalty)

target 666D


Locs:
<0B> Target general's stats pointer

8757 0C
8758 74
8759 2B

875A A0 0F 00
875D D9 03 00
     00 00 6E 87
	 01 00 90 87
	 02 00 9E 87
	       BA 87
	
Case 00 (Special Attention)	
	876E 0B
	876F 72
	8770 D3         
	8771 B3          / Target general's Charm
	8772 0B
	8773 D3          / Target general's Int
	8774 B4
	8775 BB
	8776 2A          / Target general's Charm + Int
	
	8777 A5 44 78    / $7844 (Game Level)
	877A 73
	877B 8B 32
	877D B5          / 50*(Game Level + 3)
	877E B3
	877F A4 2A 78    / $782A (Active Nation)
	8782 76
	8783 D3          /
	8784 1A
	8785 BB          / Active Nation's Trust + (Target general's charm + Int)
	8786 B3
	8787 A0 11 00    / (100 - Target general's loyalty)
	878A B3
	878B E9 63 D7 06 / Call $D763 - Get ratio <00> * (<02>/<04>)
	878F CF
                       (100-Loyalty) * (Active Nation Trust + (Charm + Int))
                       ----------------------------------------------------
                                    50*(Game Level+3)                     					
getRatio(0xC8, 0xFA, 0x0A)
							predict: 11
							actual result: 12
									
Case 01 (Horse)
	8790 0B
	8791 72
	8792 D3     
	8793 B3      / Target general's Charm (0x46)
	8794 0B
	8795 D0
	8796 D3      / Target general's War   (0x5A)
	8797 53
	8798 B5
	8799 B4
	879A BC      / (3*War - Charm)        
	879B D6 76 87                         (0xC8) CORRECT
	
	                   (100-Loyalty) * (Active Nation Trust + (3*War - Charm))
                       -------------------------------------------------------
                                    50*(Game Level+3)      

Case 02 (Gold)
879E 0B
879F 72
87A0 D3
87A1 B3          / Charm

87A2 62
87A3 3C
87A4 E9 19 C0 04 / Call $C019 -> Get Ambition
87A8 B3          / Ambition

87A9 60
87AA 3C
87AB E9 19 C0 04 / Call $C019 -> Get Reliability
87AF B3

87B0 89 64
87B2 B4
87B3 BC          / (100 - Reliability)
87B4 D2          / 2 * (100 - Reliability)
87B5 B4
87B6 BB          / 
87B7 D6 99 87      2 * (100 - Reliability) + Ambition - Charm

Case 03 (Letter)
87BA 0D
87BB 76
87BC D3          / Charm
87BD B3
87BE A4 2A 78    / $782A (Active nation)
87C1 76
87C2 D3          / Trust
87C3 D2
87C4 D6 74 87    /     (100-Loyalty) * (3 * Trust + Acting Officer Charm)
                       --------------------------------------------------
                                    50*(Game Level+3)  


----------------------------------------------------
     00 01 02 03 04 05 06 07 08 09 0A 0B 0C 0D 0E 0F
87C0                      20 D1 E4 FF FF 0C 72 D3 52
87D0 DA D8 F0 87 A4 2A 78 8C D4 71 BC 8B 22 B8 B3 0C
87E0 7A D3 B4 C0 D8 EC 87 89 64 D6 3D 88 40 D6 3D 88
87F0 60 3C E9 5F C0 04 B3 60 3C E9 A3 D8 02 B0 B3 E9
8800 5F C0 04 B4 DA D7 11 88 0C 78 D3 8B 64 C0 D8 15
8810 88 40 D6 28 88 0C 78 D3 B3 89 64 B4 BC B3 A0 0F
8820 00 B3 3D 3C E9 52 87 08 A2 FF FF 3D E9 B3 D5 02
8830 D8 40 88 8D 6E A0 FF FF B3 E9 A8 D7 04 A2 FF FF
8840 A0 FF FF CF 

Function $87C7 (FF FF) -> Returns % chance of enemy general being recruited
Args:
<0C> Target general
<0D> Acting general
<0E> Recruitment type:
     00 = Letter
	 01 = Special attention
	 02 = Horse
	 03 = Gold
	 
87CC 0C
87CD 72
87CE D3
87CF 52
87D0 DA
87D1 D8 F0 87

if target general has ? flag (hidden?)
	87D4 A4 2A 78 .. / $782A (active nation)
	87D7 8C D4 71
	87DA BC
	87DB 8B 22
	87DD B8
	87DE B3
	87DF 0C
	87E0 7A
	87E1 D3          / Target general's ?
	87E2 B4
	87E3 C0
	87E4 D8 EC 87

	if
		87E7 89 64
		87E9 D6 3D 88
	else 
		87EC 40
		87ED D6 3D 88

else
	87F0 60
	87F1 3C
	87F2 E9 5F C0 04 / Call $C05F (Get target general's family)
	87F6 B3
	87F7 60
	87F8 3C
	87F9 E9 A3 D8 02 / Call $D8A3 (Get target general's nation)
	87FD B0          / Acting nation's ruler
	87FE B3
	87FF E9 5F C0 04 / Call $C05F (Get ruler's family)
	8803 B4
	8804 DA
	8805 D7 11 88

	8808 0C
	8809 78
	880A D3
	880B 8B 64
	880D C0
	880E D8 15 88
		
	If target general in ruler's family OR loyalty=100
		8811 40 
		8812 D6 28 88
	else
		8815 0C
		8816 78
		8817 D3
		8818 B3
		8819 89 64
		881B B4
		881C BC
		881D B3       .. / 100 - (Target general's loyalty)
		881E A0 0F 00    / Recruitment type
		8821 B3        
		8822 3D          / Acting general
		8823 3C          / Target general
		8824 E9 52 87 08 / Call $8752
	
	8828 A2 FF FF

	882B 3D
	882C E9 B3 D5 02 / Call $D5B3 -> Check if acting general is ruler
	8830 D8 40 88

		8833 8D 6E
		8835 A0 FF FF
		8838 B3
		8839 E9 A8 D7 04 / Call $D7A8 (Reduce to 80%)

883D A2 FF FF

8840 A0 FF FF
8843 CF
----------------------------------------------------
     00 01 02 03 04 05 06 07 08 09 0A 0B 0C 0D 0E 0F
8840             20 D1 E4 FF FF 6A E9 C5 D7 02 B3 AA
8850 2C 78 3C E9 95 84 04 51 BE B3 89 78 B4 BC B4 BC
8860 B3 A0 0F 00 B3 3D 3C E9 52 87 08 A2 FF FF 0C 72
8870 D3 52 DA D8 7F 88 42 CD A0 FF FF B5 A2 FF FF A0
8880 FF FF CF 
----------------------------------------------------
     00 01 02 03 04 05 06 07 08 09 0A 0B 0C 0D 0E 0F
8880          20 D1 E4 FE FF A5 2F 7D D0 A9 2F 7D A5
8890 2F 7D 53 BE 53 BA D2 D2 A2 FE FF A0 0F 00 D8 A6
88A0 88 89 40 D6 A7 88 40 B3 A5 F1 7B B4 DB A2 FF FF
88B0 A0 11 00 D8 CC 88 A0 0F 00 D8 C1 88 89 6C D6 C3
88C0 88 89 6B B3 A0 FE FF B4 BB D6 CD 88 40 B3 A0 FF
88D0 FF B3 A0 11 00 D8 DE 88 0D 8F F8 D6 E1 88 8A F8
88E0 00 B3 0C 8F FC B3 8D 3C 69 E9 E6 EE 0C A0 11 00
88F0 D8 09 89 A0 0F 00 D8 FE 88 89 6B D6 00 89 89 6C
8900 B3 A0 FE FF B4 BB D6 0A 89 40 B3 A0 FF FF B3 A0
8910 11 00 D8 1B 89 0D 8F F8 D6 1E 89 8A F8 00 B3 0C
8920 74 B3 8D 3D 69 E9 E6 EE 0C A0 11 00 D8 45 89 A0
8930 0F 00 D8 3A 89 89 6E D6 3C 89 89 6D B3 A0 FE FF
8940 B4 BB D6 46 89 40 B3 A0 FF FF B3 A0 11 00 D8 55
8950 89 0D D6 58 89 8A F8 00 B3 0C 8F FC B3 8D 3E 69
8960 E9 E6 EE 0C A0 11 00 D8 80 89 A0 0F 00 D8 75 89
8970 89 6D D6 77 89 89 6E B3 A0 FE FF B4 BB D6 81 89
8980 40 B3 A0 FF FF B3 A0 11 00 D8 90 89 0D D6 93 89
8990 8A F8 00 B3 0C 74 B3 8D 3F 69 E9 E6 EE 0C CF 

Function $8883 (FE FF)

8888 A5 2F 7D    / $7D2F
888B D0
888C A9 2F 7D    / $7D2F

888F A9 2F 7D
8892 53
8893 BE / 3 right shift
8894 53
8895 BA / UMOD
8896 D2
8897 D2 / x4
8898 A2 FE FF

889B A0 0F 00
889E D8 A6 88

if
	88A1 89 40
	88A3 D6 A7 88
else
	88A6 40

88A7 B3
88A8 A5 F1 7B    / $7BF1
88AB B4
88AC DB
88AD A2 FF FF

88B0 A0 11 00
88B3 D8 CC 88

if
	88B6 A0 0F 00
	88B9 D8 C1 88

	if
		88BC 89 6C
		88BE D6 C3 88
	else
		88C1 89 6B

	88C3 B3
	88C4 A0 FE FF
	88C7 B4
	88C8 BB
	88C9 D6 CD 88
else
	88CC 40

88CD B3
88CE A0 FF FF
88D1 B3
88D2 A0 11 00
88D5 D8 DE 88

if
	88D8 0D
	88D9 8F F8
	88DB D6 E1 88
else
	88DE 8A F8 00

88E1 B3
88E2 0C
88E3 8F FC
88E5 B3
88E6 8D 3C
88E8 69
88E9 E9 E6 EE 0C / Call $EEE6 -> Sysop 0x09

88ED A0 11 00
88F0 D8 09 89

88F3 A0 0F 00
88F6 D8 FE 88

if
	88F9 89 6B
	88FB D6 00 89
else
	88FE 89 6C

8900 B3
8901 A0 FE FF
8904 B4
8905 BB

8909

     00 01 02 03 04 05 06 07 08 09 0A 0B 0C 0D 0E 0F
88F0 D8 09 89 A0 0F 00 D8 FE 88 89 6B D6 00 89 89 6C
8900 B3 A0 FE FF B4 BB D6 0A 89 40 B3 A0 FF FF B3 A0
8910 11 00 D8 1B 89 0D 8F F8 D6 1E 89 8A F8 00 B3 0C
8920 74 B3 8D 3D 69 E9 E6 EE 0C A0 11 00 D8 45 89 A0
8930 0F 00 D8 3A 89 89 6E D6 3C 89 89 6D B3 A0 FE FF
8940 B4 BB D6 46 89 40 B3 A0 FF FF B3 A0 11 00 D8 55
8950 89 0D D6 58 89 8A F8 00 B3 0C 8F FC B3 8D 3E 69
8960 E9 E6 EE 0C A0 11 00 D8 80 89 A0 0F 00 D8 75 89
8970 89 6D D6 77 89 89 6E B3 A0 FE FF B4 BB D6 81 89
8980 40 B3 A0 FF FF B3 A0 11 00 D8 90 89 0D D6 93 89
8990 8A F8 00 B3 0C 74 B3 8D 3F 69 E9 E6 EE 0C CF 
----------------------------------------------------
     00 01 02 03 04 05 06 07 08 09 0A 0B 0C 0D 0E 0F
8990                                              20
89A0 D1 E4 FF FF AC E5 96 61 E9 0D C4 02 0C 8B 1E C8
89B0 D8 C4 89 0C 8F E1 D2 8C 5F DE BB B0 B3 E9 56 C4
89C0 02 D6 EC 89 62 64 E9 E6 EE 04 A2 FF FF 8E FA 00
89D0 62 63 E9 E6 EE 06 0C D2 8C 3A B3 BB B0 B3 E9 56
89E0 C4 02 A0 FF FF B3 62 63 E9 E6 EE 06 AC 91 D1 CF

Function $899F (FF FF)
Args:
<0C>

89A4 AC E5 96    / Call $96E5

89A7 61
89A8 E9 0D C4 02 / Call $C40D -> Set text color to green

89AC 0C
89AD 8B 1E
89AF C8
89B0 D8 C4 89

	89B3 0C
	89B4 8F E1
	89B6 D2
	89B7 8C 5F DE   / $DE5F
	89BA BB
	89BB B0
	89BC B3
	89BD E9 56 C4 02 / Call $C456 -> Print
	89C1 D6 EC 89

	89C4 62
	89C5 64
	89C6 E9 E6 EE 04 / Call $EEE6 -> Sysop 0x04
	89CA A2 FF FF    / Save value of bank 2
	89CD 8E FA 00
	89D0 62
	89D1 63
	89D2 E9 E6 EE 06 / Call $EEE6 -> Sysop 0x03 (Set bank 2 to FA)
	89D6 0C
	89D7 D2
	89D8 8C 3A B3    / $B33A
	89DB BB
	89DC B0
	89DD B3
	89DE E9 56 C4 02 / Call $C456 -> Print
	89E2 A0 FF FF
	89E5 B3
	89E6 62
	89E7 63
	89E8 E9 E6 EE 06 / Call $EEE6 -> Sysop 0x03 (restore bank 2)

89EC AC 91 D1
89EF CF

----------------------------------------------------
     00 01 02 03 04 05 06 07 08 09 0A 0B 0C 0D 0E 0F
89F0 20 D1 E4 00 00 63 8E 7A A5 8E E0 00 62 E9 12 F4
8A00 08 8E 7A 7D E9 4A C4 02 CF 

Function $89F0 (00 00)

89F5 63
89F6 8E 7A A5
89F9 8E E0 00
89FC 62
89FD E9 12 F4 08 / Call $F412 -> E0:A57A

8A01 8E 7A 7D    / $7D7A
8A04 E9 4A C4 02 / Call $C44A -> Print

8A08 CF
----------------------------------------------------
     00 01 02 03 04 05 06 07 08 09 0A 0B 0C 0D 0E 0F
8A00                            20 D1 E4 00 00 3C 8D
8A10 15 62 8E 4E A2 8E E0 00 62 E9 12 F4 0C AC F0 89
8A20 CF 

Function 8A09 (00 00)
Args:
<0C> General portrait

8A0E 3C
8A0F 8D 15
8A11 62
8A12 8E 4E A2
8A15 8E E0 00
8A18 62
8A19 E9 12 F4 0C / Call $F412 -> E0:A24E (Print general portrait @ 2,21)

8A1D AC F0 89    / Call $89F0

8A20 CF
----------------------------------------------------
     00 01 02 03 04 05 06 07 08 09 0A 0B 0C 0D 0E 0F
8A20    20 D1 E4 A3 FF 62 DE A4 FF B3 A0 0B 00 D2 8C
8A30 04 AF BB B3 8E F5 00 62 E9 FE DC 0A 8D 55 DE A6
8A40 FF B3 87 A4 8E F5 00 62 E9 FE DC 0A DE A6 FF B3
8A50 8E 7A 7D E9 57 E1 04 CF 

Function $8A21 (A3 FF)
Stores advisor quote +0B to $7D7A

Args:
+0B Advisor quote #
Locs:
+A4 (0x02 bytes) - Pointer to quote
+A6 (0x55 bytes) - Quote

8A26 62
8A27 DE A4 FF
8A2A B3
8A2B A0 0B 00
8A2E D2
8A2F 8C 04 AF    / F5:AF04 (Advisor quotes)
8A32 BB
8A33 B3
8A34 8E F5 00
8A37 62
8A38 E9 FE DC 0A / Transfer string pointer

8A3C 8D 55
8A3E DE A6 FF
8A41 B3
8A42 87 A4
8A44 8E F5 00
8A47 62
8A48 E9 FE DC 0A / Transfer string

8A4C DE A6 FF
8A4F B3
8A50 8E 7A 7D
8A53 E9 57 E1 04 / Call $E157 (Append string to $7D7A)

8A57 CF
----------------------------------------------------
     00 01 02 03 04 05 06 07 08 09 0A 0B 0C 0D 0E 0F
8A50                         20 D1 E4 00 00 A5 4F 7D
8A60 D7 7E 8A 61 AA 38 7D E9 5F C0 04 B3 8D 15 62 8E
8A70 4E A2 8E E0 00 62 E9 12 F4 0C 41 A9 4F 7D AC F0
8A80 89 CF 

Function $8A58 (00 00)

8A5D A5 4F 7D    / $7D4F
8A60 D7 7E 8A

	8A63 61
	8A64 AA 38 7D    / $7D38 (Acting general)
	8A67 E9 5F C0 04 / Call $C05F -> Portrait ID
	8A6B B3
	8A6C 8D 15
	8A6E 62
	8A6F 8E 4E A2
	8A72 8E E0 00
	8A75 62
	8A76 E9 12 F4 0C / Call $F412 -> E0:A24E -> Print portrait @  2,21
	8A7A 41
	8A7B A9 4F 7D    / $7D4F

8A7E AC F0 89    / $89F0
8A81 CF
----------------------------------------------------
     00 01 02 03 04 05 06 07 08 09 0A 0B 0C 0D 0E 0F
8A80       20 D1 E4 00 00 8E A6 9E 8E 7A 7D E9 40 E1
8A90 04 60 3D E9 BA D8 02 B0 B3 E9 2D C1 04 B3 8E 7A
8AA0 7D E9 57 E1 04 A0 0B 00 D1 D5 00 00 04 00 D7 8A
8AB0 B8 8A B8 8A B8 8A D1 8A A0 0B 00 D1 D2 8C A0 DE
8AC0 BB B0 B3 8E 7A 7D E9 57 E1 04 AC 58 8A AC 91 D1
8AD0 CF AA A4 DE D6 C3 8A CF 

Function $8A82 (00 00)
Args:
+0B  ?
<0D> Province

8A87 8E A6 9E    / $9EA6 -> "\n"
8A8A 8E 7A 7D    / 
8A8D E9 40 E1 04 / Call $E140 (Transfer string)

8A91 60
8A92 3D
8A93 E9 BA D8 02 / Call $D8BA (get nation of province)
8A97 B0
8A98 B3          / Ruler
8A99 E9 2D C1 04 / Call $C12D (get name of ruler)
8A9D B3
8A9E 8E 7A 7D
8AA1 E9 57 E1 04 / Call $E157 (append to string)

8AA5 A0 0B 00
8AA8 D1
8AA9 D5 00 00
        04 00    
		D7 8A    / Default
		B8 8A    / Case 00
		B8 8A    / Case 01
		B8 8A    / Case 02
		D1 8A    / Case 03 "\nattempted to capture\nme!"
		
Case 00-02
8AB8 A0 0B 00
8ABB D1
8ABC D2
8ABD 8C A0 DE    / $DEA0
8AC0 BB
8AC1 B0
8AC2 B3

8AC3 8E 7A 7D
8AC6 E9 57 E1 04 / Call $E157 -> Append
8ACA AC 58 8A    / Call $8A58
8ACD AC 91 D1    / Call $D191
8AD0 CF

Case 03
8AD1 AA A4 DE    / $DEA4 -> $DEF8 "\nattempted to capture\nme!"
8AD4 D6 C3 8A

Default
8AD7 CF
----------------------------------------------------
     00 01 02 03 04 05 06 07 08 09 0A 0B 0C 0D 0E 0F
8AD0                         20 D1 E4 FF FF A5 2E 78
8AE0 A2 FF FF 8A C0 00 A9 2E 78 0C 8C F4 73 BC 8B 19
8AF0 B8 B3 A5 2E 78 B4 DB A9 2E 78 8E E6 00 62 62 E9
8B00 E6 EE 06 A0 FF FF A9 2E 78 CF 

Function $8AD8 (FF FF)
Args
<0C> Province

8ADD A5 2E 78    / $782E
8AE0 A2 FF FF

8AE3 8A C0 00
8AE6 A9 2E 78

8AE9 0C
8AEA 8C F4 73
8AED BC
8AEE 8B 19
8AF0 B8
8AF1 B3
8AF2 A5 2E 78
8AF5 

     00 01 02 03 04 05 06 07 08 09 0A 0B 0C 0D 0E 0F
8AF0 B8 B3 A5 2E 78 B4 DB A9 2E 78 8E E6 00 62 62 E9
8B00 E6 EE 06 A0 FF FF A9 2E 78 CF 
----------------------------------------------------
     00 01 02 03 04 05 06 07 08 09 0A 0B 0C 0D 0E 0F
8B00                               20 D1 E4 FE FF 8E
8B10 F5 B1 8E F0 00 62 E9 12 F4 06 69 62 E9 1D C4 04
8B20 0C 8C F4 73 BC 8B 19 B8 D0 B3 60 3C E9 CC C2 04
8B30 B3 8E A8 9E E9 8C C6 06 3C E9 BA D8 02 D7 44 8B
8B40 41 D6 45 8B 40 D8 71 8B 60 60 66 8D 16 65 69 67
8B50 E9 E6 EE 0E 66 6E E9 1D C4 04 8E B9 9E E9 4A C4
8B60 02 67 6E E9 1D C4 04 8E BE 9E E9 4A C4 02 D6 5A
8B70 8C 61 0C 72 B0 B3 E9 5F C0 04 B3 65 69 8E 4E A2
8B80 8E E0 00 62 E9 12 F4 0C 65 6E E9 1D C4 04 8E C8
8B90 9E E9 8C C6 02 66 6F E9 1D C4 04 62 3C E9 BA D8
8BA0 02 B0 2B B3 E9 2D C1 04 B3 8E CE 9E E9 8C C6 04
8BB0 67 6F E9 1D C4 04 63 3C E9 BA D8 02 B0 2B B3 E9
8BC0 2D C1 04 B3 8E D3 9E E9 8C C6 04 68 6E E9 1D C4
8BD0 04 8E D8 9E E9 8C C6 02 69 6F E9 1D C4 04 62 0C
8BE0 72 B0 2B B3 E9 2D C1 04 B3 8E E1 9E E9 8C C6 04
8BF0 6A 6F E9 1D C4 04 63 0C 72 B0 2B B3 E9 2D C1 04
8C00 B3 8E E6 9E E9 8C C6 04 3C E9 BA D8 02 74 B0 2B
8C10 D8 57 8C 3C 3B E9 6A D5 04 D8 57 8C 65 8D 16 E9
8C20 1D C4 04 8E EB 9E E9 8C C6 02 66 8D 17 E9 1D C4
8C30 04 62 3B E9 2D C1 04 B3 8E F3 9E E9 8C C6 04 67
8C40 8D 17 E9 1D C4 04 63 3B E9 2D C1 04 B3 8E F8 9E
8C50 E9 8C C6 04 D6 5A 8C AC 12 97 61 E9 8A 97 02 CF

Function $8B0A (FE FF)
Args:
<0C> Province

8B0F 8E F5 B1    / $B1F5
8B12 8E F0 00    /
8B15 62
8B16 E9 12 F4 06 / Call $F412 -> F0:B1F5 (Print Month, Year & Season)

8B1A 69
8B1B 62
8B1C E9 1D C4 04 / Call $C41D -> Text pos 2,9

8B20 0C
8B21 8C F4 73
8B24 BC
8B25 8B 19
8B27 B8
8B28 D0
8B29 B3
8B2A 60
8B2B 3C
8B2C E9 CC C2 04 / Call $C2CC
8B30 B3
8B31 8E A8 9E
8B34 E9 8C C6 06 / Call $C68C -> Print Province number + name

8B38 3C
8B39 E9 BA D8 02 / Call $D8BA (Get Province Nation)
8B3D D7 44 8B

8B40	41
8B41	D6 45 8B

8B44 	40

8B45 D8 71 8B

If province has no nation:
8B48	60
8B49	60
8B4A	66
8B4B	8D 16
8B4D	65
8B4E	69
8B4F	67
8B50	E9 E6 EE 0E

8B54	66
8B55	6E
8B56	E9 1D C4 04 / Call $C41D -> Text pos 14, 6
8B5A	8E B9 9E    / #$9EB9     "Open"
8B5D	E9 4A C4 02 / Call $C44A

8B61	67
8B62	6E
8B63	E9 1D C4 04 / Call $C41D -> Text pos 14, 7
8B67	8E BE 9E    / #$9EBE     "Territory"
8B6A	E9 4A C4 02 / Call $C44A 

8B6E	D6 5A 8C

Else:
8B71 61
8B72 0C
8B73 72
8B74 B0
8B75 B3
8B76 E9 5F C0 04 / Call $C05F -> Get portrait ID of general
8B7A B3
8B7B 65
8B7C 69
8B7D 8E 4E A2
8B80 8E E0 00
8B83 62
8B84 E9 12 F4 0C / Call $F412 -> E0:A24E

     00 01 02 03 04 05 06 07 08 09 0A 0B 0C 0D 0E 0F
8B70 8C 61 0C 72 B0 B3 E9 5F C0 04 B3 65 69 8E 4E A2
8B80 8E E0 00 62 E9 12 F4 0C 65 6E E9 1D C4 04 8E C8
8B90 9E E9 8C C6 02 66 6F E9 1D C4 04 62 3C E9 BA D8
8BA0 02 B0 2B B3 E9 2D C1 04 B3 8E CE 9E E9 8C C6 04
8BB0 67 6F E9 1D C4 04 63 3C E9 BA D8 02 B0 2B B3 E9
8BC0 2D C1 04 B3 8E D3 9E E9 8C C6 04 68 6E E9 1D C4
8BD0 04 8E D8 9E E9 8C C6 02 69 6F E9 1D C4 04 62 0C
8BE0 72 B0 2B B3 E9 2D C1 04 B3 8E E1 9E E9 8C C6 04
8BF0 6A 6F E9 1D C4 04 63 0C 72 B0 2B B3 E9 2D C1 04
8C00 B3 8E E6 9E E9 8C C6 04 3C E9 BA D8 02 74 B0 2B
8C10 D8 57 8C 3C 3B E9 6A D5 04 D8 57 8C 65 8D 16 E9
8C20 1D C4 04 8E EB 9E E9 8C C6 02 66 8D 17 E9 1D C4
8C30 04 62 3B E9 2D C1 04 B3 8E F3 9E E9 8C C6 04 67
8C40 8D 17 E9 1D C4 04 63 3B E9 2D C1 04 B3 8E F8 9E
8C50 E9 8C C6 04 D6 5A 8C AC 12 97 61 E9 8A 97 02 CF
----------------------------------------------------
     00 01 02 03 04 05 06 07 08 09 0A 0B 0C 0D 0E 0F
8C60 20 D1 E4 FE FF AC A3 97 8E FD 9E E9 4A C4 02 A5
8C70 81 7C 5F DA A2 FF FF A5 81 7C 8C F0 00 DA 54 BE
8C80 A2 FE FF A0 FF FF 51 C1 D8 95 8C 8D 10 60 E9 AD
8C90 D0 04 AC F2 E1 A0 FE FF D7 A8 8C 8D 18 8D 1C 63
8CA0 62 E9 2C CF 08 D6 BB 8C A0 FF FF 51 C1 D8 BB 8C
8CB0 8E 3B B2 8E F0 00 62 E9 12 F4 06 A0 0D 00 D8 C6
8CC0 8C 3C E9 0A 8B 02 3C E9 D8 8A 02 A0 FF FF 51 C1
8CD0 D8 DA 8C 8D 10 60 E9 43 D0 04 8A F1 00 A9 81 7C
8CE0 8E 04 9F E9 4A C4 02 CF 

Function $8C60 (FE FF)
Args:
<00> Province
<02> ?

8C65 AC A3 97    / Call $97A3

8C68 8E FD 9E    /
8C6B E9 4A C4 02 / Call $C44A

8C6F A5 81 7C    / $7C81
8C72 5F
8C73 DA
8C74 A2 FF FF    /

8C77 A5 81 7C    /
8C7A 8C F0 00
8C7D DA
8C7E 54
8C7F BE
8C80 A2 FE FF

8C83 A0 FF FF
8C86 51
8C87 C1
8C88 D8 95 8C

	8C8B 8D 10
	8C8D 60
	8C8E E9 AD D0 04 / Call $D0AD
	8C92 AC F2 E1    / Call $E1F2 -> Black out screen

8C95 A0 FE FF
8C98 D7 A8 8C

	8C9B 8D 18
	8C9D 8D 1C
	8C9F 63
	8CA0 62
	8CA1 E9 2C CF 08 / Call $CF2C -> Print graphic?
	8CA5 D6 BB 8C

	8CA8 A0 FF FF
	8CAB 51
	8CAC C1
	8CAD D8 BB 8C
	
	8CB0 8E 3B B2
	8CB3 8E F0 00
	8CB6 62
	8CB7 E9 12 F4 06 / Call $F412 -> F0:B23B

8CBB

     00 01 02 03 04 05 06 07 08 09 0A 0B 0C 0D 0E 0F
8CB0 8E 3B B2 8E F0 00 62 E9 12 F4 06 A0 0D 00 D8 C6
8CC0 8C 3C E9 0A 8B 02 3C E9 D8 8A 02 A0 FF FF 51 C1
8CD0 D8 DA 8C 8D 10 60 E9 43 D0 04 8A F1 00 A9 81 7C
8CE0 8E 04 9F E9 4A C4 02 CF 
----------------------------------------------------
     00 01 02 03 04 05 06 07 08 09 0A 0B 0C 0D 0E 0F
8CE0                         20 D1 E4 00 00 61 0C 72
8CF0 B4 B3 D3 DB D4 CF 

Function $8CE8 (00 00)
Flags General <0C> as having used up their turn.

Args:
<0C> General

8CED 61 / Push 01
8CEE 0C 
8CEF 72 / A = General+2 ( Status )
8CF0 B4 / C = #$01
8CF1 B3
8CF2 D3
8CF3 DB
8CF4 D4
8CF5 CF
----------------------------------------------------
     00 01 02 03 04 05 06 07 08 09 0A 0B 0C 0D 0E 0F
8CF0                   20 D1 E4 FC FF AA 2F 78 E9 BA
8D00 D8 02 74 B0 2B 0B D8 14 8D AA 2F 78 3B E9 6A D5
8D10 04 D7 16 8D 41 CF 0B 74 D3 B3 89 64 B4 BC D2 B3
8D20 8D 64 E9 C5 D7 02 B4 C6 D8 2F 8D 41 D6 30 8D 40
8D30 D8 5B 8D A0 11 00 D8 4D 8D 8D 64 E9 C5 D7 02 8B
8D40 1E C6 D8 49 8D 41 D6 4A 8D 40 D8 5B 8D A0 0B 00
8D50 D8 57 8D 40 D6 58 8D 41 A2 0B 00 62 64 E9 E6 EE
8D60 04 A2 FD FF 8E F9 00 62 63 E9 E6 EE 06 A0 0B 00
8D70 D8 77 8D 41 D6 78 8D 40 1D BB D2 8C C4 B8 BB B0
8D80 B3 8E 7A 7D E9 40 E1 04 61 3B E9 5F C0 04 B3 E9
8D90 09 8A 02 61 E9 53 D1 02 64 68 6A 8E 6F AB 8E E0
8DA0 00 62 E9 12 F4 0C 60 60 E9 C9 D3 04 8E 0C 9F E9
8DB0 4A C4 02 0E D2 8C C4 B8 BB B0 B3 E9 56 C4 02 A0
8DC0 FD FF B3 62 63 E9 E6 EE 06 66 60 E9 C9 D3 04 AC
8DD0 5E CC A2 FC FF AC A3 97 8E 13 9F E9 4A C4 02 A0
8DE0 FC FF CF

Function $8CF6 (FC FF)
Args:
+11

8CFB AA 2F 78    / $782F (Active Province)
8CFE E9 BA D8 02 / Call $D8BA (Get nation)
8D02 74
8D03 B0          / Advisor
8D04 2B

8D05 0B
8D06 D8 14 8D

If nation has an advisor
8D09	AA 2F 78    / $782F (Active province)
8D0C	3B	        / Advisor
8D0D	E9 6A D5 04 / Call $D56A (Check if Advisor is in Active province)
8D11	D7 16 8D

Else
8D14	41
8D15	CF          / Return 1

8D16 0B 
8D17 74
8D18 D3
8D19 B3
8D1A 89 64
8D1C B4
8D1D BC
8D1E D2
8D1F B3
8D20 8D 64
8D22 E9 C5 D7 02 / Call $D7C5 [RNG 00-99]
8D26 B4
8D27 C6
8D28 D8 2F 8D

8D2B	41
8D2C	D6 30 8D

8D2F	40

8D30 D8 5B 8D

8D33	A0 11 00
8D36	D8 4D 8D

8D39	   8D 64
8D3B	   E9 C5 D7 02 / [RNG 00-99]
8D3F	   8B 1E
8D41	   C6
8D42	   D8 49 8D

8D45		  41
8D46	      D6 4A 8D

8D49	   	  40

8D4A	   D8 5B 8D

8D4D	A0 0B 00
8D50 D8 57 8D

8D53	40
8D54	D6 58 8D

8D57 	41

8D58 A2 0B 00

8D5B 62
8D5C 64
8D5D E9 E6 EE 04 / Call $EEE6 (Get value of Bank 2)
8D61 A2 FD FF

8D64 8E F9 00
8D67 62
8D68 63
8D69 E9 E6 EE 06 / Call $EEE6 (Set Bank 2 to F9)

8D6D A0 0B 00
8D70 D8 77 8D

8D73	41
8D74	D6 78 8D

8D77	40

8D78 1D
8D79 BB
8D7A D2
8D7B 8C C4 B8
8D7E BB
8D7F B0
8D80 B3
8D81 8E 7A 7D
8D84 E9 40 E1 04 / Call $E140 (Transfer data)

8D88 61
8D89 3B
8D8A E9 5F C0 04 / Call $C05F (Get ID of general?)
8D8E B3
8D8F E9 09 8A 02 / Call $8A09 (Print portrait) + ?

8D93 61
8D94 E9 53 D1 02 / Call $D153 -> Wait 24*(Wait) frames

     00 01 02 03 04 05 06 07 08 09 0A 0B 0C 0D 0E 0F
8D90 09 8A 02 61 E9 53 D1 02 64 68 6A 8E 6F AB 8E E0
8DA0 00 62 E9 12 F4 0C 60 60 E9 C9 D3 04 8E 0C 9F E9
8DB0 4A C4 02 0E D2 8C C4 B8 BB B0 B3 E9 56 C4 02 A0
8DC0 FD FF B3 62 63 E9 E6 EE 06 66 60 E9 C9 D3 04 AC
8DD0 5E CC A2 FC FF AC A3 97 8E 13 9F E9 4A C4 02 A0
8DE0 FC FF CF 
----------------------------------------------------
     00 01 02 03 04 05 06 07 08 09 0A 0B 0C 0D 0E 0F
8DE0          20 D1 E4 00 00 8E 80 00 0C 8F 10 B4 B3
8DF0 D3 DB D4 CF 
----------------------------------------------------
     00 01 02 03 04 05 06 07 08 09 0A 0B 0C 0D 0E 0F
8DF0             20 D1 E4 FF FF 61 AA 2F 78 8E 75 BB
8E00 8E E0 00 62 E9 12 F4 0A A2 FF FF 52 C7 D8 11 8E
8E10 CF 41 A9 16 79 61 A0 FF FF B3 A0 0B 00 B3 8E D6
8E20 B1 8E E0 00 62 E9 12 F4 0C CF 

Function $8DF4 (FF FF)
8DF9 61
8DFA AA 2F 78    / $782F
8DFD 8E 75 BB    
8E00 8E E0 00    
8E03 62          
8E04 E9 12 F4 0A / Call $F412 -> E0:BB75 -> Assemble temp general list for active province, type 0x01
8E08 A2 FF FF    / # of generals

8E0B 52
8E0C C7
8E0D D8 11 8E

if fewer than 2 generals
	8E10 CF

8E11 41
8E12 A9 16 79    / $7619

8E15 61
8E16 A0 FF FF
8E19 B3
8E1A A0 0B 00
8E1D B3
8E1E 8E D6 B1
8E21 8E E0 00
8E24 62
8E25 E9 12 F4 0C / Call $F412 -> E0:B1D6
8E29 CF
----------------------------------------------------
     00 01 02 03 04 05 06 07 08 09 0A 0B 0C 0D 0E 0F
8E20                               20 D1 E4 00 00 0D
8E30 8C D4 71 BC 8B 22 B8 B3 0C 8F 21 D3 B4 C0 D7 53
8E40 8E 0C 8C D4 71 BC 8B 22 B8 B3 0D 8F 21 D3 B4 C0
8E50 D8 57 8E 41 D6 58 8E 40 CF 

Function $8E2A (00 00)

8E2F 0D
8E30 8C D4 71
8E33 BC
8E34 8B 22
8E36 B8
8E37 B3
8E38 0C
8E39 8F 21
8E3B D3
8E3C B4
8E3D C0
8E3E D7 53 8E

8E41 0C
8E42 8C D4 71
8E45 BC
8E46 8B 22
8E48 B8
8E49 B3
8E4A 0D
8E4B 8F 21
8E4D D3
8E4E B4
8E4F C0
8E50 D8 57 8E 

8E53 41
8E54 D6 58 8E

8E57 40
8E58 CF 
----------------------------------------------------
     00 01 02 03 04 05 06 07 08 09 0A 0B 0C 0D 0E 0F
8E50                            20 D1 E4 00 00 A4 2A
8E60 78 77 D3 51 DA D8 6C 8E 41 D6 6D 8E 40 CF 

Function $8E59 (00 00)
Returns value of a status flag for the Active Nation?

8E5E A4 2A 78    / $782A/$782B (Active Nation)
8E61 77
8E62 D3
8E63 51
8E64 DA
8E65 D8 6C 8E

8E68	41
8E69	D6 6D 8E

8E6C	40

8E6D CF
----------------------------------------------------
     00 01 02 03 04 05 06 07 08 09 0A 0B 0C 0D 0E 0F
8E60                                           20 D1
8E70 E4 F9 FF 66 DE FA FF B3 0C 8C F4 73 BC 8B 19 B8
8E80 56 B5 8C 04 A0 BB B3 8E F4 00 62 E9 FE DC 0A 40
8E90 D6 AD 8E DE FA FF B3 A0 F9 FF B4 BB D3 B3 A0 0D
8EA0 00 D0 B4 C0 D8 A9 8E 41 CF A0 F9 FF D0 A2 F9 FF
8EB0 A0 F9 FF 56 C6 D7 93 8E 40 CF 

Function $8E6E (F9 FF) -> Check if province <00> is adjacent to province # <02>
Args:
<0C> Province
+0D  Province ID

8E73 66
8E74 DE FA FF
8E77 B3
8E78 0C
8E79 8C F4 73
8E7C BC
8E7D 8B 19
8E7F B8
8E80 56
8E81 B5
8E82 8C 04 A0
8E85 BB
8E86 B3
8E87 8E F4 00
8E8A 62
8E8B E9 FE DC 0A / Call $DCFE (Retrieve list of adjacent provinces)

8E8F 40
8E90 D6 AD 8E

Loop:
8E93 DE FA FF
8E96 B3
8E97 A0 F9 FF
8E9A B4
8E9B BB
8E9C D3
8E9D B3
8E9E A0 0D 00
8EA1 D0
8EA2 B4
8EA3 C0
8EA4 D8 A9 8E

	8EA7 41
	8EA8 CF

8EA9 A0 F9 FF
8EAC D0

Bounds check:
8EAD A2 F9 FF
8EB0 A0 F9 FF
8EB3 56
8EB4 C6
8EB5 D7 93 8E

8EB8 40
8EB9 CF
----------------------------------------------------
     00 01 02 03 04 05 06 07 08 09 0A 0B 0C 0D 0E 0F
8EB0                               20 D1 E4 00 00 3C
8EC0 E9 BA D8 02 D7 CB 8E 41 D6 CC 8E 40 D7 FB 8E AA
8ED0 2F 78 E9 BA D8 02 B3 3C E9 BA D8 02 B4 C0 D8 E5
8EE0 8E 41 D6 E6 8E 40 D7 FB 8E 0C 7F D3 8C FF 00 C1
8EF0 D8 F7 8E 41 D6 F8 8E 40 D8 FF 8E 40 D6 00 8F 41
8F00 CF 

Function $8EBA (00 00)
Args:
<00> Province

8EBF 3C
8EC0 E9 BA D8 02 / Call $D8BA (Get nation of province)
8EC4 D7 CB 8E

If no nation:
	8EC7 41
	8EC8 D6 CC 8E
Else:
	8ECB 40

8ECC D7 FB 8E

if province has nation:
	8ECF AA 2F 78    / $782F (Active province)
	8ED2 E9 BA D8 02 / Call $D8BA (Get nation of province)
	8ED6 B3
	8ED7 3C
	8ED8 E9 BA D8 02 / Call $D8BA (Get nation of province)
	8EDC B4
	8EDD C0          / Check if same nation
	8EDE D8 E5 8E
	
	if same nation:
		8EE1 41
		8EE2 D6 E6 8E
	else
		8EE5 40
		
	8EE6 D7 FB 8E
	
	if different nations:
		8EE9 0C
		8EEA 7F
		8EEB D3
		8EEC 8C FF 00
		8EEF C1       / check if not being invaded
		8EF0 D8 F7 8E
		
		if 
			8EF3 41
			8EF4 D6 F8 8E
		else
			8EF7 40
			
		8EF8 D8 FF 8E 
		
8EFB 40
8EFC D6 00 8F

8EFF 41

8F00 CF
----------------------------------------------------
     00 01 02 03 04 05 06 07 08 09 0A 0B 0C 0D 0E 0F
8F00    20 D1 E4 00 00 A4 2F 78 8F 11 D3 53 DA D8 15
8F10 8F 41 D6 16 8F 40 CF 

Function $8F01 (00 00)

8F06 A4 2F 78    / $782F (Active province)
8F09 8F 11
8F0B D3
8F0C 53
8F0D DA
8F0E D8 15 8F

	8F11 41
	8F12 D6 16 8F

	8F15 40

8F16 CF
----------------------------------------------------
     00 01 02 03 04 05 06 07 08 09 0A 0B 0C 0D 0E 0F
8F10                      20 D1 E4 00 00 AC 59 8E D7
8F20 34 8F AA 2F 78 E9 BA D8 02 D7 30 8F 41 D6 31 8F
8F30 40 D8 38 8F 41 D6 39 8F 40 CF 

Function $8F17 (00 00)

8F1C AC 59 8E    / Call $8E59
8F1F D7 34 8F 

8F22	AF 2F 78    / $782F (Active Province)
8F25	E9 BA D8 02 / Call $D8BA (Get Nation)
8F29	D7 30 8F

8F2C	   41
8F2D	   D6 31 8F

8F30	   40

8F31 D8 38 8F

8F34 41
8F35 D6 39 8F 40

8F38 40
8F39 CF

     00 01 02 03 04 05 06 07 08 09 0A 0B 0C 0D 0E 0F
8F20 34 8F AA 2F 78 E9 BA D8 02 D7 30 8F 41 D6 31 8F
8F30 40 D8 38 8F 41 D6 39 8F 40 CF 
----------------------------------------------------
     00 01 02 03 04 05 06 07 08 09 0A 0B 0C 0D 0E 0F
8F30                               20 D1 E4 00 00 A4
8F40 2A 78 8F 1E D3 8C FF 00 C1 D8 87 8F A4 2A 78 8F
8F50 20 D3 B3 A4 2A 78 8F 1F D3 8B 19 B5 8C F4 73 BB
8F60 B3 E9 BA D8 02 8C D4 71 BC 8B 22 B8 B4 C1 D8 87
8F70 8F A4 2A 78 8F 1E B3 8A FF 00 D4 8E F7 00 A4 2A
8F80 78 77 B4 B3 D3 DA D4 CF 

Function $8F3A (00 00)

8F3F A4 2A 78    / $782A (Active nation)
8F42 8F 1E
8F44 D3
8F45 8C FF 00
8F48 C1
8F49 D8 87 8F
8F4C	A4 2A 78    / $782A (Active nation)
8F4F	8F 20
8F51	D3
8F52	B3
8F53	A4 2A 78	/ $782A (Active nation)
8F56	8F 1F
8F58	D3
8F59	8B 19
8F5B	B5
8F5C	8C F4 73    / $73F4
8F5F	BB
8F60	B3
8F61	E9 BA D8 02 / Call $D8BA (Get nation of province)
8F65	8C D4 71    / $71D4
8F68	BC
8F69	8B 22
8F6B	B8
8F6C	B4
8F6D	C1
8F6E	D8 87 8F
8F71	   A4 2A 78    / $782A (Active nation)
8F74	   8F 1E
8F76	   B3
8F77	   8A FF 00
8F7A	   D4
8F7B	   8E F7 00
8F7E	   A4 2A 78    / $782A (Active nation)
8F81	   77
8F82	   B4
8F83	   B3
8F84	   D3
8F85	   DA
8F86	   D4
8F87 CF
----------------------------------------------------
     00 01 02 03 04 05 06 07 08 09 0A 0B 0C 0D 0E 0F
8F80                         20 D1 E4 FD FF 40 A2 FF
8F90 FF 8A F4 73 85 FD D6 BE 8F 81 FD 7F D3 8C FF 00
8FA0 C1 D8 A8 8F 41 D6 A9 8F 40 D8 AE 8F 40 CF A0 FF
8FB0 FF D0 A2 FF FF D1 81 FD 8F 19 85 FD 8F E7 A0 FF
8FC0 FF 8B 29 C6 D7 99 8F 41 CF 

Function $8F88 (FD FF)
Returns 0 if there is a province with FF in attribute 0x0F?
Else, returns 1.

8F8D 40
8F8E A2 FF FF

8F91 8A F4 73    / $73F4 (Start of provinces)
8F94 85 FD

8F96 D6 BE 8F

Loop through provinces:
	8F99 81 FD       / Current province
	8F9B 7F
	8F9C D3
	8F9D 8C FF 00
	8FA0 C1
	8FA1 D8 A8 8F

	if
		8FA4 41
		8FA5 D6 A9 8F
	else
		8FA8 40
		
	8FA9 D8 AE 8F

		8FAC 40
		8FAD CF

	8FAE A0 FF FF
	8FB1 D0
	8FB2 A2 FF FF
	8FB5 D1
	8FB6 81 FD
	8FB8 8F 19
	8FBA 85 FD
	8FBC 8F E7

Bounds check:
	8FBE A0 FF FF
	8FC1 8B 29
	8FC3 C6
	8FC4 D7 99 8F

8FC7 41
8FC8 CF
----------------------------------------------------
     00 01 02 03 04 05 06 07 08 09 0A 0B 0C 0D 0E 0F
8FC0                            20 D1 E4 FC FF A4 2F
8FD0 78 8F 18 D3 D1 B7 26 B7 14 0C B7 26 B7 19 64 00
8FE0 00 00 B7 01 B7 15 B7 03 B7 0E FC FF A4 2F 78 8F
8FF0 18 D3 B7 26 B7 14 B7 0C FC FF B7 15 B7 02 B7 27
9000 B3 A4 2F 78 78 B4 B3 B0 BC B1 3C A4 2F 78 7A B4
9010 B3 B0 BB B1 CF 
----------------------------------------------------
     00 01 02 03 04 05 06 07 08 09 0A 0B 0C 0D 0E 0F
9010                20 D1 E4 00 00 0C 78 D3 8B 64 C0
9020 D8 25 90 40 CF 0D D7 2C 90 89 64 2D 62 E9 C5 D7
9030 02 B3 A4 2F 78 72 B0 76 D3 1D B5 8C 90 01 B8 B4
9040 BB CF 

Function $9015 (00 00)

901A 0C
901B 78
901C D3
901D 8B 64
901F C0
9020 D8 25 90

	9023 40
	9024 CF         ; return 0

9025 0D
9026 D7 2C 90

	9029 89 64
	902B 2D

902C 62
902D E9 C5 D7 02 / Call $D7C5 [RNG 00-01]
9031 B3
9032 A4 2F 78    / $782F (Active province)
9035 72
9036 B0          / Governor
9037 76
9038 D3          / Governor - Charm
9039 1D 
903A B5
903B 8C 90 01    / 400
903E B8
903F B4
9040 BB
9041 CF
----------------------------------------------------
     00 01 02 03 04 05 06 07 08 09 0A 0B 0C 0D 0E 0F
9040       20 D1 E4 FF FF 0C 74 D3 B3 0C 76 D3 51 BE
9050 B4 BB A2 FF FF A0 0F 00 51 BE B3 89 64 B4 BC B3
9060 3D E9 A8 D7 04 2D A5 44 78 D0 51 BE B3 A0 FF FF
9070 1D B5 B3 E9 D1 D5 02 B4 B8 B3 E9 D1 D5 02 A2 FF
9080 FF A5 44 78 B3 DE FF FF B3 E9 3B D8 04 A0 FF FF
9090 CF 

Function $9042 (FF FF)

9047 0C
9048 74
9049 D3
904A B3
904B 0C
904C 76
904D D3
904E B1
904F BE
9050 B4
9051 BB
9052 A2 FF FF

9055 A0 0F 00
9058 51
9059 BE
905A B3
905B 89 64
905D B4
905E BC
905F B3
9060 3D
9061 E9 A8 D7 04 / Call $D7A8 -> Get ?% of ?
9065 2D



     00 01 02 03 04 05 06 07 08 09 0A 0B 0C 0D 0E 0F
9050 B4 BB A2 FF FF A0 0F 00 51 BE B3 89 64 B4 BC B3
9060 3D E9 A8 D7 04 2D A5 44 78 D0 51 BE B3 A0 FF FF
9070 1D B5 B3 E9 D1 D5 02 B4 B8 B3 E9 D1 D5 02 A2 FF
9080 FF A5 44 78 B3 DE FF FF B3 E9 3B D8 04 A0 FF FF
9090 CF 
----------------------------------------------------
     00 01 02 03 04 05 06 07 08 09 0A 0B 0C 0D 0E 0F
9090    20 D1 E4 00 00 A4 2F 78 8F 16 D3 8B 64 C9 D8
90A0 A4 90 40 CF A4 2F 78 8F 16 D3 B3 3D 3C E9 42 90
90B0 06 CF 

Function $9091 (00 00)
Args:
<0C> ?
<0D> ?

9096 A4 2F 78    / $782F (Active province)
9099 8F 16
909B D3
909C 8B 64
909E C9
909F D8 A4 90

	90A2 40
	90A3 CF

90A4 A4 2F 78    / $782F (Active province)
90A7 8F 16
90A9 D3
90AA B3
90AB 3D
90AC 3C
90AD E9 42 90 06 / Call $9042

90B1 CF

----------------------------------------------------
     00 01 02 03 04 05 06 07 08 09 0A 0B 0C 0D 0E 0F
90B0       20 D1 E4 00 00 A4 2F 78 8F 14 D3 8B 64 C9
90C0 D8 C5 90 40 CF A4 2F 78 8F 14 D3 B3 3D 3C E9 42
90D0 90 06 CF 
----------------------------------------------------
     00 01 02 03 04 05 06 07 08 09 0A 0B 0C 0D 0E 0F
90D0          20 D1 E4 FE FF 0D 8C D4 71 BC 8B 22 B8
90E0 A2 FF FF 0C 8C D4 71 BC 8B 22 B8 A2 FE FF A0 FE
90F0 FF B3 41 B4 BD CC B3 0D 7A B4 B3 B0 DA B1 A0 FF
9100 FF B3 41 B4 BD CC B3 0C 7A B4 B3 B0 DA B1 A0 FE
9110 FF B3 0D 8F 1E D3 B4 C0 D8 23 91 0D 8F 1E B3 8A
9120 FF 00 D4 A0 FF FF B3 0C 8F 1E D3 B4 C0 D8 38 91
9130 0C 8F 1E B3 8A FF 00 D4 8D 14 3C 3D E9 D1 83 06
9140 8D 14 3D 3C E9 D1 83 06 A0 0F 00 D8 7C 91 3D E9
9150 E2 D4 02 D8 7C 91 AC E5 96 60 0D B0 B3 E9 2D C1
9160 04 B3 8E 1A 9F E9 9D C6 04 60 0C B0 B3 E9 2D C1
9170 04 B3 8E 26 9F E9 9D C6 04 AC 91 D1 CF 

Function $90D3 (FE FF)
Args C  - Nation pointer 1
     D  - Nation pointer 2
Locs FE - Nation ID 1
     FF - Nation ID 2
 
90D8 0D
90D9 8C D4 71 /
90DC BC
90DD 8B 22
90DF B8
90E0 A2 FF FF / 

90E3 0C
90E4 8C D4 71
90E7 BC
90E8 8B 22
90EA B8
90EB A2 FE FF

90EE A0 FE FF
90F1 B3
90F2 41
90F3 B4
90F4 BD          / 2 ^ (nation ID)
90F5 CC          / complement
90F6 B3
90F7 0D 
90F8 7A
90F9 B4
90FA B3
90FB B0
90FC DA
90FD B1

90FE A0 FF FF
9101 B3
9102 41
9103 B4
9104 BD
9105 CC
9106 B3
9107 0C
9108 7A
9109 B4
910A B3
910B B0
910C DA
910D B1

910E A0 FE FF
9111 B3
9112 0D
9113 8F 1E
9115 D3
9116 B4
9117 C0
9118 D8 23 91

911B	0D
911C	8F 1E
911E	B3
911F	8A FF 00
9122	D4

9123 A0 FF FF
9126 B3
9127 0C
9128 8F 1E
912A D3
912B B4
912C C0
912D D8 38 91

9130	0C
9131	8F 1E
9133	B3
9134	8A FF 00
9137	D4

9138 8D 14
913A 3C
913B 3D
913C E9 D1 83 06

9140 8D 14
9142 3D
9143 3C
9144 E9 D1 83 06

9148 A0 0F 00
914B D8 7C 91

914E	3D
914F	E9 E2 D4 02
9153    D8 7C 91

9156	   AC E5 96
9159	   60
915A       0D
915B       B0
915C       B3
915D       E9 2D C1 04
9161       B3
9162	   8E 1A 9F    | #$9F1A : "Master %s,\n"
9165	   E9 9D C6 04
9169	   60
916A       0C
916B       B0
916C       B3
916D       E9 2D C1 04
9171       B3
9172       8E 26 9F    | #$9F26 : "%s has\nbroken your alliance"
9175       E9 9D C6 04
9179       AC 91 D1 

917C       CF
----------------------------------------------------
     00 01 02 03 04 05 06 07 08 09 0A 0B 0C 0D 0E 0F
9170                                        20 D1 E4
9180 00 00 8E 10 27 0D 76 D3 8F 32 B3 3C E9 63 D7 06
9190 CF 

Function $917D (00 00)
Args:
<0C>
<0D>

9182 8E 10 27    / 10000
9185 0D          /
9186 76          /
9187 D3          /
9188 8F 32       /
918A B3          /
918B 3C          /
918C E9 63 D7 06 / Function $D763 -> Get ratio <00> * (<02>/<04>)
9190 CF          / Return
----------------------------------------------------
     00 01 02 03 04 05 06 07 08 09 0A 0B 0C 0D 0E 0F
9190    20 D1 E4 FF FF 8E 30 75 AA 44 7D A4 4C 7D 72
91A0 B0 78 B3 E9 F8 D7 06 63 E9 C5 D7 02 B3 AA 38 7D
91B0 AA 44 7D E9 7D 91 04 B4 BB A2 FF FF A0 FF FF CB
91C0 B3 AA 4C 7D AA 2A 78 E9 D1 83 06 A0 FF FF CB B3
91D0 AA 2A 78 AA 4C 7D E9 D1 83 06 CF 

Function $9191 (FF FF)

9196 8E 30 75    / Push #$7530
9199 AA 44 7D    / Push [7D44] (gold taken)
919C A4 4C 7D
919F 72
91A0 B0
91A1 78
91A2 B3
91A3 E9 F8 D7 06 / Call $D7F8

91A7 63
91A8 E9 C5 D7 02 / Call $D7C5 / RNG #$00-#$02
91AC B3
91AD AA 38 7D    / Push [7D38]
91B0 AA 44 7D    / Push [7D44] (gold taken)
91B3 E9 7D 91 04 / Call $917D
91B7 B4
91B8 BB
91B9 A2 FF FF

91BC A0 FF FF
91BF CB
91C0 B3
91C1 AA 4C 7D    / Push [7D4C]
91C4 AA 2A 78    / Push [782A]
91C7 E9 D1 83 06 / Call $83D1

91CB A0 FF FF
91CE CB
91CF B3
91D0 AA 2A 78    / Push [782A]
91D3 AA 4C 7D    / Push [7D4C]
91D6 E9 D1 83 06 / Call $83D1

     00 01 02 03 04 05 06 07 08 09 0A 0B 0C 0D 0E 0F
91D0 AA 2A 78 AA 4C 7D E9 D1 83 06 CF 
----------------------------------------------------
     00 01 02 03 04 05 06 07 08 09 0A 0B 0C 0D 0E 0F
91D0                                  20 D1 E4 FE FF
91E0 0C 79 B3 8A FF 00 D4 0C 72 D6 15 92 0B 8F 13 D3
91F0 8C FF 00 C1 D8 14 92 0B 8F 13 D3 8B 19 B5 8C F4
9200 73 BB B3 E9 BA D8 02 1D C0 D8 14 92 0B 8F 13 B3
9210 8A FF 00 D4 0B B0 2B 0B D7 EC 91 CF 

Function $91DB (FE FF)
Args:
<0C>
<0D> Nation

91E0 0C
91E1 79
91E2 B3
91E3 8A FF 00
91E6 D4

91E7 0C
91E8 72
91E9 D6 15 92

Loop:
	91EC 0B
	91ED 8F 13
	91EF D3
	91F0 8C FF 00
	91F3 C1
	91F4 D8 14 92
	
	91F7 0B
	91F8 8F 13
	91FA D3
	91FB 8B 19
	91FD B5
	91FE 8C F4 73    / $73F4
	9201 BB
	9202 B3
	9203 E9 BA D8 02 / Call $D8BA (get nation of province)
	9207 1D
	9208 C0
	9209 D8 14 92
	
		920C 0B
		920D 8F 13
		920F B3
		9210 8A FF 00
		9213 D4
	
	9214 0B
	
Bounds check:
	9215 B0
	9216 2B
	9217 0B
	9219 D7 EC 91

921B CF
----------------------------------------------------
     00 01 02 03 04 05 06 07 08 09 0A 0B 0C 0D 0E 0F
9210                                     20 D1 E4 FC
9220 FF A4 2A 78 8C D4 71 BC 8B 22 B8 A2 FF FF A4 4C
9230 7D 8C D4 71 BC 8B 22 B8 A2 FE FF A4 2A 78 8F 21
9240 B3 A0 FE FF D4 A0 FE FF A6 2A 78 BB 7E 2A 3A 6A
9250 0A D3 B3 E9 A8 D7 04 D4 A0 FF FF A6 4C 7D BB 7E
9260 2A 3A 6A 0A D3 B3 E9 A8 D7 04 D4 AA 4C 7D AA 2A
9270 78 E9 DB 91 04 AA 2A 78 AA 4C 7D E9 DB 91 04 CF
----------------------------------------------------
     00 01 02 03 04 05 06 07 08 09 0A 0B 0C 0D 0E 0F
9280 20 D1 E4 00 00 A4 2A 78 8F 1E B3 A4 4C 7D 8C D4
9290 71 BC 8B 22 B8 D4 8E F7 00 A4 2A 78 77 B4 B3 D3
92A0 DA D4 A4 2A 78 8F 1F B3 A4 3E 7D 8C F4 73 BC 8B
92B0 19 B8 D4 A4 2A 78 8F 20 B3 AA 3E 7D E9 BA D8 02
92C0 8C D4 71 BC 8B 22 B8 D4 CF 

Function $9280 (00 00)
9285 A4 2A 78    /
9288 8F 1E       /
928A B3          /
928B A4 4C 7D    /
928E 8C D4 71    /
9291 BC          /
9292 8B 22       /
9294 B8          /
9295 D4          /

9296 8E F7 00    /
9299 A4 2A 78    /
929C 77
929D B4          /
929E B3          /
929F D3          /
92A0 DA          /
92A1 D4
92A2 A4 2A 78    /
92A5 8F 1F       /
92A7 B3          /
92A8 A4 3E 7D    / $7D3E (Target province?)
92AB 8C F4 73    / 
92AE BC          /
92AF 8B 19       /
92B1 B8          /
92B2 D4          /
92B3 A4 2A 78    /
92B6 8F 20       /
92B8 B3          /
92B9 AA 3E 7D    / $7D3E (Target province?)
92BC E9 BA D8 02 /
92C0 8C D4 71    /
92C3 BC          /
92C4 8B 22       /
92C6 B8          /
92C7 D4          /
92C8 CF
----------------------------------------------------
     00 01 02 03 04 05 06 07 08 09 0A 0B 0C 0D 0E 0F
92C0                            20 D1 E4 00 00 A4 4C
92D0 7D 8C D4 71 BC 8B 22 B8 B3 41 B4 BD B3 A4 2A 78
92E0 7A B4 B3 B0 DB B1 A4 2A 78 8C D4 71 BC 8B 22 B8
92F0 B3 41 B4 BD B3 A4 4C 7D 7A B4 B3 B0 DB B1 8D EC
9300 AA 4C 7D AA 2A 78 E9 D1 83 06 8D EC AA 2A 78 AA
9310 4C 7D E9 D1 83 06 AA 4C 7D AA 2A 78 E9 DB 91 04
9320 AA 2A 78 AA 4C 7D E9 DB 91 04 CF 
----------------------------------------------------
     00 01 02 03 04 05 06 07 08 09 0A 0B 0C 0D 0E 0F
9320                                  20 D1 E4 FC FF
9330 3C 8E 09 A9 8E E0 00 62 E9 12 F4 08 8A E1 7B D6
9340 9A 93 3B E9 BA D8 02 D7 4E 93 41 D6 4F 93 40 D7
9350 98 93 3B E9 BA D8 02 B3 3C E9 BA D8 02 B4 C0 D8
9360 66 93 41 D6 67 93 40 D8 98 93 0B 7F D3 8C FF 00
9370 C1 D8 78 93 41 D6 79 93 40 D7 98 93 3D 3C 8E C1
9380 AA 8E E0 00 62 E9 12 F4 0A 3D 3B 8E 33 AA 8E E0
9390 00 62 E9 12 F4 0A 41 CF 0A 72 2A 0A B0 2B D7 42
93A0 93 40 CF 
----------------------------------------------------
     00 01 02 03 04 05 06 07 08 09 0A 0B 0C 0D 0E 0F
93A0          20 D1 E4 F9 FF 3D E9 11 C3 02 A2 F9 FF
93B0 A0 F9 FF 54 C0 D8 A6 94 3D AA 2F 78 8E 70 A6 8E
93C0 E0 00 62 E9 12 F4 0A 0D 77 B3 0E 77 D3 D4 0D 78
93D0 B3 89 28 D4 3E E9 A3 D8 02 B3 3D 8E C9 A7 8E E0
93E0 00 62 E9 12 F4 0A 0D 72 D3 52 DA D8 87 94 0D 7A
93F0 D3 8B 22 B5 8C D4 71 BB 29 09 A6 2A 78 C0 D8 16
9400 94 0D 78 B3 89 64 D4 3D 8E E2 A6 8E E0 00 62 E9
9410 12 F4 08 D6 87 94 60 AA 2C 78 E9 5F C0 04 B3 60
9420 3D E9 5F C0 04 B4 DA D7 61 94 3D 09 B0 B3 E9 95
9430 84 04 B3 3D AA 2C 78 E9 95 84 04 B4 C6 D8 6E 94
9440 60 3D E9 19 C0 04 53 B8 B3 89 21 B4 BC B3 8D 64
9450 E9 C5 D7 02 B4 C6 D8 5D 94 41 D6 5E 94 40 D8 6E
9460 94 8E FD 00 0D 72 B4 B3 D3 DA D4 D6 87 94 6A E9
9470 C5 D7 02 B3 89 5F B4 BC B3 8D 14 E9 C5 D7 02 B3
9480 0D 78 B3 E9 02 D8 06 0D 79 B3 41 D4 61 0D 72 B4
9490 B3 D3 DB D4 3D AA 2F 78 8E 33 AA 8E E0 00 62 E9
94A0 12 F4 0A D6 8A 95 A0 F9 FF 51 C0 D8 28 95 0D B0
94B0 D6 FF 94 0B B0 2A 63 3E 3B E9 C7 87 06 B3 8D 64
94C0 E9 C5 D7 02 B4 C6 D8 CD 94 41 D6 CE 94 40 D7 EF
94D0 94 3B 3C E9 2B 93 04 D7 FE 94 3B 3C 8E C1 AA 8E
94E0 E0 00 62 E9 12 F4 0A 3B 3C 8E 84 A7 D6 F6 94 AA
94F0 2A 78 3B 8E F5 A7 8E E0 00 62 E9 12 F4 0A 0A 2B
9500 0B D7 B3 94 3C 3C E9 BA D8 02 B3 8E CE A9 8E E0
9510 00 62 E9 12 F4 0A 3C AA 2A 78 8E 5B A9 8E E0 00
9520 62 E9 12 F4 0A D6 4C 95 3D 3C 8E C1 AA 8E E0 00
9530 62 E9 12 F4 0A 3D AA 2F 78 8E 33 AA 8E E0 00 62
9540 E9 12 F4 0A 61 0D 72 B4 B3 D3 DB D4 AA 2A 78 3D
9550 8E F5 A7 8E E0 00 62 E9 12 F4 0A A0 F9 FF 51 C0
9560 D8 8A 95 3C 8E 2C A4 8E E0 00 62 E9 12 F4 08 8E
9570 FB 00 0C 8F 10 B4 B3 D3 DA D4 0C 8F 12 B3 8A FF
9580 00 D4 0C 8F 13 B3 8A FF 00 D4 CF 

Function $93A3 (F9 FF)
Args:
<0C>
<0D> General
<0E> General

93A8 3D
93A9 E9 11 C3 02 / Call $C311 - Get rank of general
93AD A2 F9 FF

93B0 A0 F9 FF
93B3 54
93B4 C0
93B5 D8 A6 94 

If general has no nation:
93B8	3D
93B9	AA 2F 78    / $782F = Active city
93BC	8E 70 A6    /
93BF	8E E0 00    /
93C2	62
93C3	E9 12 F4 0A / Call $F412 -> E0:A670

93C7	0D
93C8	77
93C9	B3
93CA	0E
93CB	77
93CC	D3
93CD	D4

93CE	0D
93CF	78
93D0	B3
93D1	89 28
93D3	D4

93D4 	3E
93D5	E9 A3 D8 02 / Call $D8A3 (get general's nation)
93D9	B3
93DA	3D
93DB	8E C9 A7
93DE	8E E0 00
93E1	62
93E2	E9 12 F4 0A / Call $F412 -> E0:A7C9

93E6	0D
93E7	72
93E8	D3
93E9	52
93EA	DA
93EB	D8 87 94

93EE 0D
93EF 7A
93F0 D3
93F1 8B 22
93F3 B5
93F4 8C D4 71    / $71D4
93F7 BB
93F8 29
93F9 09
93FA A6 2A 78    / $782A (Active nation)
93FD C0          / Check if active nation
93FE D8 16 94

9401 0D
9402 78
9403 B3
9404 89 64
9406 D4
9407 3D
9408 8E E2 A6
940B 8E E0 00
940E 62
940F E9 12 F4 08 / Call $F412 -> E0:A6E2 (Clear general's status flags?)
9413 D6 87 94

9416 60
9417 AA 2C 78    / $782C 
941A E9 5F C0 04 / Call $C05F (Get ID of general?)
941E B3
941F 60
9420 3D
9421 E9 5F C0 04 / Call $C05F (Get ID of general?)
9425 B4
9426 DA
9427 D7 61 94

942A 3D
942B 09
942C B0
942D B3
942E E9 95 84 04 / Call $8495 (Compatability difference)
9432 B3
9433 3D
9434 AA 2C 78    / $782C
9437 E9 95 84 04 / Call $8495 (Compatability difference)
943B B4
943C C6
943D D8 6E 94

9440 60
9441 3D
9442 E9 19 C0 04 / Call $C019 -> Get Hidden Stat 0 (Compatability)

9446 53
9447 B8
9448 B3
9449 89 21
944B B4
944C BC
944D B3
944E 8D 64
9450 E9 C5 D7 02 / Call $D7C5 (RNG 00-99)
9454 B4
9455 C6
9456 D8 5D 94

9459 41
945A D6 5E 94

945D 40

945E D8 6E 94

9461 8E FD 00
9464 0D
9465 72
9466 B4
9467 B3
9468 D3
9469 DA
946A D4
946B D6 87 94

946E 6A
946F E9 C5 D7 02 / Call $D7C5 (RNG 00-09)
9473 B3
9474 89 5F
9476 B4
9477 BC
9478 B3
9479 8D 14
947B E9 C5 D7 02 / Call $D7C5 (RNG 00-19)
947F B3
9480 0D
9481 78
9482 B3
9483 E9 02 D8 06 / Call $D802

9487 0D
9488 79
9489 B3
948A 41
948B D4
948C 61
948D 0D
948E 72
948F B4
9490 B3
9491 D3
9492 DB
9493 D4
9494 3D
9495 AA 2F 78    / $782F (Active province)
9498 8E 33 AA
949B 8E E0 00
949E 62
949F E9 12 F4 0A / Call $F412 -> E0:AA33
94A3 D6 8A 95

94A6 A0 F9 FF
94A9 51
94AA C0
94AB D8 28 95

94AE 0D
94AF B0
94B0 D6 FF 94

Loop
94B3 0B
94B4 B0
94B5 2A
94B6 63
94B7 3E
94B8 3B
94B9 E9 C7 87 06 / Call $87C7
94BD B3
94BE 8D 64
94C0 E9 C5 D7 02 / Call $D7C5 (RNG 00-99)
94C4 B4
94C5 C6
94C6 D8 CD 94

94C9 41
94CA D6 CE 94

94CD 40

94CE D7 EF 94

94D1 3B
94D2 3C
94D3 E9 2B 93 04 / Call $932B
94D7 D7 FE 94

94DA 3B
94DB 3C
94DC 8E C1 AA
94DF 8E E0 00
94E2 62
94E3 E9 12 F4 0A / Call $F412 -> E0:AAC1 (Remove general from province)

94E7 3B
94E8 3C
94E9 8E 84 A7
94EC D6 F6 94    / Call $F412 -> E0:A784

94EF AA 2A 78    / $782A
94F2 3B
94F3 8E F5 A7    / Call $F412 -> E0:A7F5

94F6 8E E0 00
94F9 62
94FA E9 12 F4 0A

94FE 0A

Bounds check
94FF 2B
9500 0B
9501 D7 B3 94

9504 3C
9505 3C
9506 E9 BA D8 02 / Call $D8BA (Get nation of province)
950A B3
950B 8E CE A9
950E 8E E0 00
9511 62
9512 E9 12 F4 0A / Call $F412 -> E0:A9CE 

9516 3C
9517 AA 2A 78    / $782A
951A 8E 5B A9
951D 8E E0 00
9520 62
9521 E9 12 F4 0A / Call $F412 -> E0:A95B -> Active nation takes control of province

9525 D6 4C 95

9528 3D
9529 3C
952A 8E C1 AA
952D 8E E0 00
9530 62
9531 E9 12 F4 0A / Call $F412 -> E0:AAC1 (Remove general from province)

9535 3D
9536 AA 2F 78
9539 8E 33 AA
953C 8E E0 00
953F 62
9540 E9 12 F4 0A / Call $F412 -> E0:AA33

9544 61
9545 0D
9546 72
9547 B4
9548 B3
9549 D3
954A DB
954B D4

954C AA 2A 78
954F 3D
9550 8E F5 A7
9553 8E E0 00
9556 62
9557 E9 12 F4 0A / Call $F412 -> E0:A7F5 (Remove general from nation?)

955B A0 F9 FF
955E 51
955F C0
9560 D8 8A 95

9563 3C
9564 8E 2C A4
9567 8E E0 00
956A 62
956B E9 12 F4 08 / Call $F412 -> E0:A42C
956F 8E FB 00
9572 0C
9573 8F 10
9575 B4
9576 B3
9577 D3
9578 DA
9579 D4
957A 0C
957B 8F 12
957D B3
957E 8A FF 00
9581 D4
9582 0C
9583 8F 13
9585 B3
9586 8A FF 00
9589 D4

958A CF
----------------------------------------------------
     00 01 02 03 04 05 06 07 08 09 0A 0B 0C 0D 0E 0F
9580                                  20 D1 E4 FC FF
9590 40 2B A4 2F 78 72 D6 AF 95 0A 7C B0 8B 64 C6 D8
95A0 AE 95 0A 7C B0 B3 89 64 B4 BC CD 0B BB 2B 0A B0
95B0 2A 0A D7 99 95 0B CF 

Function $958B

9590 40
9591 2B

9592 A4 2F 78
9595 72
9596 D6 AF 95

9599 0A
959A 7C
959B B0
959C 8B 64
959E C6
959F D8 AE 95

95A2 0A
95A3 7C
95A4 B0
95A5 B3
95A6 89 64
95A8 B4
95A9 BC
95AA CD
95AB 0B
95AC BB
95AD 2B

95AE 0A 

95AF B0
95B0 2A
95B1 0A
95B2 D7 99 95

95B5 0B
95B6 CF

     00 01 02 03 04 05 06 07 08 09 0A 0B 0C 0D 0E 0F
9590 40 2B A4 2F 78 72 D6 AF 95 0A 7C B0 8B 64 C6 D8
95A0 AE 95 0A 7C B0 B3 89 64 B4 BC CD 0B BB 2B 0A B0
95B0 2A 0A D7 99 95 0B CF 
----------------------------------------------------
     00 01 02 03 04 05 06 07 08 09 0A 0B 0C 0D 0E 0F
95B0                      20 D1 E4 00 00 AA 2F 78 E9
95C0 F0 D8 02 D0 B3 E9 D1 D5 02 B3 0C 75 D3 D2 B4 B8
95D0 CF 

Function $95B7 (00 00)
Args:
<0C> General

95BC AA 2F 78    / $782F (Active province)
95BF E9 F0 D8 02 / Call $D8F0 (find # of assigned soldiers)
95C3 D0
95C4 B3
95C5 E9 D1 D5 02 / Call $D5D1 (square root) -> sqrt(assigned soldiers + 1)
95C9 B3
95CA 0C
95CB 75
95CC D3          
95C4 D2          / 2 * General.War
95C5 B4
95C6 B8          / (2 * General.War) / sqrt(assigned soldiers + 1)
95C7 CF
----------------------------------------------------
     00 01 02 03 04 05 06 07 08 09 0A 0B 0C 0D 0E 0F
95D0    20 D1 E4 00 00 0C 78 B0 B3 8A 30 75 B4 BC B3
95E0 A4 2F 78 78 B0 B3 E9 4C F3 04 CF 

Function $95D1 (00 00)
Arg <0C> Province

95D6 0C
95D7 78
95D8 B0
95D9 B3       - Province: Gold
95DA 8A 30 75
95DD B4
95DE BC
95DF B3
95E0 A4 2F 78
95E3 78
95E4 B0
95E5 B3
95E6 E9 4C F3 04
95EA CF
----------------------------------------------------
     00 01 02 03 04 05 06 07 08 09 0A 0B 0C 0D 0E 0F
95E0                                  20 D1 E4 00 00
95F0 0C 7A B0 B3 8A 30 75 B4 BC B3 A4 2F 78 7A B0 B3
9600 E9 4C F3 04 CF 

Function $95EB (00 00)
Arg <0C> = Province

95F0 0C
95F1 7A
95F2 B0
95F3 B3       - Province: Rice
95F4 8A 30
95F6 75
95F7 B4
95F8 BC
95F9 B3
95FA A4 2F 78
95FD 7A
95FE B0
95FF B3
9600 E9 4C F3 04
9604 CF
----------------------------------------------------
     00 01 02 03 04 05 06 07 08 09 0A 0B 0C 0D 0E 0F
9600                20 D1 E4 00 00 AA 44 7D 0C 78 B4
9610 B3 B0 BC B1 AA 46 7D 0C 7A B4 B3 B0 BC B1 CF 

Function $9605 (00 00)
Subtract sent gold/rice from province <00>

Args
<0C> Province

960A AA 44 7D    / Gold taken to province
960D 0C
960E 78
960F B4
9610 B3
9611 B0
9612 BC
9613 B1
9614 AA 46 7D    /
9617 0C
9618 7A
9619 B4
961A B3
961B B0
961C BC
961D B1
961E CF
----------------------------------------------------
     00 01 02 03 04 05 06 07 08 09 0A 0B 0C 0D 0E 0F
9610                                              20
9620 D1 E4 00 00 8E 30 75 AA 44 7D 0C 78 B3 E9 F8 D7
9630 06 8E 30 75 AA 46 7D 0C 7A B3 E9 F8 D7 06 CF 
----------------------------------------------------
     00 01 02 03 04 05 06 07 08 09 0A 0B 0C 0D 0E 0F
9630                                              20
9640 D1 E4 FC FF 3C E9 BA D8 02 2B 0C 7F D3 8C FF 00
9650 C1 D8 58 96 41 D6 59 96 40 D7 6F 96 0C 8C F4 73
9660 BC 8B 19 B8 B3 AA F2 7B E9 6E 8E 04 D7 71 96 40
9670 CF 0C 72 B0 D6 99 96 A0 0D 00 D8 86 96 0A 7C B0
9680 8B 1E C6 D7 98 96 0A 73 D3 5F DA D8 92 96 40 D6
9690 93 96 41 D8 98 96 41 CF 0A B0 2A 0A D7 77 96 40
96A0 CF 

Function $963F (FC FF)
Args:
<0C> Province
Locs:
<0B> Nation of province

9644 3C
9645 E9 BA D8 02 / Call $D8BA -> Get province's nation
9649 2B

964A 0C
964B 7F
964C D3
964D 8C FF 00
9650 C1
9651 D8 58 96

if province is being invaded:
	9654 41
	9655 D6 59 96
else
	9658 40

9659 D7 6F 96

if province is not being invaded:
	965C 0C
	965D 8C F4 73
	9660 BC
	9661 8B 19
	9663 B8          / Province ID
	9664 B3
	9665 AA F2 7B    / $7BF2 (Current province)
	9668 E9 6E 8E 04 / Call $8E6E (check if provinces are adjacent)
	966C D7 71 96

else:
	966F 40
	9670 CF

9671 0C
9672 72
9673 B0
9674 D6 99 96

Loop:
9677 A0 0D 00
967A D8 86 96

9686

Bounds check:
9699 B0

     00 01 02 03 04 05 06 07 08 09 0A 0B 0C 0D 0E 0F
9670 CF 0C 72 B0 D6 99 96 A0 0D 00 D8 86 96 0A 7C B0
9680 8B 1E C6 D7 98 96 0A 73 D3 5F DA D8 92 96 40 D6
9690 93 96 41 D8 98 96 41 CF 0A B0 2A 0A D7 77 96 40
96A0 CF 
----------------------------------------------------
     00 01 02 03 04 05 06 07 08 09 0A 0B 0C 0D 0E 0F
96A0    20 D1 E4 FB FF 8A E1 7B 85 FB 40 A2 FF FF 0C
96B0 72 D6 D5 96 A0 0D 00 B3 87 FD E9 3F 96 04 D8 D3
96C0 96 81 FB 72 85 FB 8F FE B3 81 FD B1 A0 FF FF D0
96D0 A2 FF FF 81 FD B0 85 FD 81 FD D7 B4 96 87 FB 40
96E0 B1 A0 FF FF CF 

Function $96A1 (FB FF)
Args:
<0C> ?
+0D  ?

96A6 8A E1 7B    / $7BE1 (Adjacent province list)
96A9 85 FB

96AB 40
96AC A2 FF FF

96AF 0C
96B0 72
96B1 D6 D5 96

Loop:
96B4 A0 0D 00
96B7 B3
96B8 87 FD
96BA E9 3F 96 04 / Call $963F

Bounds check:
96D5

     00 01 02 03 04 05 06 07 08 09 0A 0B 0C 0D 0E 0F
96B0 72 D6 D5 96 A0 0D 00 B3 87 FD E9 3F 96 04 D8 D3
96C0 96 81 FB 72 85 FB 8F FE B3 81 FD B1 A0 FF FF D0
96D0 A2 FF FF 81 FD B0 85 FD 81 FD D7 B4 96 87 FB 40
96E0 B1 A0 FF FF CF 
----------------------------------------------------
     00 01 02 03 04 05 06 07 08 09 0A 0B 0C 0D 0E 0F
96E0                20 D1 E4 00 00 62 8E 7A A5 8E E0
96F0 00 62 E9 12 F4 08 CF 

Function $96E5 (00 00)

96EA 62
96EB 8E 7A A5
96EE 8E E0 00
9701 62
9702 E9 12 F4 08 / Call $F412 -> E0:A57A
9706 CF
----------------------------------------------------
     00 01 02 03 04 05 06 07 08 09 0A 0B 0C 0D 0E 0F
96F0                      20 D1 E4 00 00 AC B3 C8 D6
9700 05 97 AC 58 C9 8D 1E E9 81 C9 02 D8 02 97 AC 96
9710 C8 CF 

Function $96F7 (00 00)

96FC AC B3 C8    / Call $C8B3
96FF D6 05 97

9702	AC 58 C9	/ Call $C958

9705 8D 1E
9707 E9 81 C9 02 / Call $C981
970B D8 02 97

970E AC 96 C8    / Call $C896
9711 CF		     / Return
----------------------------------------------------
     00 01 02 03 04 05 06 07 08 09 0A 0B 0C 0D 0E 0F
9710       20 D1 E4 00 00 60 60 63 68 65 8D 16 67 E9
9720 E6 EE 0E CF 

Function $9712 (00 00)

9717 60
9718 60
9719 63
971A 68
971B 65
981C 8D 16
981E 67
981F E9 E6 EE 0E / Call $EEE6 (Sysop 0x07)
----------------------------------------------------
     00 01 02 03 04 05 06 07 08 09 0A 0B 0C 0D 0E 0F
9720             20 D1 E4 00 00 AC 3B D3 8D 10 60 E9
9730 AD D0 04 AC F2 E1 60 E9 98 CF 02 CF 

Function $9724 (00 00)

9729 AC 3B D3    / Call $D33B

972C 8D 10
972E 60
972F E9 AD D0 04 / Call $D0AD

9733 AC F2 E1    / Call $E1F2 -> Black out screen

9736 60
9737 E9 98 CF 02 / Call $CF98 -> Set nametable to 0

973B CF 
----------------------------------------------------
     00 01 02 03 04 05 06 07 08 09 0A 0B 0C 0D 0E 0F
9730                                     20 D1 E4 00
9740 00 0C D7 4A 97 AC 24 97 41 CF 8E C0 AF 8E E0 00
9750 62 E9 12 F4 06 40 CF 

Function $973C (00 00)
Args:
<0C>

9741 0C
9742 D7 4A 97

if
	9745 AC 24 97    / Call $9724
	9748 41
	9749 CF
else
	974A 8E C0 AF
	974D 8E E0 00
	9750 62
	9751 E9 12 F4 06 / Call $F412 -> E0:AFC0
	9755 40
	9756 CF
----------------------------------------------------
     00 01 02 03 04 05 06 07 08 09 0A 0B 0C 0D 0E 0F
9750                      20 D1 E4 00 00 AC E8 83 D7
9760 77 97 A0 0B 00 D8 70 97 61 AA 2F 78 E9 60 8C 04
9770 61 E9 9F 89 02 41 CF 40 CF 

Function $9757 (00 00) -> Check if no capable generals
Args:
+0B 

975C AC E8 83    / Call $83E8 - # of capable generals in active province

975F D7 77 97

if (no capable generals)
{
	9762 A0 0B 00
	9765 D8 70 97

	if (?)
	{
		9768 61
		9769 AA 2F 78    / $782F (Active province)
		976C E9 60 8C 04 / $8C60

		9770 61
		9771 E9 9F 89 02 / Call $899F -> Print "No one is capable"

		9775 41
		9776 CF
	}
}

9777 40
9778 CF
----------------------------------------------------
     00 01 02 03 04 05 06 07 08 09 0A 0B 0C 0D 0E 0F
9770                            20 D1 E4 00 00 8E A8
9780 A4 8E E0 00 62 E9 12 F4 06 CF 

Function $9779 (00 00) -> Display map

977E 8E A8 A4    / $A4A8
9781 8E E0 00	 / $00E0
9784 62
9785 E9 12 F4 06 / Call $F412 -> E0:A4A8 -> Display map
9789 CF
----------------------------------------------------
     00 01 02 03 04 05 06 07 08 09 0A 0B 0C 0D 0E 0F
9780                               20 D1 E4 00 00 A0
9790 0B 00 B3 66 69 8D 17 8E 15 B0 8E E0 00 62 E9 12
97A0 F4 0E CF

Function $978A (00 00)
Args:
+0B ?

978F A0 0B 00    /
9792 B3          / 
9793 66          /
9794 69          /
9795 8D 17       /
9797 8E 15 B0    /
979A 8E E0 00    /
979D 62          /
979E E9 12 F4 0E / Call $F412 -> E0:B015
97A2 CF
----------------------------------------------------
     00 01 02 03 04 05 06 07 08 09 0A 0B 0C 0D 0E 0F
97A0          20 D1 E4 00 00 D6 B6 97 8E FD AB 8E E0
97B0 00 62 E9 12 F4 06 A5 20 79 D7 AB 97 CF 

Function $97A3 (00 00)
97A8 D6 B6 97

97AB	8E FD AB
97AE	8E E0 00
97B1	62
97B2	E9 12 F4 06 / Call $F412 -> E0:ABFD

97B6	A5 20 79    / $7920
97B9	D7 AB 87    /

97BC CF          / Return
----------------------------------------------------
     00 01 02 03 04 05 06 07 08 09 0A 0B 0C 0D 0E 0F
97B0                                        20 D1 E4
97C0 FC FF 8D 18 63 E9 1D C4 04 8E 42 9F E9 4A C4 02
97D0 8D 19 63 E9 1D C4 04 AC 5E CC D7 DF 97 41 CF A4
97E0 2F 78 72 D6 3E 98 0B 7C B0 2A 0A B7 26 B7 14 A4
97F0 02 7D B7 26 B7 15 B7 03 B7 14 A4 02 7D B7 26 B7
9800 14 A5 04 7D B7 26 B7 15 B7 01 B7 14 0A B7 26 B7
9810 14 0B 8F 10 D3 B7 26 B7 15 B7 01 B7 15 B7 03 B7
9820 15 B7 2E B7 27 A9 04 7D 0A CD A4 02 7D BB A8 02
9830 7D 0B 8F 10 B3 89 64 D4 0B 7C B3 40 B1 0B B0 2B
9840 0B D7 E6 97 40 CF 
----------------------------------------------------
     00 01 02 03 04 05 06 07 08 09 0A 0B 0C 0D 0E 0F
9840                   20 D1 E4 FF FF A0 0B 00 B3 A5
9850 15 79 B4 C7 D8 82 98 A5 15 79 B3 A0 0B 00 B4 BC
9860 57 B5 72 A2 FF FF 8E F5 00 8E 64 B8 A0 0B 00 5E
9870 B5 8C F4 B7 BB B3 62 67 63 A0 FF FF B3 68 E9 E6
9880 EE 10 CF 

Function $9846 (FF FF)

984B A0 0B 00
984E B3
984F A5 15 79    /
9852 B4
9853 C7
9854 D8 82 98    /

9857	A5 15 79
985A	B3
985B	A0 0B 00
985E	B4
985F	BC
9860	57
9861	B5
9862	72
9863	A2 FF FF
9866	8E F5 00
9869	8E 64 B8
986C	A0 0B 00
986F	5E
9870	B5
9871	8C F4 B7
9874	BB
9875	B3
9876	62
9877	67
9878	63
9879	A0 FF FF
987C	B3
987D	68
987E	E9 E6 EE 10 / Call $EEE6 Sysop 0x08 (Print Graphic)

9882 CF
----------------------------------------------------
     00 01 02 03 04 05 06 07 08 09 0A 0B 0C 0D 0E 0F
9880          20 D1 E4 00 00 A0 0D 00 B3 A0 0B 00 B4
9890 C0 D8 9A 98 A0 0B 00 D6 BD 98 8E F5 00 8E 72 B8
98A0 60 62 67 63 A0 0B 00 57 B5 72 B3 68 E9 E6 EE 10
98B0 A0 0D 00 8C FF 00 C1 D8 C8 98 A0 0D 00 B3 A5 15
98C0 79 B4 BB B3 E9 46 98 02 CF 

Function $9883 (00 00)
Args:
+0B
+0D

9888 A0 0D 00
988B B3
988C A0 0B 00
988F B4
9890 C0
9891 D8 9A 98

9894	A0 0B 00
9897	D6 BD 98

989A	8E F5 00
989D	8E 72 B8
98A0	60
98A1	62
98A2	67
98A3	63
98A4	A0 0B 00
98A7	57
98A8	B5
98A9	72
98AA	B3
98AB	68
98AC	E9 E6 EE 10 / Call $EEE6 Sysop 0x10 (print graphic)
98B0	A0 0D 00
98B3	8C FF 00
98B6	C1
98B7	D8 C8 98
98BA	A0 0D 00

98BD B3
98BE A5 15 79    / $7915
98C1 B4
98C2 BB
98C3 B3
98C4 E9 46 98 02 / Call $9846
98C8 CF
----------------------------------------------------
     00 01 02 03 04 05 06 07 08 09 0A 0B 0C 0D 0E 0F
98C0                            20 D1 E4 F5 FF A0 0B
98D0 00 B3 A5 15 79 B4 BB A2 F9 FF A0 F9 FF 8C 57 9F
98E0 BB D3 2A A0 F9 FF 8C 5F 9F BB D3 29 A0 0B 00 57
98F0 B5 B3 A0 0B 00 53 C0 D8 FE 98 40 D6 FF 98 42 B4
9900 BB 85 F7 3A 69 65 87 F7 E9 8A CE 08 41 D6 43 99
9910 8E FA 00 0A 1B BC 59 B5 B3 A0 F9 FF D2 8C 77 9F
9920 BB B0 B4 BB B3 0A 1B BC 59 B5 B3 A0 F9 FF D2 8C
9930 67 9F BB B0 B4 BB B3 3B 69 65 87 F7 68 E9 E6 EE
9940 10 0B D0 2B 0B 1A C7 D7 10 99 60 E9 2F C8 02 D7
9950 4A 99 61 39 62 60 65 87 F7 A0 F9 FF 8C 57 9F BB
9960 D3 B3 8E 87 9F E9 0F CD 10 85 F5 3A 69 65 87 F7
9970 E9 2C CF 08 81 F5 8B FF C0 D8 7E 99 40 CF 81 F5
9980 D1 B3 A0 F9 FF 54 BD B4 DB A9 2E 78 41 CF 
----------------------------------------------------
     00 01 02 03 04 05 06 07 08 09 0A 0B 0C 0D 0E 0F
9980                                           20 D1
9990 E4 D8 FF 6E DE DC FF B3 8E 64 B8 8E F5 00 62 E9
99A0 FE DC 0A 8A FF 00 A9 2E 78 A4 2F 78 28 A5 2E 7D
99B0 53 DA A9 2E 7D 8A FF 00 A2 FF FF 40 A2 FE FF A0
99C0 FE FF D8 CD 99 60 E9 8A 97 02 D6 1E 9A A0 FF FF
99D0 B3 A5 2E 7D B4 C1 D8 EB 99 A0 FF FF B3 A5 2E 7D
99E0 B3 E9 83 98 04 A5 2E 7D A2 FF FF 60 A5 15 79 D8
99F0 F8 99 8A E2 00 D6 F9 99 40 B3 61 61 63 61 67 E9
9A00 E6 EE 0E 60 A5 15 79 54 C0 D8 10 9A 40 D6 13 9A
9A10 8A E1 00 B3 61 61 63 8D 1E 67 E9 E6 EE 0E 60 E9
9A20 2F C8 02 2A D8 1E 9A 0A D9 08 00 01 00 4D 9A 02
9A30 00 77 9A 04 00 89 9A 06 00 89 9A 10 00 AA 9A 20
9A40 00 C2 9A 40 00 D8 9A 80 00 8B 9B BF 99 A0 FE FF
9A50 D8 5F 9A 61 E9 8A 97 02 8A FF 00 A9 2E 78 CF A5
9A60 2E 7D B3 E9 C9 98 02 D8 BF 99 A0 FF FF B3 A5 2E
9A70 7D B3 E9 83 98 04 CF AC 79 97 AC E5 96 AC F7 96
9A80 60 38 E9 60 8C 04 D6 BF 99 A0 FE FF D8 97 9A 61
9A90 E9 8A 97 02 D6 A3 9A A0 FF FF B3 A5 2E 7D B3 E9
9AA0 83 98 04 8A 90 00 A9 2E 78 CF A0 FE FF D8 BF 99
9AB0 61 E9 8A 97 02 40 A2 FE FF 8A FF 00 A2 FF FF D6
9AC0 BF 99 A0 FE FF D7 BF 99 A0 FF FF B3 A5 2E 7D B3
9AD0 E9 83 98 04 41 D6 B6 9A A0 FE FF D7 BF 99 A5 2E
9AE0 7D D7 7C 9B A5 15 79 D8 BF 99 A0 FF FF B3 A5 2E
9AF0 7D B3 E9 83 98 04 A5 15 79 D1 A9 15 79 6E DE EA
9B00 FF B3 A5 15 79 5E B5 8C F4 B7 BB B3 8E F5 00 62
9B10 E9 FE DC 0A 47 29 DE E9 FF B3 09 B4 BB D3 A2 DA
9B20 FF DE F0 FF B3 09 B4 BB D3 A2 DB FF DE DB FF B3
9B30 09 B4 BB D3 A2 D8 FF DE E2 FF B3 09 B4 BB D3 A2
9B40 D9 FF 62 8D 1B 63 62 E9 8A CE 08 62 8D 1B 63 63
9B50 E9 2C CF 08 8E FF 00 DE D8 FF B3 DE DA FF B3 62
9B60 61 63 62 68 E9 E6 EE 10 09 D1 29 09 50 C4 D7 16
9B70 9B A5 15 79 B3 E9 46 98 02 D6 B9 9A A5 2E 7D D1
9B80 A9 2E 7D 6A E9 59 C8 02 D6 BF 99 A0 FE FF D7 BF
9B90 99 A5 2E 7D 53 C0 D8 31 9C A5 15 79 54 C6 D8 BF
9BA0 99 A0 FF FF B3 A5 2E 7D B3 E9 83 98 04 A5 15 79
9BB0 D0 A9 15 79 6E DE EA FF B3 A5 15 79 73 5E B5 8C
9BC0 F4 B7 BB B3 8E F5 00 62 E9 FE DC 0A 40 29 DE EA
9BD0 FF B3 09 B4 BB D3 A2 DA FF DE F1 FF B3 09 B4 BB
9BE0 D3 A2 DB FF DE DC FF B3 09 B4 BB D3 A2 D8 FF DE
9BF0 E3 FF B3 09 B4 BB D3 A2 D9 FF 62 8D 1B 63 63 E9
9C00 8A CE 08 62 8D 1B 63 62 E9 2C CF 08 8E FF 00 DE
9C10 D8 FF B3 DE DA FF B3 62 61 63 8D 1D 68 E9 E6 EE
9C20 10 09 D0 29 09 57 C2 D7 CE 9B A5 15 79 73 D6 74
9C30 9B A5 2E 7D D0 D6 80 9B 
----------------------------------------------------
     00 01 02 03 04 05 06 07 08 09 0A 0B 0C 0D 0E 0F
9C30                         20 D1 E4 FF FF A5 2E 78
9C40 A2 FF FF 8A E0 00 A9 2E 78 8E E7 00 62 62 E9 E6
9C50 EE 06 A0 FF FF A9 2E 78 CF 

Function $9C38 (FF FF)
Locs:
+FF

9C3D A5 2E 78    /
9C40 A2 FF FF    /

9C43 8A E0 00    /
9C46 A9 2E 78    / $782E
9C49 8E E7 00    /
9C4C 62
9C4D 62
9C4E E9 E6 EE 06 / Call $EEE6 Sysop 0x02 (Run Page E7)

9C52 A0 FF FF
9C56 A9 2E 78

     00 01 02 03 04 05 06 07 08 09 0A 0B 0C 0D 0E 0F
9C40 A2 FF FF 8A E0 00 A9 2E 78 8E E7 00 62 62 E9 E6
9C50 EE 06 A0 FF FF A9 2E 78 CF 
----------------------------------------------------
     00 01 02 03 04 05 06 07 08 09 0A 0B 0C 0D 0E 0F
9C50                            20 D1 E4 00 00 0C 53
9C60 BD B3 0D 1C BC 53 BD 1E B5 A6 EF 7B B6 B4 BB CF

Function $9C59 (00 00)

9C5E 0C
9C5F 53
9C60 BD
9C61 B3
9C62 0D
9C63 1C
9C64 BC
9C65 53
9C66 BD
9C67 1E
9C68 B5
9C69 A6 EF 7B    / $7BEF
9C6C B6
9C67 B4
9C68 BB
9C69 CF
----------------------------------------------------
     00 01 02 03 04 05 06 07 08 09 0A 0B 0C 0D 0E 0F
9C70 20 D1 E4 00 00 A0 0B 00 D8 81 9C 8A 88 9F D6 84
9C80 9C 8A 90 9F B3 65 E9 E6 EE 04 CF 

Function $9C70 (00 00) -> Performs one of two <00> CHR bank switches

9C75 A0 0B 00
9C78 D8 81 9C

if
	9C7B 8A 88 9F
	9C7E D6 84 9C
else
	9C81 8A 90 9F
	
9C84 B3
9C85 65
9C86 E9 E6 EE 04 / Call $EEE6 -> Sysop 0x05 (CHR bank switch)

9C8A CF
----------------------------------------------------
     00 01 02 03 04 05 06 07 08 09 0A 0B 0C 0D 0E 0F
9C80                                  20 D1 E4 F9 FF
9C90 A5 81 7C 5F DA 51 C0 D8 A0 9C AC 3B D3 AC 79 97
9CA0 61 E9 70 9C 02 8E 98 9F 8D 10 8D 10 E9 81 D6 06
9CB0 6E E9 E6 EE 02 60 3D E9 34 C2 04 B3 60 3C E9 34
9CC0 C2 04 B4 C8 D8 CB 9C 40 D6 CC 9C 41 A2 F9 FF 40
9CD0 D6 08 9D 3B 60 3D E9 34 C2 04 B3 60 3C E9 34 C2
9CE0 04 B3 E9 59 9C 06 2A 3B 61 3D E9 34 C2 04 B3 61
9CF0 3C E9 34 C2 04 B3 E9 59 9C 06 29 61 A0 F9 FF B3
9D00 39 3A E9 83 88 08 0B D0 2B 0B A6 EF 7B C2 D7 D3
9D10 9C 60 A0 F9 FF B3 39 3A E9 83 88 08 8E A8 9F 8D
9D20 10 8D 10 E9 81 D6 06 6E E9 E6 EE 02 60 E9 70 9C
9D30 02 CF 

Function $9C8B (F9 FF) -> Move horse from province <00> to <02>
Args:
<0C>
<0D>

9C90 A5 81 7C    / $7C81
9C93 5F
9C94 DA
9C95 51
9C96 C0
9C97 D8 A0 9C

If map is not showing:
	9C9A AC 3B D3    / Call $D33B
	9C9D AC 79 97    / Call $9779 -> Display map

9CA0 61
9CA1 E9 70 9C 02 / Call $9C70 -> CHR bank switch

9CA5 8E 98 9F
9CA8 8D 10
9CAA 8D 10
9CAC E9 81 D6 06 / Call $D681 -> Set palette

9CB0 6E
9CB1 E9 E6 EE 02 / Call $EEE6 -> Sysop 0x0E (Wait 1 frame)

9CB5 60
9CB6 3D
9CB7 E9 34 C2 04 / Call $C234 -> Get x-position of province
9CBB B3
9CBC 60
9CBD 3C
9CBE E9 34 C2 04 / Call $C234 -> Get x-position of province
9CC2 B4
9CC3 C8
9CC4 D8 CB 9C

if
	9CC7 40
	9CC8 D6 CC 9C
else
	9CCB 41
	
9CCC A2 F9 FF

9CCF 40
9CD0 D6 08 9D

Loop:
9CD3 3B
9CD4 60
9CD5 3D
9CD6 E9 34 C2 04 / Call $C234
9CDA B3
9CDB 60
9CDC 3C
9CDD E9 34 C2 04 / Call $C234
9CE1 B3
9CE2 E9 59 9C 06 / Call $9C59
9CE6 2A

9CE7 3B
9CE8 61
9CE9 3D
9CEA E9 34 C2 04 / Call $C234 -> Get y-position of province
9CEE B3
9CEF 61
9CF0 3C
9CF1 E9 34 C2 04 / Call $C234 -> Get y-position of province
9CF5 B3
9CF6 E9 59 9C 06 / Call $9C59
9CFA 29

9CFB 61
9CFC A0 F9 FF
9CFF B3
9D00 39
9D01 3A
9D02 E9 83 88 08 / Call $8883

9D06 0B
9D07 D0

Bounds check:
9D08 2B
9D09 0B
9D0A A6 EF 7B    / $7BEF
9D0D C2
9D0E D7 D3 9C

9D11 60
9D12 A0 F9 FF
9D15 B3
9D16 39
9D17 3A
9D18 E9 83 88 08 / Call $8883

9D1C 8E A8 9F
9D1F 8D 10
9D21 8D 10
9D23 E9 81 D6 06 / Call $D681 -> Set palette

9D27 6E
9D28 E9 E6 EE 02 / Call $EEE6 -> Wait 1 frame

9D2C 60
9D2D E9 70 9C 02 / Call $9C70 -> CHR bank switch

9D31 CF
----------------------------------------------------
Function $9D32
 00:9D32:A9 00     LDA #$00
 00:9D34:85 1A     STA $001A = #$C7
 00:9D36:A0 02     LDY #$02
 00:9D38:B1 08     LDA ($08),Y @ $0001 = #$EE
 00:9D3A:29 01     AND #$01
 00:9D3C:D0 0B     BNE $9D49
 00:9D3E:C8        INY
 00:9D3F:B1 08     LDA ($08),Y @ $0001 = #$EE
 00:9D41:29 0F     AND #$0F
 00:9D43:D0 04     BNE $9D49
 00:9D45:A9 01     LDA #$01
 00:9D47:85 1A     STA $001A = #$C7
 00:9D49:60        RTS -----------------------------------------
----------------------------------------------------
Function $9D4A
 00:9D4A:A5 08     LDA $0008 = #$00
 00:9D4C:05 09     ORA $0009 = #$00
 00:9D4E:F0 19     BEQ $9D69
 00:9D50:20 32 9D  JSR $9D32
 00:9D53:A5 1A     LDA $001A = #$C7
 00:9D55:D0 12     BNE $9D69
 00:9D57:A0 00     LDY #$00
 00:9D59:B1 08     LDA ($08),Y @ $0001 = #$EE
 00:9D5B:85 18     STA $0018 = #$00
 00:9D5D:C8        INY
 00:9D5E:B1 08     LDA ($08),Y @ $0001 = #$EE
 00:9D60:85 09     STA $0009 = #$00
 00:9D62:A5 18     LDA $0018 = #$00
 00:9D64:85 08     STA $0008 = #$00
 00:9D66:4C 4A 9D  JMP $9D4A
 00:9D69:60        RTS -----------------------------------------
----------------------------------------------------
Function $9D6A
 00:9D6A:AD 2F 78  LDA $782F = #$00
 00:9D6D:85 18     STA $0018 = #$00
 00:9D6F:AD 30 78  LDA $7830 = #$00
 00:9D72:85 19     STA $0019 = #$00
 00:9D74:A0 02     LDY #$02
 00:9D76:B1 18     LDA ($18),Y @ $0001 = #$EE
 00:9D78:85 0A     STA $000A = #$78
 00:9D7A:C8        INY
 00:9D7B:B1 18     LDA ($18),Y @ $0001 = #$EE
 00:9D7D:85 0B     STA $000B = #$77
 00:9D7F:A9 72     LDA #$72
 00:9D81:85 0C     STA $000C = #$E5
 00:9D83:A9 7D     LDA #$7D
 00:9D85:85 0D     STA $000D = #$05
 00:9D87:A9 74     LDA #$74
 00:9D89:85 0E     STA $000E = #$00
 00:9D8B:A9 7D     LDA #$7D
 00:9D8D:85 0F     STA $000F = #$00
 00:9D8F:60        RTS -----------------------------------------
----------------------------------------------------
Function $9D90
 00:9D90:A9 00     LDA #$00
 00:9D92:85 08     STA $0008 = #$00
 00:9D94:85 09     STA $0009 = #$00
 00:9D96:60        RTS -----------------------------------------
----------------------------------------------------
Function $9D97
 00:9D97:A9 01     LDA #$01
 00:9D99:85 08     STA $0008 = #$00
 00:9D9B:A9 00     LDA #$00
 00:9D9D:85 09     STA $0009 = #$00
 00:9D9F:60        RTS -----------------------------------------
----------------------------------------------------
Function $9DA0
 00:9DA0:20 6A 9D  JSR $9D6A
 00:9DA3:A0 00     LDY #$00
 00:9DA5:B1 0E     LDA ($0E),Y @ $0001 = #$EE
 00:9DA7:85 18     STA $0018 = #$00
 00:9DA9:91 0C     STA ($0C),Y @ $05E6 = #$FA
 00:9DAB:C8        INY
 00:9DAC:B1 0E     LDA ($0E),Y @ $0001 = #$EE
 00:9DAE:91 0C     STA ($0C),Y @ $05E6 = #$FA
 00:9DB0:05 18     ORA $0018 = #$00
 00:9DB2:D0 03     BNE $9DB7
 00:9DB4:4C 97 9D  JMP $9D97
 00:9DB7:A0 00     LDY #$00
 00:9DB9:B1 0C     LDA ($0C),Y @ $05E6 = #$FA
 00:9DBB:85 18     STA $0018 = #$00
 00:9DBD:C8        INY
 00:9DBE:B1 0C     LDA ($0C),Y @ $05E6 = #$FA
 00:9DC0:85 19     STA $0019 = #$00
 00:9DC2:A0 00     LDY #$00
 00:9DC4:B1 18     LDA ($18),Y @ $0001 = #$EE
 00:9DC6:85 08     STA $0008 = #$00
 00:9DC8:C8        INY
 00:9DC9:B1 18     LDA ($18),Y @ $0001 = #$EE
 00:9DCB:85 09     STA $0009 = #$00
 00:9DCD:20 4A 9D  JSR $9D4A
 00:9DD0:A0 00     LDY #$00
 00:9DD2:A5 08     LDA $0008 = #$00
 00:9DD4:91 0E     STA ($0E),Y @ $0001 = #$EE
 00:9DD6:C8        INY
 00:9DD7:A5 09     LDA $0009 = #$00
 00:9DD9:91 0E     STA ($0E),Y @ $0001 = #$EE
 00:9DDB:05 08     ORA $0008 = #$00
 00:9DDD:F0 03     BEQ $9DE2
 00:9DDF:4C 90 9D  JMP $9D90
 00:9DE2:A0 00     LDY #$00
 00:9DE4:B1 0C     LDA ($0C),Y @ $05E6 = #$FA
 00:9DE6:C5 0A     CMP $000A = #$78
 00:9DE8:D0 0A     BNE $9DF4
 00:9DEA:C8        INY
 00:9DEB:B1 0C     LDA ($0C),Y @ $05E6 = #$FA
 00:9DED:C5 0B     CMP $000B = #$77
 00:9DEF:D0 03     BNE $9DF4
 00:9DF1:4C 90 9D  JMP $9D90
 00:9DF4:A5 0A     LDA $000A = #$78
 00:9DF6:85 08     STA $0008 = #$00
 00:9DF8:A5 0B     LDA $000B = #$77
 00:9DFA:85 09     STA $0009 = #$00
 00:9DFC:20 32 9D  JSR $9D32
 00:9DFF:A5 1A     LDA $001A = #$C7
 00:9E01:D0 03     BNE $9E06
 00:9E03:4C 90 9D  JMP $9D90
 00:9E06:A0 00     LDY #$00
 00:9E08:A5 08     LDA $0008 = #$00
 00:9E0A:91 0E     STA ($0E),Y @ $0001 = #$EE
 00:9E0C:C8        INY
 00:9E0D:A5 09     LDA $0009 = #$00
 00:9E0F:91 0E     STA ($0E),Y @ $0001 = #$EE
 00:9E11:4C 90 9D  JMP $9D90
 00:9E14:20 6A 9D  JSR $9D6A
 00:9E17:A0 00     LDY #$00
 00:9E19:B1 0A     LDA ($0A),Y @ $7779 = #$00
 00:9E1B:85 16     STA $0016 = #$AA
 00:9E1D:C8        INY
 00:9E1E:B1 0A     LDA ($0A),Y @ $7779 = #$00
 00:9E20:85 17     STA $0017 = #$00
 00:9E22:05 16     ORA $0016 = #$AA
 00:9E24:D0 0E     BNE $9E34
 00:9E26:A0 00     LDY #$00
 00:9E28:A5 0A     LDA $000A = #$78
 00:9E2A:91 0E     STA ($0E),Y @ $0001 = #$EE
 00:9E2C:C8        INY
 00:9E2D:A5 0B     LDA $000B = #$77
 00:9E2F:91 0E     STA ($0E),Y @ $0001 = #$EE
 00:9E31:4C 4A 9E  JMP $9E4A
 00:9E34:A5 16     LDA $0016 = #$AA
 00:9E36:85 08     STA $0008 = #$00
 00:9E38:A5 17     LDA $0017 = #$00
 00:9E3A:85 09     STA $0009 = #$00
 00:9E3C:20 4A 9D  JSR $9D4A
 00:9E3F:A0 00     LDY #$00
 00:9E41:A5 08     LDA $0008 = #$00
 00:9E43:91 0E     STA ($0E),Y @ $0001 = #$EE
 00:9E45:C8        INY
 00:9E46:A5 09     LDA $0009 = #$00
 00:9E48:91 0E     STA ($0E),Y @ $0001 = #$EE
 00:9E4A:20 A0 9D  JSR $9DA0
 00:9E4D:60        RTS -----------------------------------------
----------------------------------------------------
$9E4E
Indicates which page to load for specific menu options
00: E7
01: E5
02: E5
03: E7
04: E7
05: E6
06: E6
07: F5
08: E6
09: F5
----------------------------------------------------
STRINGS
9E58 "Master %s,\nyour orders for\nProvince %2d ?"
9E82 "No.%2d %-17s\nnow plotting strategy"
9EA5 (blank)
9EA6 "\n"
9EA8 1B 52 22 "%-5s\nZhou#%2d"
9EAB "Open"
9EBE "Territory"
9EC8 "Ruler"
9ECE "%-7s"
9ED3 "%-7s"
9ED8 "Governor"
9EE1 "%-7s"
9EE6 "%-7s"
9EEB "Advisor"
9EF3 "%-7s"
9EF8 "%-7s"
9EFD 1B 43 30 1B 45 3F
9F04 1B 43 30 1B 45 3D
9F0B (blank)
9F0C 1B 52 2B 1B 45 34
9F13 1B 52 23 1B 45 3D
9F1A "Master %s,\n"
9F26 "%s has\nbroken your alliance"
9F42 "Reduce soldiers to 0"
----------------------------------------------------
9F57
0B080C09080C0B040504060404060502C8BDC2BA52BB1EBF8EBE2ABC02BD7ABA2BBE0ABBBEBB6FBFD6BE96BC65BD9EBA0000B1B203000000000001020300000000
----------------------------------------------------
9F98 - Palettes
0F 16 37 2C 
0F 12 37 2C
0F 2A 37 2C
0F 2C 37 16
0F 30 30 30
0F 30 30 30
0F 30 30 30
0F 30 30 2A
----------------------------------------------------
9FB8
FFFFFFFFFFFFFFFF0000000000000000000000000000000000000000000000000000000000000000FFFFFBFFFFFFFFFFFFFFEFFEFFFFBFBFFFFFFEFFFFFFF3FEFFFFFFBFFFFFFFFD