Page EF
ROM: 0x1E010-0x2000F
----------------------------------------------------
     00 01 02 03 04 05 06 07 08 09 0A 0B 0C 0D 0E 0F
8000 4C 03 80 

Function $8000

8000 JMP $8003 ; Main page function
----------------------------------------------------
     00 01 02 03 04 05 06 07 08 09 0A 0B 0C 0D 0E 0F
8000          20 D1 E4 FF FF 62 64 E9 E6 EE 04 A2 FF
8010 FF 8E F0 00 62 63 E9 E6 EE 06 A5 5D 78 54 C0 D8
8020 28 80 AC DB 88 D6 2B 80 AC B8 A2 A0 FF FF B3 62
8030 63 E9 E6 EE 06 CF 

Function $8003 (FF FF)

8008 62
8009 64
800A E9 E6 EE 04
800E A2 FF FF    / Save page in RAM bank 2

8011 8E F0 00
8014 62
8015 63
8016 E9 E6 EE 06 / Load page F0

801A A5 5D 78
801D 54
801E C0
801F D8 28 80

if $785D == 4
	8022 AC DB 88    / Call $88DB
	8025 D6 2B 80
else
	8028 AC B8 A2    / Call $A2B8

802B A0 FF FF
802E B3
802F 62
8030 63
8031 E9 E6 EE 06 / Restore page in RAM bank 2
----------------------------------------------------
     00 01 02 03 04 05 06 07 08 09 0A 0B 0C 0D 0E 0F
8030                   20 D1 E4 F8 FF 40 A2 FF FF 0C
8040 B0 D8 81 80 0C 72 B0 D8 81 80 0C 72 B0 B3 0C B0
8050 B3 E9 B9 94 04 2A D7 63 80 A4 F2 7B 2A 8A 84 A7
8060 D6 80 80 3A E9 BA D8 02 D7 6F 80 41 D6 70 80 40
8070 D8 7D 80 A5 00 7E D8 7D 80 41 A2 FF FF 8A 33 AA
8080 28 40 A2 FE FF D6 C2 80 0D B0 29 08 8C 33 AA C0
8090 D8 AE 80 0A 7F D3 8C FF 00 C1 D8 A1 80 41 D6 A2
80A0 80 40 D7 AE 80 8D 64 0D 7C B4 B3 B0 B8 B1 3D 3A
80B0 38 8E E0 00 62 E9 12 F4 0A A0 FE FF D0 A2 FE FF
80C0 09 2D 0D D7 88 80 A0 FF FF D8 D8 80 3A 8E 2C A4
80D0 8E E0 00 62 E9 12 F4 08 A0 FE FF CF 
----------------------------------------------------
     00 01 02 03 04 05 06 07 08 09 0A 0B 0C 0D 0E 0F
80D0                                     20 D1 E4 FC
80E0 FF A4 08 7E 74 B0 2A A4 F2 7B 72 B0 D8 1D 81 A4
80F0 F2 7B 72 B0 B3 8E 89 BA 8E E0 00 62 E9 12 F4 08
8100 2B A4 F2 7B 72 B0 B3 E9 B3 D5 02 D8 12 81 3B D6
8110 22 81 3B 0A B0 B1 3A A4 F2 7B 72 B0 B1 A4 F2 7B
8120 72 B3 0A B1 CF 
----------------------------------------------------
     00 01 02 03 04 05 06 07 08 09 0A 0B 0C 0D 0E 0F
8120                20 D1 E4 FE FF A4 F2 7B 72 B0 B3
8130 8E 89 BA 8E E0 00 62 E9 12 F4 08 2B 3C E9 B3 D5
8140 02 D8 57 81 3B 0C B0 B1 3C A4 F2 7B 72 B0 B1 A4
8150 F2 7B 72 B3 D6 58 81 3B 0C B1 CF 

Function $8125 (FE FF)

812A A4 F2 7B    / $7BF2
812D 72
812E B0
812F B3
8130 8E 89 BA
8133 8E E0 00
8136 62
8137 E9 12 F4 08 / Call $F412 -> E0:BA89
813B 2B

813C 3C
813D E9 B3 D5 02 / Call $D3B5
8141 D8 57 81

if 
	8144 3B
	8145 0C
	8146 B0
	8147 B1
	8148 3C
	8149 A4 F2 7B
	814C 72
	814D B0
	814E B1
	814F A4 F2 7B
	8152 72
	8153 B3
	8154 D6 58 81
else
	8157 3B
	
8158 0C
8159 B1
815A CF
----------------------------------------------------
     00 01 02 03 04 05 06 07 08 09 0A 0B 0C 0D 0E 0F
8150                                  20 D1 E4 FE FF
8160 40 D6 92 81 A0 FE FF D2 B3 A5 06 7E 5C B5 B4 BB
8170 8C 2D 7C BB B0 D8 8E 81 A0 FE FF D2 B3 A5 06 7E
8180 5C B5 B4 BB 8C 45 7C BB B0 B3 E9 25 81 02 A0 FE
8190 FF D0 A2 FE FF A0 FE FF 56 C6 D7 64 81 CF 
----------------------------------------------------
     00 01 02 03 04 05 06 07 08 09 0A 0B 0C 0D 0E 0F
8190                                           20 D1
81A0 E4 FE FF AC DC 80 AC 5B 81 A4 F2 7B 72 D6 BA 81
81B0 8D 64 0B 7C B4 B3 B0 B8 B1 0B B0 2B 0B D7 B0 81
81C0 CF 
----------------------------------------------------
     00 01 02 03 04 05 06 07 08 09 0A 0B 0C 0D 0E 0F
81C0    20 D1 E4 FA FF 0C B0 2B 3C 0D 76 B0 B3 8E C7
81D0 BA 8E E0 00 62 E9 12 F4 0A 2A 0A D7 E4 81 0D 76
81E0 B3 D6 E5 81 3A 0B B1 CF 
----------------------------------------------------
     00 01 02 03 04 05 06 07 08 09 0A 0B 0C 0D 0E 0F
81E0                         20 D1 E4 00 00 3C E9 A3
81F0 D8 02 A6 02 7E C0 D8 0F 82 A4 08 7E 74 B0 D7 08
8200 82 A4 08 7E 74 D6 46 82 A4 08 7E 74 D6 39 82 A4
8210 08 7E 76 B0 D7 1E 82 A4 08 7E 76 D6 46 82 3C E9
8220 B3 D5 02 D8 35 82 3C A4 08 7E 76 B0 B1 A4 08 7E
8230 76 B3 0C B1 CF A4 08 7E 76 B0 B3 8E 89 BA 8E E0
8240 00 62 E9 12 F4 08 B3 0C B1 3C 40 B1 CF 
----------------------------------------------------
     00 01 02 03 04 05 06 07 08 09 0A 0B 0C 0D 0E 0F
8240                                        20 D1 E4
8250 FC FF 0C D7 57 82 CF 0C 76 B0 D6 6C 82 0B B0 2A
8260 3C 3B E9 C1 81 04 3B E9 E8 81 02 0A 2B 0B D7 5D
8270 82 CF 
----------------------------------------------------
     00 01 02 03 04 05 06 07 08 09 0A 0B 0C 0D 0E 0F
8270       20 D1 E4 FA FF 0C 72 B0 D7 7E 82 CF 0C 74
8280 B0 D7 88 82 40 D6 97 82 0C 74 B0 B3 8E 89 BA 8E
8290 E0 00 62 E9 12 F4 08 2B 0D 76 B0 D6 C6 82 0A B0
82A0 29 0C B0 B3 3A E9 A3 D8 02 B4 C0 D8 C5 82 0B D7
82B0 BA 82 0C 74 B3 0A B1 D6 BE 82 3B 0A B1 0A 2B 3D
82C0 3A E9 C1 81 04 09 2A 0A D7 9E 82 0B D8 D2 82 3B
82D0 40 B1 CF 
----------------------------------------------------
     00 01 02 03 04 05 06 07 08 09 0A 0B 0C 0D 0E 0F
82D0          20 D1 E4 FF FF A5 5F 7C A2 FF FF 4A CD
82E0 A0 FF FF DA A2 FF FF A5 06 7E 51 C0 D8 FB 82 A0
82F0 FF FF 58 DA D8 15 83 41 D6 0D 83 41 CD A0 FF FF
8300 BE A2 FF FF A0 FF FF 54 DA D8 15 83 42 CD A0 FF
8310 FF DB A2 FF FF 43 CD A0 FF FF DA A2 FF FF A0 FF
8320 FF A9 5F 7C CF 
----------------------------------------------------
     00 01 02 03 04 05 06 07 08 09 0A 0B 0C 0D 0E 0F
8320                20 D1 E4 FC FF 40 A2 FC FF AC D3
8330 82 A5 5F 7C D5 00 00 04 00 9A 83 43 83 F0 83 2F
8340 84 95 84 A4 0A 7E 2B 40 A2 FD FF D6 6A 83 3B A4
8350 08 7E 79 B3 E9 72 82 04 3B E9 4D 82 02 A0 FD FF
8360 D0 A2 FD FF D1 0B 79 2B 8F F7 A0 FD FF 52 C6 D7
8370 4E 83 AC 9E 81 A4 08 7E 79 2B 0B 72 B0 D8 8C 83
8380 0B 74 B0 B3 3B E9 36 80 04 A2 FC FF A4 0A 7E 76
8390 B3 40 B1 A4 0A 7E 7F B3 40 B1 A5 06 7E 51 C0 D7
83A0 C8 83 AA F2 7B AA 02 7E 8E CE A9 8E E0 00 62 E9
83B0 12 F4 0A AA F2 7B AA 02 7E 8E 5B A9 8E E0 00 62
83C0 E9 12 F4 0A A0 FC FF CF AA F2 7B AA 02 7E 8E 5B
83D0 A9 8E E0 00 62 E9 12 F4 0A A5 00 7E D8 C4 83 AA
83E0 F2 7B 8E 2C A4 8E E0 00 62 E9 12 F4 08 D6 C4 83
83F0 A4 08 7E 79 B3 E9 4D 82 02 A4 0A 7E 2B 40 A2 FD
8400 FF D6 16 84 3B E9 4D 82 02 A0 FD FF D0 A2 FD FF
8410 D1 0B 79 2B 8F F7 A0 FD FF 52 C6 D7 04 84 AC 9E
8420 81 A4 0A 7E 76 B3 40 B1 A4 08 7E 7F D6 90 83 AA
8430 0A 7E A4 0A 7E 79 B3 E9 72 82 04 A4 0A 7E 2B 40
8440 A2 FD FF D6 62 84 3B A4 08 7E 79 B3 E9 72 82 04
8450 3B E9 4D 82 02 A0 FD FF D0 A2 FD FF D1 0B 79 2B
8460 8F F7 A0 FD FF 52 C6 D7 46 84 AC 9E 81 A4 0A 7E
8470 7D B0 B3 A4 0A 7E 79 B3 E9 36 80 04 A4 08 7E 7D
8480 B0 B3 A4 08 7E 79 B3 E9 36 80 04 A2 FC FF A4 0A
8490 7E 76 D6 97 83 AA 0A 7E A4 0A 7E 79 B3 E9 72 82
84A0 04 A4 0A 7E 2B 40 A2 FD FF D6 BE 84 3B E9 4D 82
84B0 02 A0 FD FF D0 A2 FD FF D1 0B 79 2B 8F F7 A0 FD
84C0 FF 52 C6 D7 AC 84 A4 08 7E 79 B3 E9 4D 82 02 AC
84D0 9E 81 A4 0A 7E 7D B0 B3 A4 0A 7E 79 B3 E9 36 80
84E0 04 A4 0A 7E 76 B3 40 B1 A4 08 7E D6 96 83 
----------------------------------------------------
     00 01 02 03 04 05 06 07 08 09 0A 0B 0C 0D 0E 0F
84E0                                           20 D1
84F0 E4 FC FF 8A 44 A5 2A 0C B0 2B D8 15 85 3A 8E 0E
8500 7E E9 57 E1 04 60 0B B0 B3 E9 2D C1 04 B3 8E 0E
8510 7E E9 57 E1 04 CF 
----------------------------------------------------
     00 01 02 03 04 05 06 07 08 09 0A 0B 0C 0D 0E 0F
8510                   20 D1 E4 FC FF 8A 4A A5 2A 0C
8520 B0 2B D8 3D 85 3A 8E 0E 7E E9 57 E1 04 60 0B B0
8530 B3 E9 2D C1 04 B3 8E 0E 7E E9 57 E1 04 CF 
----------------------------------------------------
     00 01 02 03 04 05 06 07 08 09 0A 0B 0C 0D 0E 0F
8530                                           20 D1
8540 E4 00 00 60 60 66 8D 1C 8D 15 62 67 E9 E6 EE 0E
8550 8E 4D A5 E9 4A C4 02 CF 
----------------------------------------------------
     00 01 02 03 04 05 06 07 08 09 0A 0B 0C 0D 0E 0F
8550                         20 D1 E4 F8 FF 40 A2 FC
8560 FF 0C B0 2B 0B B0 8F 13 B0 8B FF C0 D8 7C 85 0B
8570 B0 8F 13 B3 A4 98 7C B1 41 A2 FC FF 60 0B B0 B3
8580 E9 2D C1 04 29 A0 FC FF D8 93 85 0B B0 8F 13 B3
8590 89 FF B1 39 8E 0E 7E E9 40 E1 04 8E 0E 7E E9 79
85A0 E1 02 51 BE B3 89 10 B4 BC 28 0B A6 02 7E C0 D8
85B0 B6 85 41 D6 B7 85 40 A2 FD FF A5 5F 7C D5 00 00
85C0 04 00 D3 85 CC 85 09 86 1C 86 31 86 0C 79 B3 E9
85D0 EE 84 02 A5 00 7E D7 F9 85 AC F2 E1 08 A8 90 7C
85E0 6C 38 E9 1D C4 04 8E 0E 7E E9 56 C4 02 0B A6 02
85F0 7E C0 D8 3C 86 4C D6 3D 86 AC 3E 85 8E 0E 7E E9
8600 56 C4 02 8E 81 A5 D6 43 86 A0 FD FF D7 D3 85 0C
8610 79 B3 E9 16 85 02 A4 08 7E D6 CD 85 A0 FD FF 51
8620 C0 D8 D3 85 0C 79 B3 E9 16 85 02 A4 0A 7E D6 CD
8630 85 A0 FD FF 51 C0 D8 16 86 D6 2B 86 42 A8 90 7C
8640 8E 84 A5 E9 4A C4 02 0B A6 02 7E C0 D8 55 86 AA
8650 55 A5 D6 58 86 AA 57 A5 E9 56 C4 02 8D 1E E9 43
8660 D1 02 A5 00 7E D8 6B 86 AC 3E 85 CF 

Function $8558 -> Print battle conclusion screen

855D 40
855E A2 FC FF

8561 0C
8562 B0
8563 2B

8564 0B
8565 B0
8566 8F 13
8568 B0
8569 8B FF
856B C0
856C D8 7C 85

	856F 0B
	8570 B0
	8571 8F 13
	8573 B3
	8574 A4 98 7C .. / $7C98 
	8577 B1

	8578 41
	8579 A2 FC FF

857C 60
857D 0B
857E B0
857F B3
8580 E9 2D C1 04 / Call $C12D (Get ? of general)
8584 29

8585 A0 FC FF
8588 D8 93 85

	858B 0B
	858C B0
	858D 8F 13
	858F B3
	8590 89 FF
	8592 B1

8593 39
8594 8E 0E 7E .. / $7E0E
8597 E9 40 E1 04 / Call $E140 (transfer string)
859B 8E 0E 7E
859E E9 79 E1 02 / Call $E179 (length of string)
85A2 51
85A3 BE
85A4 B3
85A5 89 10
85A7 B4
85A8 BC
85A9 28          / x-pos of string

85AA 0B
85AB A6 02 7E .. / $7E02
85AE C0
85AF D8 B6 85

85B2 41
85B3 D6 B7 85

85B6 40

85B7 A2 FD FF

85BA A5 5F 7C .. / $7C5F
85BD D5 00 00
        04 00
		D3 85
		CC 85
		09 86
		1C 86
		31 86
		
85CC 0C 

85CD 79
85CE B3
85CF E9 EE 84 02 / Call $84EE

85D3 A5 00 7E .. / $7E00
85D6 D7 F9 85

85D9 AC F2 E1 .. / Call $E1F2 -> Black out screen
85DC 08
85DD A8 90 7C .. / $7C90
85E0 6C
85E1 38
85E2 E9 1D C4 04 / Call $C41D -> Text pos
85E6 8E 0E 7E .. / $7E0E
85E9 E9 56 C4 02 / Call $C456 -> Print
85ED 0B
85EE A6 02 7E .. / $7E02
85F1 C0
85F2 D8 3C 86

85F5 4C
85F6 D6 3D 86

85F9 AC 3E 85 .. / Call $853E
85FC 8E 0E 7E .. / $7E0E
85FF E9 56 C4 02 / Call $C456 -> Print
8603 8E 81 A5 
8606 D6 43 86

8609 A0 FD FF
860C D7 D3 85

860F 0C
8610 79
8611 B3 
8612 E9 16 85 02 / Call $8516

8616 A4 08 7E .. / $7E08
8619 D6 CD 85

861C A0 FD FF
861F 51
8620 C0
8621 D8 D3 85

8624 0C
8625 79
8626 B3
8627 E9 16 85 02 / Call $8516

862B A4 0A 7E .. / $7E0A
862E D6 CD 85

8631 A0 FD FF
8634 51
8635 C0
8636 D8 16 86

8639 D6 2B 86

863C 42

863D A8 90 7C .. / $7C90

8640 8E 84 A5 .. / $A584 "\n\n"

8643 E9 4A C4 02 / Call $C44A -> Print

8647 0B
8648 A6 02 7E .. / $7E02
864B C0
864C D8 55 86

864F AA 55 A5 .. / $A555 (triumphed)
8652 D6 58 86

8655 AA 57 A5 .. / $A557 (succumbed to a higher power)

8658 E9 56 C4 02 / Call $C456 -> Print
865C 8D 1E
865E E9 43 D1 02 / Call $D143 (Wait for 180 frames / 3 seconds)

8662 A5 00 7E .. / $7E00
8665 D8 6B 86

8668 AC 3E 85 .. / Call $853E

866B CF
----------------------------------------------------
     00 01 02 03 04 05 06 07 08 09 0A 0B 0C 0D 0E 0F
8660                                     20 D1 E4 FA
8670 FF 40 A2 FE FF AA 02 7E E9 E2 D4 02 A2 FF FF A4
8680 04 7E B0 8F 13 B0 8B FF C0 D8 9B 86 A4 04 7E B0
8690 8F 13 B3 A4 98 7C B1 41 A2 FE FF 60 A4 04 7E B0
86A0 B3 E9 2D C1 04 2A A5 F4 7B 53 C1 D7 B4 86 A0 FF
86B0 FF D7 BC 86 3A 8E 0E 7E E9 40 E1 04 8E 0E 7E E9
86C0 79 E1 02 51 BE B3 89 10 B4 BC 29 A0 FE FF D8 DF
86D0 86 A4 04 7E B0 8F 13 B0 8B FF C0 40 A2 FE FF A5
86E0 F4 7B D5 00 00 07 00 08 87 F7 86 1F 87 8C 87 AE
86F0 87 F7 86 1F 87 8C 87 8E 87 A5 8E 0E 7E E9 57 E1
8700 04 09 D1 29 48 A8 90 7C AC F2 E1 6C 39 E9 1D C4
8710 04 8E 0E 7E E9 56 C4 02 8D 1E E9 43 D1 02 CF 8E
8720 9B A5 8E 0E 7E E9 57 E1 04 09 D1 29 A4 04 7E B0
8730 B3 A4 08 7E 76 B0 B4 C0 D8 4C 87 8E 9F A5 8E 0E
8740 7E E9 57 E1 04 47 A8 90 7C D6 68 87 45 A8 90 7C
8750 A5 F4 7B 51 C0 D8 5E 87 8E A5 A5 D6 61 87 8E AF
8760 A5 8E 0E 7E E9 57 E1 04 A0 FF FF D8 7B 87 8E B9
8770 A5 8E 0E 7E E9 57 E1 04 D6 08 87 8E C7 A5 8E 0E
8780 7E E9 57 E1 04 A4 90 7C 74 D6 05 87 A0 FF FF D8
8790 A0 87 8E CD A5 8E 0E 7E E9 57 E1 04 45 D6 05 87
87A0 8E E6 A5 8E 0E 7E E9 57 E1 04 4B D6 05 87 A0 FF
87B0 FF D8 C3 87 8E F3 A5 8E 0E 7E E9 40 E1 04 46 29
87C0 D6 08 87 8E 09 A6 8E 0E 7E E9 57 E1 04 09 8F FB
87D0 29 D6 9C 87 
----------------------------------------------------
     00 01 02 03 04 05 06 07 08 09 0A 0B 0C 0D 0E 0F
87D0             20 D1 E4 F3 FF 8A 07 7C 85 FD 8A F5
87E0 7B 85 FB A4 07 7C 85 F7 A4 F5 7B 85 F5 87 F7 E9
87F0 E2 D4 02 D7 08 88 87 F5 E9 E2 D4 02 D8 08 88 81
8800 FB 85 F9 81 F5 D6 0E 88 81 FD 85 F9 81 F7 85 F3
8810 A5 F4 7B 54 C6 D8 30 88 81 F7 A8 02 7E 81 F5 A8
8820 04 7E 41 A9 06 7E 81 FD A8 08 7E 81 FB D6 45 88
8830 81 F5 A8 02 7E 81 F7 A8 04 7E 40 A9 06 7E 81 FB
8840 A8 08 7E 81 FD A8 0A 7E AC 7C 8B AC 25 83 A2 FF
8850 FF 81 F9 B0 A6 02 7E C0 D8 5F 88 6F D6 61 88 8D
8860 10 E9 AB D2 02 60 E9 F4 D2 02 A5 00 7E D8 85 88
8870 AC 50 D3 87 F9 E9 58 85 02 AC 25 D3 D7 79 88 AC
8880 50 D3 D6 B8 88 AC F2 E1 60 60 60 60 8D 12 E9 E6
8890 EE 0A 40 A9 8A 7C 60 E9 18 D2 02 AC 6C 86 87 F9
88A0 E9 58 85 02 AC 25 D3 D7 A4 88 AC F2 E1 8E 6B A5
88B0 8E E0 00 62 E9 12 F4 06 67 E9 0D C4 02 A0 FF FF
88C0 CF 

Function $87D4

87D9 8A 07 7C .. / $7C07 (Attacking army?)
87DC 85 FD
 
87DE 8A F5
87E0 7B
87E1 85 FB

87E3 A4 07 7C .. / $7C07 (Attacking army?)
87E6 85 F7

87E8 A4 F5 7B .. / $7BF5 (Defending army?)
87EB 85 F5

87ED 87 F7
87EF E9 E2 D4 02 / Call $D4E2 -> Check if attacking army's nation is player-controlled
87F3 D7 08 88

87F6 87 F5
87F8 E9 E2 D4 02 / Call $D4E2 -> Checking defending army's nation is player-controlled
87FC D8 08 88

87FF 81 FB
8801 85 F9
8803 81 F5
8805 D6 0E 88

8808 81 FD
880A 85 F9
880C 81 F7

880E 85 F3
8810 A5 F4 7B .. / $7BF4
8813 54
8814 C6
8815 D8 30 88

if
	8818 81 F7
	881A A8 02 7E .. / $7E02
	881D 81 F5
	881F A8 04 7E .. / $7E04
	8822 41
	8823 A9 06 7E .. / $7E06
	8826 81 FD
	8828 A8 08 7E .. / $7E08
	882B 81 FB
	882D D6 45 88
else
	8830 81 F5
	8832 A8 02 7E .. / $7E02
	8835 81 F7
	8837 A8 04 7E .. / $7E04
	883A 40
	883B A9 06 7E .. / $7E06
	883E 81 FB
	8840 A8 08 7E .. / $7E08
	8843 81 FD

8845 A8 0A 7E .. / $7E0A

8848 AC 7C 8B .. / Call $8B7C

884B AC 25 83 .. / Call $8325
884E A2 FF FF

8851 81 F9
8853 B0
8854 A6 02 7E .. / $7E02
8857 C0
8858 D8 5F 88

885B 6F
885C D6 61 88

885F 8D 10

8861 E9 AB D2 02 / Call $D2AB

8865 60
8866 E9 F4 D2 02 / Call $D2F4

886A A5 00 7E .. / $7E00
886D D8 85 88

8870 AC 50 D3 .. / Call $D350
8873 87 F9
8875 E9 58 85 02 / Call $8558 -> Print battle conclusion screen

...

8885

     00 01 02 03 04 05 06 07 08 09 0A 0B 0C 0D 0E 0F
8870 AC 50 D3 87 F9 E9 58 85 02 AC 25 D3 D7 79 88 AC
8880 50 D3 D6 B8 88 AC F2 E1 60 60 60 60 8D 12 E9 E6
8890 EE 0A 40 A9 8A 7C 60 E9 18 D2 02 AC 6C 86 87 F9
88A0 E9 58 85 02 AC 25 D3 D7 A4 88 AC F2 E1 8E 6B A5
88B0 8E E0 00 62 E9 12 F4 06 67 E9 0D C4 02 A0 FF FF
88C0 CF 
----------------------------------------------------
     00 01 02 03 04 05 06 07 08 09 0A 0B 0C 0D 0E 0F
88C0    20 D1 E4 00 00 40 A8 02 7E 40 A8 04 7E 40 A9
88D0 06 7E 40 A8 08 7E 40 A8 0A 7E CF 

Function $88C1 -> Zero out battle result vals???

88C6 40
88C7 A8 02 7E .. / $7E02
88CA 40
88CB A8 04 7E .. / $7E04
88CE 40
88CF A9 06 7E .. / $7E06
88D2 40
88D3 A8 08 7E .. / $7E08
88D6 40
88D7 A8 0A 7E .. / $7E0A
88DA CF 
----------------------------------------------------
     00 01 02 03 04 05 06 07 08 09 0A 0B 0C 0D 0E 0F
88D0                                  20 D1 E4 FF FF
88E0 AC C1 88 A5 F4 7B 8C 80 00 DA A9 00 7E D8 FA 88
88F0 89 7F CD A5 F4 7B DA A9 F4 7B A4 F2 7B 7F B3 8A
8900 FF 00 D4 AC D4 87 A2 FF FF AC CB 97 AC F7 92 AC
8910 60 8D CD A0 FF FF BB A2 FF FF AC DB 8C AC 90 92
8920 A0 FF FF D8 2E 89 A0 FF FF B3 E9 F3 8B 02 A4 02
8930 7E A6 07 7C C0 D8 4C 89 AA 02 7E E9 E2 D4 02 D8
8940 4C 89 AA F2 7B AA 02 7E E9 7B 9D 04 8E FD AB 8E
8950 E0 00 62 E9 12 F4 06 8E 2D A6 65 E9 E6 EE 04 CF

Function $88DB (FF FF)

88E0 AC C1 88 .. / Call $88C1 -> Zero out battle result vals???
88E3 A5 F4 7B .. / $7BF4 
88E6 8C 80 00
88E9 DA
88EA A9 00 7E .. / $7E00
88ED D8 FA 88

	88F0 89 7F
	88F2 CD
	88F3 A5 F4 7B .. / $7BF4
	88F6 DA
	88F7 A9 F4 7B 

88FA A4 F2 7B
88FD 7F
88FE B3 
88FF 8A FF 00
8902 D4

8903 AC D4 87 .. / Call $87D4 -> Battle conclusion??

     00 01 02 03 04 05 06 07 08 09 0A 0B 0C 0D 0E 0F
8900 FF 00 D4 AC D4 87 A2 FF FF AC CB 97 AC F7 92 AC
8910 60 8D CD A0 FF FF BB A2 FF FF AC DB 8C AC 90 92
8920 A0 FF FF D8 2E 89 A0 FF FF B3 E9 F3 8B 02 A4 02
8930 7E A6 07 7C C0 D8 4C 89 AA 02 7E E9 E2 D4 02 D8
8940 4C 89 AA F2 7B AA 02 7E E9 7B 9D 04 8E FD AB 8E
8950 E0 00 62 E9 12 F4 06 8E 2D A6 65 E9 E6 EE 04 CF
----------------------------------------------------
     00 01 02 03 04 05 06 07 08 09 0A 0B 0C 0D 0E 0F
8960 20 D1 E4 F6 FF A4 04 7E 2B 60 3C E9 2D C1 04 29
8970 0B 8C D4 71 BC 8B 22 B8 A2 FC FF 3C 8E D5 A6 8E
8980 E0 00 62 E9 12 F4 08 0B B0 D8 AA 89 0D 8C D4 71
8990 BC 8B 22 B8 1B BB 7E B3 89 64 D4 0B 79 B3 0D 8C
89A0 D4 71 BC 8B 22 B8 D4 D6 AD 89 AC 63 91 CF 
----------------------------------------------------
     00 01 02 03 04 05 06 07 08 09 0A 0B 0C 0D 0E 0F
89A0                                           20 D1
89B0 E4 FE FF A4 F2 7B 8C F4 73 BC 8B 19 B8 D0 B3 60
89C0 AA F2 7B E9 CC C2 04 B3 8E 36 A6 E9 9D C6 06 61
89D0 0C B0 2B B3 E9 5F C0 04 B3 6C 8D 46 8E 4E A2 8E
89E0 E0 00 62 E9 12 F4 0C 8D 28 8D 26 E9 D6 C3 04 8E
89F0 4A A6 E9 56 C4 02 0C A6 02 7E C0 D8 04 8A 8E 4F
8A00 A6 D6 07 8A 8E 53 A6 E9 9D C6 02 60 3B E9 2D C1
8A10 04 B3 8E 59 A6 E9 9D C6 04 8E 62 A6 E9 56 C4 02
8A20 61 3B E9 2D C1 04 B3 8E 67 A6 E9 8C C6 04 8E 6E
8A30 A6 E9 56 C4 02 CF 
----------------------------------------------------
     00 01 02 03 04 05 06 07 08 09 0A 0B 0C 0D 0E 0F
8A30                   20 D1 E4 E2 FF 61 3C E9 5F C0
8A40 04 B3 69 67 8E 4E A2 8E E0 00 62 E9 12 F4 0C 67
8A50 60 E9 C9 D3 04 62 3C E9 2D C1 04 B3 8E 76 A6 E9
8A60 8C C6 04 68 60 E9 C9 D3 04 63 3C E9 2D C1 04 B3
8A70 8E 7B A6 E9 8C C6 04 3C E9 B3 D5 02 D8 96 8A 60
8A80 60 62 6F 69 6C 67 E9 E6 EE 0E 60 66 E9 C9 D3 04
8A90 8E 80 A6 D6 DA 8A 0C 77 D3 8C FF 00 C0 D7 DE 8A
8AA0 60 65 E9 C9 D3 04 60 3C E9 A3 D8 02 B0 B3 E9 2D
8AB0 C1 04 B3 DE E2 FF B3 E9 40 E1 04 8E 86 A6 DE E2
8AC0 FF B3 E9 57 E1 04 DE E2 FF B3 8E 89 A6 E9 8C C6
8AD0 04 61 65 E9 C9 D3 04 8E 8F A6 E9 4A C4 02 6B 6F
8AE0 E9 1D C4 04 0C 76 D3 B3 0C 75 D3 B3 0C 74 D3 B3
8AF0 0C 7C B0 B3 61 3C E9 C1 C0 04 B3 A4 06 60 B4 BC
8B00 D0 B3 8E 98 A6 E9 8C C6 0C CF 
----------------------------------------------------
     00 01 02 03 04 05 06 07 08 09 0A 0B 0C 0D 0E 0F
8B00                               20 D1 E4 FE FF A4
8B10 08 7E 76 B0 D7 1F 8B A4 08 7E 76 B3 D6 32 8B A4
8B20 08 7E 76 B0 B3 8E 89 BA 8E E0 00 62 E9 12 F4 08
8B30 2B 3B 0C B1 CF 
----------------------------------------------------
     00 01 02 03 04 05 06 07 08 09 0A 0B 0C 0D 0E 0F
8B30                20 D1 E4 FF FF 40 D6 70 8B A0 FF
8B40 FF D2 B3 A5 06 7E 51 DC 5C B5 B4 BB 8C 2D 7C BB
8B50 B0 D8 6C 8B A0 FF FF D2 B3 A5 06 7E 51 DC 5C B5
8B60 B4 BB 8C 45 7C BB B0 B3 E9 0A 8B 02 A0 FF FF D0
8B70 A2 FF FF A0 FF FF 56 C6 D7 3E 8B CF 
----------------------------------------------------
     00 01 02 03 04 05 06 07 08 09 0A 0B 0C 0D 0E 0F
8B70                                     20 D1 E4 FC
8B80 FF A5 06 7E D7 88 8B CF A4 F2 7B 72 B0 2B D8 D3
8B90 8B A4 08 7E 76 B0 D7 A1 8B A4 08 7E 76 B3 D6 CA
8BA0 8B A4 08 7E 76 B0 B3 8E 89 BA 8E E0 00 62 E9 12
8BB0 F4 08 2A 3B E9 B3 D5 02 D8 C9 8B 3A 0B B0 B1 3B
8BC0 A4 08 7E 76 B0 B1 D6 99 8B 3A 0B B1 A4 F2 7B 72
8BD0 B3 40 B1 AA F2 7B AA 04 7E 8E CE A9 8E E0 00 62
8BE0 E9 12 F4 0A AA F2 7B 8E 9D A9 8E E0 00 62 E9 12
8BF0 F4 08 CF 

Function $8B7C

8B81 A5 06 7E .. / $7E06
8B84 D7 88 8B

8B87 CF

8B88 A4 F2 7B .. / $7BF2 (Current province)
8B8B 72
8B8C B0
8B8D 2B
8B8E D8 D3 8B

8B91 A4 08 7E .. / $7E08
8B94 76
8B95 B0
8B96 D7 A1 8B

8B99 A4 08 7E .. / $7E08
8B9C 76
8B9D B3
8B9E D6 CA 8B

8BA1 A4 08 7E .. / $7E08
8BA4 76
8BA5 B0
8BA6 B3
8BA7 8E 89 BA
8BAA 8E E0 00
8BAD 62
8BAE E9 12 F4 08 / Call $F412 -> E0:BA89 (Find last entry in list)
8BB2 2A

8BB3 3B
8BB4 E9 B3 D5 02 / Call $D5B3 (Check if general is ruler)
8BB8 D8 C9 8B

8BBB 3A
8BBC 0B
8BBD B0
8BBE B1

8BBF 3B
8BC0 A4 08 7E .. / $7E08
8BC3 76
8BC4 B0
8BC5 B1

8BC6 D6 99 8B

8BC9 3A

8BCA 0B
8BCB B1

8BCC A4 F2 7B .. / $7BF2 (Current province)
8BCF 72
8BD0 B3
8BD1 40
8BD2 B1

8BD3 AA F2 7B .. / $7BF2
8BD6 AA 04 7E .. / $7E04 (Current nation?)
8BD9 8E CE A9
8BDC 8E E0 00
8BDF 62
8BE0 E9 12 F4 0A / Call $F412 -> E0:A9CE (Remove Province from Nation)

8BE4 AA F2 7B
8BE7 8E 9D A9
8BEA 8E E0 00
8BED 62
8BEE E9 12 F4 08 / Call $F412 -> E0:A99D (Province is deserted)

8BF2 CF
----------------------------------------------------
     00 01 02 03 04 05 06 07 08 09 0A 0B 0C 0D 0E 0F
8BF0          20 D1 E4 F8 FF A4 08 7E 79 B0 28 08 72
8C00 B0 29 09 D8 DA 8C 6A A0 0B 00 B3 A4 F2 7B 78 B0
8C10 B3 E9 63 D7 06 2B 8E 30 75 3B 09 78 B3 E9 F8 D7
8C20 06 3B A4 F2 7B 78 B4 B3 B0 BC B1 A4 F2 7B 7A B0
8C30 B3 A0 0B 00 B4 B5 5A B8 2A 3A 09 7A B4 B3 B0 BB
8C40 B1 09 7A B0 8C 30 75 C8 D8 52 8C 09 7A B3 8A 30
8C50 75 B1 3A A4 F2 7B 7A B4 B3 B0 BC B1 8D 64 A0 0B
8C60 00 D2 B3 08 76 B3 E9 02 D8 06 AC 50 D3 AA 02 7E
8C70 E9 E2 D4 02 D8 9A 8C 60 08 B0 B3 E9 2D C1 04 B3
8C80 8E D5 A6 E9 8C C6 04 3A 3B 8E E1 A6 E9 8C C6 06
8C90 8E F7 A6 E9 8C C6 02 D6 D4 8C 60 A4 02 7E B0 B3
8CA0 E9 2D C1 04 B3 8E 17 A7 E9 8C C6 04 60 08 B0 B3
8CB0 E9 2D C1 04 B3 38 E9 E2 D4 02 D8 C3 8C 8A 20 A7
8CC0 D6 C6 8C 8A 24 A7 B3 E9 8C C6 04 3A 3B 8E 28 A7
8CD0 E9 8C C6 06 8D 14 E9 43 D1 02 CF 
----------------------------------------------------
     00 01 02 03 04 05 06 07 08 09 0A 0B 0C 0D 0E 0F
8CD0                                  20 D1 E4 00 00
8CE0 8E 8B 00 A4 F2 7B 8F 10 B4 B3 D3 DA D4 8E C7 00
8CF0 A4 F2 7B 8F 11 B4 B3 D3 DA D4 A4 F2 7B 8F 12 B3
8D00 8A FF 00 D4 A4 F2 7B 8F 13 B3 8A FF 00 D4 A4 F2
8D10 7B 78 B3 A4 1B 7C A6 19 7C BB B1 A4 F2 7B 78 B0
8D20 8C 30 75 C8 D8 30 8D A4 F2 7B 78 B3 8A 30 75 B1
8D30 A4 F2 7B 7A B3 B7 10 21 7C B7 11 1D 7C B7 03 B7
8D40 19 64 00 00 00 B7 02 B7 27 B1 A4 F2 7B 7A B0 8C
8D50 30 75 C8 D8 5F 8D A4 F2 7B 7A B3 8A 30 75 B1 CF
----------------------------------------------------
     00 01 02 03 04 05 06 07 08 09 0A 0B 0C 0D 0E 0F
8D60 20 D1 E4 F8 FF 40 A2 FC FF 8A FE 7B 2B 40 A2 FD
8D70 FF D6 C2 8D 0B 72 B0 29 D8 B4 8D A0 FD FF D2 8C
8D80 27 7C BB B0 D8 B4 8D A4 0A 7E 79 1B C0 D8 A2 8D
8D90 A0 FD FF D2 8C 27 7C BB B0 B3 3B E9 36 80 04 D6
8DA0 B4 8D A0 FD FF D2 8C 27 7C BB B0 B3 3B E9 36 80
8DB0 04 A2 FC FF A0 FD FF D0 A2 FD FF D1 89 12 CD 0B
8DC0 BB 2B A0 FD FF 52 C6 D7 74 8D A0 FC FF CF 
----------------------------------------------------
     00 01 02 03 04 05 06 07 08 09 0A 0B 0C 0D 0E 0F
8DC0                                           20 D1
8DD0 E4 FE FF 0C 8F 12 D3 54 BE A2 FF FF 0C 8F 12 D3
8DE0 5F DA A2 FE FF 8D 20 A0 FF FF B3 A0 FE FF 5D B5
8DF0 B4 BB 8C 63 78 BB B4 B3 D3 DA D4 0C 8F 12 B3 8A
8E00 FF 00 D4 0C 8F 11 B3 40 D4 CF 
----------------------------------------------------
     00 01 02 03 04 05 06 07 08 09 0A 0B 0C 0D 0E 0F
8E00                               20 D1 E4 AD FF 8D
8E10 4E DE B2 FF B3 8E 63 78 E9 B8 F3 06 8A 63 78 85
8E20 B0 40 D6 93 8E 40 A2 AE FF D6 87 8E A0 AE FF D7
8E30 41 8E DE B2 FF B3 A0 AF FF B4 BB D3 54 BE D6 4D
8E40 8E DE B2 FF B3 A0 AF FF B4 BB D3 5F DA A2 AD FF
8E50 A0 AD FF 57 DA D5 FF FF 04 00 B2 8E 64 8E A0 8E
8E60 A6 8E AC 8E 87 B0 41 D4 A0 AD FF 58 DA D8 79 8E
8E70 8D 20 81 B0 B4 B3 D3 DB D4 A0 AE FF D0 A2 AE FF
8E80 D1 81 B0 D0 85 B0 D1 A0 AE FF 52 C6 D7 2C 8E A0
8E90 AF FF D0 A2 AF FF A0 AF FF 8B 4E C6 D7 25 8E CF
8EA0 87 B0 42 D6 67 8E 87 B0 44 D6 67 8E 87 B0 48 D6
8EB0 67 8E 87 B0 40 D6 67 8E 
----------------------------------------------------
     00 01 02 03 04 05 06 07 08 09 0A 0B 0C 0D 0E 0F
8EB0                         20 D1 E4 FD FF 62 64 E9
8EC0 E6 EE 04 A2 FD FF 60 62 63 E9 E6 EE 06 0C 8C F4
8ED0 73 BC 8B 19 B8 8C B9 00 B5 8C 04 A0 BB 2B 8D 24
8EE0 8E 4A 7E 3B E9 B8 F3 06 8D 47 8E 6E 7E 0B 8F 24
8EF0 B3 E9 B8 F3 06 8D 4E 8E 63 78 0B 8F 6B B3 E9 B8
8F00 F3 06 AC 0A 8E A0 FD FF B3 62 63 E9 E6 EE 06 CF
----------------------------------------------------
     00 01 02 03 04 05 06 07 08 09 0A 0B 0C 0D 0E 0F
8F10 20 D1 E4 00 00 A0 0B 00 B3 A0 0D 00 5D B5 B4 BB
8F20 8C 63 78 BB CF 
----------------------------------------------------
     00 01 02 03 04 05 06 07 08 09 0A 0B 0C 0D 0E 0F
8F20                20 D1 E4 F8 FF 40 A2 FE FF 8A 63
8F30 78 29 40 D6 A4 8F 40 A2 FD FF D6 98 8F A0 FC FF
8F40 B3 A0 FD FF B3 E9 10 8F 04 28 D3 5F DA D5 FF FF
8F50 08 00 CA 8F 64 8F BE 8F CA 8F C2 8F CA 8F CA 8F
8F60 CA 8F C6 8F 41 A2 FF FF 08 D3 8B 20 DA D8 79 8F
8F70 48 CD A0 FF FF DB A2 FF FF A0 FE FF 51 DA D7 B0
8F80 8F 39 A0 FF FF 54 BD D4 A0 FD FF D0 A2 FD FF D1
8F90 A0 FE FF D0 A2 FE FF D1 A0 FD FF 5D C6 D7 3D 8F
8FA0 A0 FC FF D0 A2 FC FF A0 FC FF 5C C6 D7 36 8F CF
8FB0 A3 FF FF 09 D0 29 D1 B4 B3 D3 DB D6 87 8F 42 D6
8FC0 65 8F 43 D6 65 8F 44 D6 65 8F 40 D6 65 8F 
----------------------------------------------------
     00 01 02 03 04 05 06 07 08 09 0A 0B 0C 0D 0E 0F
8FC0                                           20 D1
8FD0 E4 FD FF AC 25 8F 62 64 E9 E6 EE 04 A2 FF FF 60
8FE0 62 63 E9 E6 EE 06 0C 8C F4 73 BC 8B 19 B8 8C B9
8FF0 00 B5 8C 04 A0 BB 85 FD 8D 24 87 FD 8E 4A 7E E9
9000 B8 F3 06 8D 47 81 FD 8F 24 B3 8E 6E 7E E9 B8 F3
9010 06 8D 4E 81 FD 8F 6B B3 8E 63 78 E9 B8 F3 06 A0
9020 FF FF B3 62 63 E9 E6 EE 06 CF 
----------------------------------------------------
     00 01 02 03 04 05 06 07 08 09 0A 0B 0C 0D 0E 0F
9020                               20 D1 E4 F7 FF 40
9030 D6 5D 90 A0 F7 FF 59 B5 8C 50 7E BB D6 53 90 3A
9040 E9 A3 D8 02 A6 04 7E C0 D8 52 90 0A 77 B3 8A FF
9050 00 D4 0A B0 2A 0A D7 3F 90 A0 F7 FF D0 A2 F7 FF
9060 A0 F7 FF 54 C6 D7 33 90 A0 0B 00 D2 D0 59 B5 8C
9070 4E 7E BB B0 D6 8D 90 0A B0 2B 3A E9 CE 8D 02 3A
9080 3D 8E 84 A7 8E E0 00 62 E9 12 F4 0A 0B 2A 0A D7
9090 77 90 A0 0B 00 D2 8C 7C 7E BB B0 D6 AF 90 0A B0
90A0 2B 3A 3D 8E 84 A7 8E E0 00 62 E9 12 F4 0A 0B 2A
90B0 0A D7 9E 90 A0 0B 00 D2 D0 59 B5 8C 4A 7E BB B3
90C0 40 B1 A0 0B 00 D2 D0 59 B5 8C 4C 7E BB B3 40 B1
90D0 A0 0B 00 D2 D0 59 B5 8C 4E 7E BB B3 40 B1 A0 0B
90E0 00 D2 8C 7C 7E BB B3 40 B1 A0 0B 00 D8 19 91 A5
90F0 B4 7E 58 DA D8 13 91 8A 4A 7E 28 8A F7 00 D6 08
9100 91 8A 5C 7E 28 8A FD 00 CD A5 B4 7E DA A9 B4 7E
9110 D6 25 91 8A 5C 7E D6 24 91 A5 B4 7E 52 DA D7 01
9120 91 8A 4A 7E 28 A0 0B 00 D2 D0 59 B5 8C 50 7E BB
9130 B0 2A D8 62 91 08 76 B0 D7 41 91 08 76 B3 D6 52
9140 91 08 76 B0 B3 8E 89 BA 8E E0 00 62 E9 12 F4 08
9150 29 39 0A B1 A0 0B 00 D2 D0 59 B5 8C 50 7E BB B3
9160 40 B1 CF 
----------------------------------------------------
     00 01 02 03 04 05 06 07 08 09 0A 0B 0C 0D 0E 0F
9160          20 D1 E4 F8 FF 40 A2 F8 FF 40 A2 FF FF
9170 8A F4 73 85 FD D6 F5 91 87 FD E9 BA D8 02 D7 85
9180 91 41 D6 86 91 40 D7 E5 91 87 FD E9 BA D8 02 A6
9190 04 7E C1 D8 E5 91 81 FD 7F D3 8C FF 00 C1 D8 A5
91A0 91 41 D6 A6 91 40 D8 E5 91 87 FD E9 B8 8E 02 A4
91B0 65 7E A6 04 7E C0 D8 C4 91 87 FD 61 E9 2A 90 04
91C0 41 A2 F8 FF A4 53 7E A6 04 7E C0 D8 D9 91 87 FD
91D0 60 E9 2A 90 04 41 A2 F8 FF A0 F8 FF D8 E5 91 87
91E0 FD E9 CE 8F 02 A0 FF FF D0 A2 FF FF D1 81 FD 8F
91F0 19 85 FD 8F E7 A0 FF FF 8B 29 C6 D7 78 91 CF 
----------------------------------------------------
     00 01 02 03 04 05 06 07 08 09 0A 0B 0C 0D 0E 0F
91F0                                              20
9200 D1 E4 F9 FF 40 A2 FF FF 8A F4 73 85 FD D6 69 92
9210 87 FD E9 BA D8 02 D7 1D 92 41 D6 1E 92 40 D7 59
9220 92 87 FD E9 BA D8 02 A6 04 7E C0 D8 43 92 81 FD
9230 7F D3 8C FF 00 C1 D8 3D 92 41 D6 3E 92 40 D8 59
9240 92 41 CF A4 04 7E 8C D4 71 BC 8B 22 B8 B3 81 FD
9250 7F D3 B4 C0 D8 59 92 41 CF A0 FF FF D0 A2 FF FF
9260 D1 81 FD 8F 19 85 FD 8F E7 A0 FF FF 8B 29 C6 D7
9270 10 92 40 CF 
----------------------------------------------------
     00 01 02 03 04 05 06 07 08 09 0A 0B 0C 0D 0E 0F
9270             20 D1 E4 00 00 8D 64 A0 0F 00 B3 0D
9280 8C D4 71 BC 8B 22 B8 1C BB 7E B3 E9 02 D8 06 CF
----------------------------------------------------
     00 01 02 03 04 05 06 07 08 09 0A 0B 0C 0D 0E 0F
9290 20 D1 E4 FC FF A5 5F 7C D7 9C 92 CF A5 5F 7C D9
92A0 03 00 01 00 B0 92 02 00 E5 92 03 00 CB 92 CA 92
92B0 A4 08 7E 79 B0 2B 0B 76 2A 8D 28 3B AA 02 7E E9
92C0 74 92 06 8D 19 3A E9 3B D8 04 CF A4 08 7E 79 B0
92D0 2B 0B 76 2A 8D 28 3B AA 02 7E E9 74 92 06 8D 19
92E0 3A E9 3B D8 04 A4 0A 7E 79 B0 2B 0B 76 2A 8D 28
92F0 3B AA 04 7E D6 BF 92 
----------------------------------------------------
     00 01 02 03 04 05 06 07 08 09 0A 0B 0C 0D 0E 0F
92F0                      20 D1 E4 FA FF A4 5D 7C 29
9300 A4 00 7C 2A 09 D7 09 93 CF A5 06 7E 51 C0 D8 42
9310 93 A4 04 7E 72 B0 2B D7 22 93 39 3A 8E 84 A7 D6
9320 52 93 0B 7F D3 8C FF 00 C1 D8 30 93 41 D6 31 93
9330 40 D7 3D 93 8D 64 09 7C B4 B3 B0 B8 B1 39 3B D6
9340 4F 93 8D 64 09 7C B4 B3 B0 B8 B1 39 AA F2 7B 8E
9350 33 AA 8E E0 00 62 E9 12 F4 0A CF 
----------------------------------------------------
     00 01 02 03 04 05 06 07 08 09 0A 0B 0C 0D 0E 0F
9350                                  20 D1 E4 FB FF
9360 A4 04 7E 8C D4 71 BC 8B 22 B8 A2 FF FF 61 8E F6
9370 BA 8E E0 00 62 E9 12 F4 08 8A BF 7B D6 A2 93 81
9380 FB A6 04 7E C0 D7 9F 93 A0 FF FF B3 81 FB 8F 1E
9390 D3 B4 C0 D8 9F 93 81 FB 8F 1E B3 8A FF 00 D4 81
93A0 FD 72 85 FD 81 FD B0 85 FB D7 7F 93 CF 
----------------------------------------------------
     00 01 02 03 04 05 06 07 08 09 0A 0B 0C 0D 0E 0F
93A0                                        20 D1 E4
93B0 FA FF A4 04 7E 72 B0 2A D7 EA 93 CF 39 3B 8E C1
93C0 AA 8E E0 00 62 E9 12 F4 0A 39 3B 8E 84 A7 8E E0
93D0 00 62 E9 12 F4 0A 0B 72 B0 29 09 D7 BC 93 3B 8E
93E0 9D A9 8E E0 00 62 E9 12 F4 08 0A B0 2B 0B D7 D6
93F0 93 CF 
----------------------------------------------------
     00 01 02 03 04 05 06 07 08 09 0A 0B 0C 0D 0E 0F
93F0       20 D1 E4 00 00 0C 7F D3 8C FF 00 C1 D8 05
9400 94 41 D6 06 94 40 D8 12 94 8D 64 0D 7C B4 B3 B0
9410 B5 B1 3D 3C 8E 33 AA 8E E0 00 62 E9 12 F4 0A CF
----------------------------------------------------
     00 01 02 03 04 05 06 07 08 09 0A 0B 0C 0D 0E 0F
9420 20 D1 E4 FB FF 40 D6 AC 94 40 D6 9D 94 A0 FD FF
9430 B3 AA F2 7B 8E CD A8 8E E0 00 62 E9 12 F4 0A A2
9440 FE FF 8C FF 00 C1 D8 99 94 A0 FE FF 8B 19 B5 8C
9450 F4 73 BB 85 FB 87 FB E9 BA D8 02 1C C0 D8 7F 94
9460 81 FB 7F D3 8C FF 00 C1 D8 6F 94 41 D6 70 94 40
9470 D8 7C 94 A0 FF FF D8 99 94 81 FB CF 81 FB CF 87
9480 FB E9 BA D8 02 D7 8C 94 41 D6 8D 94 40 D8 99 94
9490 A0 FF FF D8 99 94 81 FB CF A0 FD FF D0 A2 FD FF
94A0 A0 FD FF 56 C6 D7 2D 94 A0 FF FF D0 A2 FF FF A0
94B0 FF FF 52 C6 D7 29 94 40 CF 
----------------------------------------------------
     00 01 02 03 04 05 06 07 08 09 0A 0B 0C 0D 0E 0F
94B0                            20 D1 E4 FE FF 3D E9
94C0 BA D8 02 D7 CA 94 41 D6 CB 94 40 D7 D8 94 3D E9
94D0 BA D8 02 1C C0 D8 DA 94 0D CF 3C E9 20 94 02 2B
94E0 D8 E5 94 0B CF 0C 72 B0 CF 
----------------------------------------------------
     00 01 02 03 04 05 06 07 08 09 0A 0B 0C 0D 0E 0F
94E0                            20 D1 E4 FE FF A4 0A
94F0 7E 72 B0 B3 AA 04 7E E9 B9 94 04 2B D7 01 95 41
9500 CF AC 50 D3 60 3C E9 2D C1 04 B3 8E 50 A7 E9 9D
9510 C6 04 8E FB 00 0B 8F 10 B4 B3 D3 DA D4 3C 3B E9
9520 F2 93 04 6A E9 43 D1 02 40 CF 
----------------------------------------------------
     00 01 02 03 04 05 06 07 08 09 0A 0B 0C 0D 0E 0F
9520                               20 D1 E4 F8 FF 0C
9530 77 D3 8C FF 00 C0 D8 49 95 3C AA F2 7B 8E 84 A7
9540 8E E0 00 62 E9 12 F4 0A CF 3C E9 A3 D8 02 28 A4
9550 0A 7E B0 18 C0 D8 5E 95 A4 0A 7E D6 73 95 A4 0A
9560 7E 79 29 09 B0 18 C0 D7 72 95 A4 08 7E 79 29 09
9570 B0 28 09 72 B0 2A 3A 38 E9 B9 94 04 2B D7 92 95
9580 3C AA F2 7B 8E 84 A7 8E E0 00 62 E9 12 F4 0A D6
9590 98 95 3C 3B E9 F2 93 04 CF 
----------------------------------------------------
     00 01 02 03 04 05 06 07 08 09 0A 0B 0C 0D 0E 0F
9590                            20 D1 E4 00 00 0C B0
95A0 8C D4 71 BC 8B 22 B8 8C F7 77 BB D3 50 C8 D8 B7
95B0 95 0C 78 D3 D8 BB 95 40 D6 BC 95 41 CF 
----------------------------------------------------
     00 01 02 03 04 05 06 07 08 09 0A 0B 0C 0D 0E 0F
95B0                                        20 D1 E4
95C0 FA FF 0D A6 08 7E C1 D8 EB 95 0D 72 B0 2A 0D B0
95D0 29 3A 39 E9 B9 94 04 2B D7 F3 95 3C AA F2 7B 8E
95E0 84 A7 8E E0 00 62 E9 12 F4 0A CF A4 02 7E 29 A4
95F0 F2 7B 2B 0C 77 D3 8C FF 00 C1 D8 12 96 3C E9 A3
9600 D8 02 74 B0 1C C0 D8 12 96 3C E9 A3 D8 02 74 B3
9610 40 B1 0C 77 B3 09 8C D4 71 BC 8B 22 B8 D4 39 3C
9620 8E F5 A7 8E E0 00 62 E9 12 F4 0A 3C 3B 8E 33 AA
9630 8E E0 00 62 E9 12 F4 0A CF 
----------------------------------------------------
     00 01 02 03 04 05 06 07 08 09 0A 0B 0C 0D 0E 0F
9630                            20 D1 E4 FE FF AA F2
9640 7B 3D E9 A3 D8 02 B3 E9 B9 94 04 D7 50 96 41 CF
9650 0C B0 2B 0D 76 D3 B3 A4 04 7E 8C D4 71 BC 8B 22
9660 B8 1B BB 7E D3 B3 89 64 B4 BC B4 BB 51 BE B3 8D
9670 64 E9 C5 D7 02 B4 C6 D8 7E 96 41 D6 7F 96 40 D8
9680 A2 96 A4 06 60 8C C8 00 C6 D8 A2 96 8D 32 0B 8C
9690 D4 71 BC 8B 22 B8 A6 04 7E BB 7E B3 E9 3B D8 04
96A0 40 CF 41 CF 
----------------------------------------------------
     00 01 02 03 04 05 06 07 08 09 0A 0B 0C 0D 0E 0F
96A0             20 D1 E4 FE FF 8D 64 0D 7C B4 B3 B0
96B0 B8 B1 3D E9 A3 D8 02 77 D3 8C 80 00 DA D8 C2 96
96C0 41 CF 3C E9 99 95 02 D7 DB 96 3D 3C E9 39 96 04
96D0 D8 D5 96 41 CF 3D E9 E9 94 02 CF A5 0C 7E D7 EF
96E0 96 60 68 66 8E 6F AB 8E E0 00 62 E9 12 F4 0C 3D
96F0 E9 36 8A 02 60 8E 7A A5 8E E0 00 62 E9 12 F4 08
9700 60 60 63 6C 8D 10 6E 67 E9 E6 EE 0E AA F2 7B 3D
9710 E9 A3 D8 02 B3 E9 B9 94 04 D8 79 97 60 0C B0 B0
9720 B3 E9 2D C1 04 B3 8E 60 A7 E9 9D C6 04 60 3D E9
9730 2D C1 04 B3 8E 6B A7 E9 9D C6 04 68 69 E9 C9 D3
9740 04 8E 7D A7 E9 4A C4 02 69 69 E9 C9 D3 04 8E 87
9750 A7 E9 4A C4 02 60 62 61 60 68 68 62 8E 90 A7 E9
9760 1F D4 10 2B 0B 8B FF C1 D8 EF 96 0B 51 C0 D7 73
9770 97 41 CF 3D E9 E9 94 02 CF 60 0C B0 B0 B3 E9 2D
9780 C1 04 B3 8E 91 A7 E9 9D C6 04 60 3D E9 2D C1 04
9790 B3 8E 9C A7 E9 9D C6 04 68 69 E9 C9 D3 04 8E AE
97A0 A7 E9 4A C4 02 60 61 61 60 68 68 61 8E B7 A7 E9
97B0 1F D4 10 2B 0B D0 D6 63 97 
----------------------------------------------------
     00 01 02 03 04 05 06 07 08 09 0A 0B 0C 0D 0E 0F
97B0                            20 D1 E4 00 00 0C 74
97C0 D3 B3 0C 75 D3 B4 BB 8B 46 C6 CF 
----------------------------------------------------
     00 01 02 03 04 05 06 07 08 09 0A 0B 0C 0D 0E 0F
97C0                                  20 D1 E4 EB FF
97D0 40 A9 0C 7E 40 2A 8A F5 7B 24 40 A2 ED FF D6 7A
97E0 98 04 A6 0A 7E C0 D7 6D 98 04 76 B0 2B D8 6D 98
97F0 3B E9 B3 D5 02 D8 02 98 0B 2A 04 23 04 B0 28 0B
9800 B0 2B 34 E9 99 95 02 D8 69 98 AA F2 7B E9 B3 D1
9810 02 04 B0 27 D6 69 98 8D 64 0B 7C B4 B3 B0 B8 B1
9820 0B B0 29 04 B0 B3 3B E9 A3 D8 02 B4 C0 D8 CB 98
9830 04 72 B0 A6 F2 7B C1 D8 57 98 04 72 B0 7F D3 8C
9840 FF 00 C1 D8 4A 98 41 D6 4B 98 40 D8 57 98 8D 64
9850 0B 7C B4 B3 B0 B5 B1 3B 04 72 B0 B3 8E 33 AA 8E
9860 E0 00 62 E9 12 F4 0A 09 2B 0B D7 17 98 A0 ED FF
9870 D0 A2 ED FF D1 04 79 24 8F F7 A0 ED FF 54 C6 D7
9880 E1 97 0A D8 AE 98 07 18 C1 D8 94 98 33 E9 99 95
9890 02 D8 94 98 3A 33 E9 A4 96 04 D8 AE 98 8E FD AB
98A0 8E E0 00 62 E9 12 F4 06 38 3A E9 60 89 04 8E FD
98B0 AB 8E E0 00 62 E9 12 F4 06 8A F0 00 A9 81 7C 8E
98C0 A8 A4 8E E0 00 62 E9 12 F4 06 CF 34 E9 99 95 02
98D0 D7 FF 98 3B E9 B9 97 02 D8 DF 98 43 D6 E0 98 41
98E0 25 60 8E 7A A5 8E E0 00 62 E9 12 F4 08 05 D9 03
98F0 00 01 00 87 99 02 00 90 99 03 00 98 99 67 98 A5
9900 0C 7E D7 17 99 60 68 66 8E 6F AB 8E E0 00 62 E9
9910 12 F4 0C 41 A9 0C 7E 3B E9 36 8A 02 60 8E 7A A5
9920 8E E0 00 62 E9 12 F4 08 60 04 B0 B0 B3 E9 2D C1
9930 04 B3 8E B8 A7 E9 9D C6 04 60 3B E9 2D C1 04 B3
9940 8E C3 A7 E9 9D C6 04 67 69 E9 C9 D3 04 8E D5 A7
9950 E9 4A C4 02 68 69 E9 C9 D3 04 8E DF A7 E9 4A C4
9960 02 69 69 E9 C9 D3 04 8E E9 A7 E9 4A C4 02 60 63
9970 61 60 67 68 63 8E F2 A7 E9 1F D4 10 25 05 8B FF
9980 C1 D8 1C 99 D6 E1 98 34 3B E9 BD 95 04 D6 67 98
9990 3B E9 2A 95 02 D6 67 98 3B 8E AB AA 8E E0 00 62 
99A0 E9 12 F4 08 D6 67 98 
----------------------------------------------------
     00 01 02 03 04 05 06 07 08 09 0A 0B 0C 0D 0E 0F
99A0                      20 D1 E4 FD FF 8A F4 73 2B
99B0 40 A2 FD FF D6 EC 99 0B 72 B0 D8 D3 99 3B E9 BA
99C0 D8 02 1C C0 D8 D3 99 8D 40 0B 8F 11 B4 B3 D3 DB
99D0 D6 DD 99 8E BF 00 0B 8F 11 B4 B3 D3 DA D4 0B 8F
99E0 19 2B 8F E7 A0 FD FF D0 A2 FD FF D1 A0 FD FF 8B
99F0 29 C6 D7 B7 99 CF 
----------------------------------------------------
     00 01 02 03 04 05 06 07 08 09 0A 0B 0C 0D 0E 0F
99F0                   20 D1 E4 FC FF 62 8E 7A A5 8E
9A00 E0 00 62 E9 12 F4 08 8E 94 A9 E9 56 C4 02 3C E9
9A10 A7 99 02 60 8E A5 B8 8E E0 00 62 E9 12 F4 08 2A
9A20 0A D1 8B 19 B5 8C F4 73 BB CF 
----------------------------------------------------
     00 01 02 03 04 05 06 07 08 09 0A 0B 0C 0D 0E 0F
9A20                               20 D1 E4 00 00 A5
9A30 45 78 51 DA D8 3D 9A AC A2 D1 D6 42 9A 61 E9 53
9A40 D1 02 CF 
----------------------------------------------------
     00 01 02 03 04 05 06 07 08 09 0A 0B 0C 0D 0E 0F
9A40          20 D1 E4 00 00 AC 50 D3 A0 0D 00 D2 8C
9A50 A0 A9 BB B0 B3 60 3C E9 2D C1 04 B3 8E EF A9 E9
9A60 8C C6 06 A0 0D 00 53 C6 D8 85 9A A0 0F 00 B3 8E
9A70 F5 A9 E9 8C C6 04 3C E9 B3 D5 02 D7 85 9A 8E 06
9A80 AA E9 4A C4 02 AC 2A 9A CF 
----------------------------------------------------
     00 01 02 03 04 05 06 07 08 09 0A 0B 0C 0D 0E 0F
9A80                            20 D1 E4 00 00 A3 0D
9A90 00 A0 0F 00 1C BB 74 B4 B3 D3 BB D4 A0 0F 00 1C
9AA0 BB 74 D3 8B 64 C8 D8 B3 9A A0 0F 00 1C BB 74 B3
9AB0 89 64 D4 CF 
----------------------------------------------------
     00 01 02 03 04 05 06 07 08 09 0A 0B 0C 0D 0E 0F
9AB0             20 D1 E4 FA FF A0 0F 00 D5 00 00 04
9AC0 00 CF 9A CB 9A 42 9B 46 9B 4A 9B 41 A2 FA FF 3C
9AD0 E9 F6 99 02 2A 40 A9 16 79 8D 1E 60 60 61 3A 8E
9AE0 75 BB 8E E0 00 62 E9 12 F4 0A B3 A0 FA FF B3 8E
9AF0 56 B3 8E E0 00 62 E9 12 F4 10 2B D8 4E 9B 62 8E
9B00 7A A5 8E E0 00 62 E9 12 F4 08 60 3B E9 2D C1 04
9B10 B3 8E 27 AA E9 9D C6 04 AC 69 CC D8 4E 9B 0B 78
9B20 B3 89 64 D4 0D D0 D3 B3 E9 C5 D7 02 75 A2 FB FF
9B30 A0 0F 00 D5 00 00 04 00 69 9B 5C 9B 5C 9B 5C 9B
9B40 77 9B 42 D6 CC 9A 43 D6 CC 9A 45 D6 CC 9A 8E A8
9B50 A4 8E E0 00 62 E9 12 F4 06 D6 CF 9A A0 0F 00 B3
9B60 A0 FB FF B3 3B E9 89 9A 06 A0 FB FF B3 A0 0F 00
9B70 B3 3B E9 43 9A 06 CF 8D 40 0B 72 B4 B3 D3 DB D4
9B80 D6 69 9B 
----------------------------------------------------
     00 01 02 03 04 05 06 07 08 09 0A 0B 0C 0D 0E 0F
9B80          20 D1 E4 00 00 AC 50 D3 8D 40 0C 77 B4
9B90 B3 D3 DB D4 8E 2D AA E9 56 C4 02 AC 2A 9A CF 
----------------------------------------------------
     00 01 02 03 04 05 06 07 08 09 0A 0B 0C 0D 0E 0F
9B90                                              20
9BA0 D1 E4 00 00 AC 50 D3 0C 76 B3 89 64 D4 0C B0 76
9BB0 B3 89 64 D4 8E 4E AA E9 9D C6 02 AC 2A 9A CF 
----------------------------------------------------
     00 01 02 03 04 05 06 07 08 09 0A 0B 0C 0D 0E 0F
9BB0                                              20
9BC0 D1 E4 FD FF 8D 10 E9 C5 D7 02 A2 FF FF A0 FF FF
9BD0 B3 41 B4 BD A6 4E 78 DA D8 C4 9B A0 FF FF CF 
----------------------------------------------------
     00 01 02 03 04 05 06 07 08 09 0A 0B 0C 0D 0E 0F
9BD0                                              20
9BE0 D1 E4 F6 FF 62 E9 18 D2 02 8E 79 AA 65 E9 E6 EE
9BF0 04 89 1C A2 FD FF 0C 8C F4 A7 BC 8B 1A B8 5E C1
9C00 D8 08 9C 0C D3 D6 09 9C 40 A2 F8 FF A0 F8 FF 55
9C10 C0 D8 1B 9C A0 F8 FF D1 A2 F8 FF A0 F8 FF 8B 23
9C20 B5 8C BE BD BB 85 FB A0 F8 FF 8B 23 B5 8C 6D BE
9C30 BB 85 F9 4A D6 9C 9C 4C D6 8C 9C 61 DE F7 FF B3
9C40 87 FB 8E F5 00 62 E9 FE DC 0A 61 DE F6 FF B3 87
9C50 F9 8E F5 00 62 E9 FE DC 0A A0 F6 FF B3 A0 F7 FF
9C60 B3 A0 FE FF 53 BD D1 B3 A0 FF FF 53 BD B3 A0 FD
9C70 FF B3 69 E9 E6 EE 0C 81 FB D0 85 FB 81 F9 D0 85
9C80 F9 A0 FD FF D0 A2 FD FF A0 FF FF D0 A2 FF FF A0
9C90 FF FF 8B 13 C6 D7 3B 9C A0 FE FF D0 A2 FE FF A0
9CA0 FE FF 5F C6 D7 37 9C CF 
----------------------------------------------------
     00 01 02 03 04 05 06 07 08 09 0A 0B 0C 0D 0E 0F
9CA0                         20 D1 E4 FC FF AA F2 7B
9CB0 E9 B3 D1 02 60 68 66 8E 6F AB 8E E0 00 62 E9 12
9CC0 F4 0C AC BF 9B A2 FF FF 8B 1A B5 8C F4 A7 BB 2A
9CD0 6F 67 E9 1D C4 04 60 0C B0 B3 E9 2D C1 04 B3 8E
9CE0 81 AA E9 8C C6 04 0A 72 B3 8E 97 AA E9 8C C6 04
9CF0 3A E9 DF 9B 02 AC 2A 9A 63 E9 53 D1 02 8D 23 8D
9D00 1C E9 46 D6 04 8E FD AB 8E E0 00 62 E9 12 F4 06
9D10 60 E9 18 D2 02 0A D3 A2 FE FF D5 00 00 06 00 37
9D20 9D 2D 9D 2D 9D 2D 9D 2D 9D 48 9D 50 9D A0 FE FF
9D30 B3 3A 3C E9 B4 9A 06 A0 FF FF B3 41 B4 BD CC CD
9D40 A4 4E 78 DA A8 4E 78 CF 3C E9 83 9B 02 D6 37 9D
9D50 3C E9 9F 9B 02 D6 37 9D 
----------------------------------------------------
     00 01 02 03 04 05 06 07 08 09 0A 0B 0C 0D 0E 0F
9D50                         20 D1 E4 FD FF 40 A2 FF
9D60 FF 0C 72 D6 6F 9D A0 FF FF D0 A2 FF FF 81 FD B0
9D70 85 FD 81 FD D7 66 9D A0 FF FF CF 
----------------------------------------------------
     00 01 02 03 04 05 06 07 08 09 0A 0B 0C 0D 0E 0F
9D70                                  20 D1 E4 FE FF
9D80 A5 50 78 8B 10 C0 D8 8A 9D CF 3C E9 58 9D 02 A2
9D90 FF FF 0D 8C F4 73 BC 8B 19 B8 59 C0 D8 A3 9D 42
9DA0 D6 BC 9D A5 50 78 56 B5 74 B3 A0 FF FF B4 C9 D8
9DB0 BB 9D A0 FF FF D1 53 BA D6 BC 9D 43 A2 FE FF A0
9DC0 FE FF 8C AE AA BB D3 B3 8D 64 E9 C5 D7 02 B4 C6
9DD0 D8 D7 9D 41 D6 D8 9D 40 D8 E7 9D 3C E9 A8 9C 02
9DE0 A5 50 78 D0 A9 50 78 CF 
----------------------------------------------------
     00 01 02 03 04 05 06 07 08 09 0A 0B 0C 0D 0E 0F
9DE0                         20 D1 E4 FC FF 40 A2 FF
9DF0 FF 40 A2 FE FF 40 2A 0C 8C D4 71 BC 8B 22 B8 A2
9E00 FF FF 8A 31 60 2A 40 A2 FE FF D6 42 9E 0A 8F 13
9E10 B0 8B FF C1 D8 34 9E A0 FF FF B3 0A 7A D3 B4 C0
9E20 D8 34 9E 8E D9 00 0A 72 B4 B3 D3 DA D4 0A 7A B3
9E30 8A FF 00 D4 A0 FE FF D0 A2 FE FF D1 0A 8F 15 2A
9E40 8F EB A0 FE FF 8C D7 00 C6 D7 0D 9E CF 
----------------------------------------------------
     00 01 02 03 04 05 06 07 08 09 0A 0B 0C 0D 0E 0F
9E40                                        20 D1 E4
9E50 F9 FF 40 2B 40 2A 40 29 40 A2 F9 FF 3C E9 E2 D4
9E60 02 A2 F9 FF 0C 72 D6 1D 9F 09 7F D3 8C FF 00 C1
9E70 D8 77 9E 41 D6 78 9E 40 D7 1C 9F 09 72 B0 2B 3C
9E80 3B 8E C9 A7 8E E0 00 62 E9 12 F4 0A 0B B0 D6 17
9E90 9F 0B B0 2A 3C 3B 8E C9 A7 8E E0 00 62 E9 12 F4
9EA0 0A 6A E9 C5 D7 02 8F 14 B3 0B 78 D3 B4 C6 D8 16
9EB0 9F 3B 39 8E C1 AA 8E E0 00 62 E9 12 F4 0A A0 F9
9EC0 FF D8 F2 9E AC 50 D3 60 0C B0 B3 E9 2D C1 04 B3
9ED0 8E B2 AA E9 8C C6 04 09 8C F4 73 BC 8B 19 B8 D0
9EE0 B3 60 3B E9 2D C1 04 B3 8E C2 AA E9 8C C6 06 AC
9EF0 91 D1 3B 39 8E 09 A9 8E E0 00 62 E9 12 F4 08 B3
9F00 E9 C5 D7 02 D2 8C E1 7B BB B0 B3 8E 84 A7 8E E0
9F10 00 62 E9 12 F4 0A 0A 2B 0B D7 91 9E 09 B0 29 09
9F20 D7 69 9E CF 
----------------------------------------------------
     00 01 02 03 04 05 06 07 08 09 0A 0B 0C 0D 0E 0F
9F20             20 D1 E4 F8 FF 40 2B 40 2A 40 29 40
9F30 A2 F9 FF 40 A2 F8 FF 40 29 40 A2 F9 FF 8A 0F 7A
9F40 D6 71 9F 60 3C E9 5F C0 04 B3 60 3A E9 5F C0 04
9F50 B4 DA D8 6F 9F A0 F9 FF B3 62 3A E9 19 C0 04 A2
9F60 F8 FF B4 C8 D8 6F 9F 0A 29 A0 F8 FF A2 F9 FF 0B
9F70 72 2B 0B B0 2A D7 43 9F 09 D8 7E 9F 09 CF 40 A2
9F80 F9 FF 8A 0F 7A D6 BE 9F A0 F9 FF B3 3C 3A 8E 98
9F90 B9 8E E0 00 62 E9 12 F4 0A 51 BE B3 3A 8E 98 B6
9FA0 8E E0 00 62 E9 12 F4 08 8F 32 B4 BC A2 F8 FF B4
9FB0 C8 D8 BC 9F 0A 29 A0 F8 FF A2 F9 FF 0B 72 2B 0B
9FC0 B0 2A D7 88 9F 09 CF 

Function $9F24 (F8 FF) -> Returns the general in <00>'s family w/ the highest ambition, or if none are found, the general w/ the best compatability.

Args:
<0C> 
Locs:
<0B> ? init 0
<0A> ? init 0
<09> ? init 0
+F9  ? init 0
+F8  ? init 0

9F29 40
9F2A 2B

9F2B 40
9F2C 2A

9F2D 40
9F2E 29

9F2F 40
9F30 A2 F9 FF

9F33 40
9F34 A2 F8 FF

9F37 40
9F38 29

9F39 40
9F3A A2 F9 FF

9F3D 8A 0F 7A    / Start of temp general list
9F40 D6 71 9F

Loop through all the generals to find which one in the same family has the highest ambition
	9F43 60
	9F44 3C
	9F45 E9 5F C0 04 / Call $C05F -> Get general family
	9F49 B3
	9F4A 60
	9F4B 3A
	9F4C E9 5F C0 04 / Call $C05F -> Get general family
	9F50 B4
	9F51 DA
	9F52 D8 6F 9F

	if same family
	9F55 A0 F9 FF
	9F58 B3
	9F59 62
	9F5A 3A 
	9F5B E9 19 C0 04 / Call $C019 -> Get general's ambition
	9F5F A2 F8 FF
	9F62 B4
	9F63 C8
	9F64 D8 6F 9F

	if new highest ambition
		9F67 0A
		9F68 29          / Set as new best general
		9F69 A0 F8 FF
		9F6C A2 F9 FF    / Set as new top ambition

	9F6F 0B
	9F70 72

Bounds check:
	9F71 2B
	9F72 0B
	9F73 B0
	9F74 2A
	9F75 D7 43 9F

9F78 09
9F79 D8 7E 9F

General found
	9F7C 09
	9F7D 

9F7E 40
9F7F A2 F9 FF
9F82 8A 0F 7A    / Start of temp general list
9F85 D6 BE 9F

Loop through to find the best compatability:
	9F88 A0 F9 FF
	9F8B B3
	9F8C 3C
	9F8D 3A
	9F8E 8E 98 B9
	9F91 8E E0 00
	9F94 62
	9F95 E9 12 F4 0A / Call $F412 -> E0:B998 (Compatability difference)
	9F99 51
	9F9A BE
	9F9B B3
	9F9C 3A
	9F9D 8E 98 B9
	9FA0 8E E0 00
	9FA3 62
	9FA4 E9 12 F4 08 / Call $F412 -> E0:B998 (Compatability difference)
	9FA8 8F 32
	9FAA B4
	9FAB BC
	9FAC A2 F8 FF
	9FAF B4
	9FB0 C8
	9FB1 D8 BC 9F

	if new best compatability
		9FB4 0A
		9FB5 29       / Set as new best general
		9FB6 A0 F8 FF
		9FB9 A2 F9 FF / Set as new best compatability

	9FBC 0B
	9FBD 72

Bounds check:
	9FBE 2B
	9FBF 0B
	9FC0 B0
	9FC1 2A
	9FC2 D7 88 9F

9FC5 09
9FC6 CF
----------------------------------------------------
     00 01 02 03 04 05 06 07 08 09 0A 0B 0C 0D 0E 0F
9FC0                      20 D1 E4 FD FF 40 85 FD 40
9FD0 A2 FF FF A0 FF FF D2 8C 0F 7A BB B0 1D C0 D8 0D
9FE0 A0 A0 FF FF 8C B5 7E BB D3 8B 19 B5 8C F4 73 BB
9FF0 85 FD 8E FB 00 81 FD 8F 10 B4 B3 D3 DA D4 81 FD
A000 7F D3 8C FF 00 C1 D8 14 A0 41 D6 15 A0 A0 FF FF
A010 D0 D6 D0 9F 40 D8 4E A0 87 FD E9 BA D8 02 1C C0
A020 D8 6A A0 0C 72 B0 83 FD C1 D8 6A A0 87 FD 3C 8E
A030 B3 BA 8E E0 00 62 E9 12 F4 0A B3 81 FD B0 B1 87
A040 FD 0C 72 B0 B1 0C 72 B3 81 FD B1 D6 6A A0 3D 87
A050 FD 8E C1 AA 8E E0 00 62 E9 12 F4 0A 3D 87 FD 8E
A060 33 AA 8E E0 00 62 E9 12 F4 0A CF 

Function $9FC7 (FD FF)
Args:
<0C> Nation
<0D> 

9FCC 40
9FCD 85 FD

9FCF 40
9FD0 A2 FF FF

Loop through ? in temp list:
9FD3 A0 FF FF
9FD6 D2
9FD7 8C 0F 7A
9FDA BB
9FDB B0
9FDC 1D
9FDD C0
9FDE D8 0D A0

9FE1 A0 FF FF
9FE4 8C B5 7E    / $7EB5
9FE7 BB
9FE8 D3
9FE9 8B 19
9FEB B5
9FEC 8C F4 73    / $73F4
9FEF BB
9FF0 85 FD       / Province
9FF2 8E FB 00
9FF5 81 FD
9FF7 8F 10
9FF9 B4
9FFA B3
9FFB D3
9FFC DA
9FFD D4
9FFE 81 FD
A000 7F
A001 D3
A002 8C FF 00
A005 C1
A006 D8 14 A0

A009 41
A00A D6 15 A0

A00D A0 FF FF
A010 D0
A011 D6 D0 9F

A014 40

A015 D8 4E A0

A018 87 FD
A01A E9 BA D8 02 / Call $D8BA (Get nation of province)
A01E 1C
A01F C0
A020 D8 6A A0
A023 0C
A024 72
A025 B0          / Start of province list
A026 83 FD
A028 C1
A029 D8 6A A0

A02C 87 FD
A02E 3C
A02F 8E B3 BA
A032 8E E0 00
A035 62
A036 E9 12 F4 0A / Call $F412 -> E0:BAB3
A03A B3
A03B 81 FD
A03D B0
A03E B1
A03F 87 FD
A041 0C
A042 72
A043 B0
A044 B1
A045 0C
A046 72
A047 B3
A048 81 FD
A04A B1
A04B D6 6A A0

A04E 3D
A04F 87 FD
A051 8E C1 AA
A054 8E E0 00
A057 62
A058 E9 12 F4 0A / Call $F412 -> E0:AAC1 (Remove general from province)

A06A


     00 01 02 03 04 05 06 07 08 09 0A 0B 0C 0D 0E 0F
A050 FD 8E C1 AA 8E E0 00 62 E9 12 F4 0A 3D 87 FD 8E
A060 33 AA 8E E0 00 62 E9 12 F4 0A CF 
----------------------------------------------------
     00 01 02 03 04 05 06 07 08 09 0A 0B 0C 0D 0E 0F
A060                                  20 D1 E4 00 00
A070 8E B0 01 8E AC 9D 8E 0F 7A 60 61 E9 FE DC 0A CF

Function $A06B (00 00)

A070 8E B0 01    / Size
A073 8E AC 9D    / 
A076 8E 0F 7A    / 
A079 60          / 
A07A 61
A07B E9 FE DC 0A / Call $DCFE

A07F CF
----------------------------------------------------
     00 01 02 03 04 05 06 07 08 09 0A 0B 0C 0D 0E 0F
A080 20 D1 E4 00 00 8E B0 01 8E 0F 7A 8E AC 9D 60 61
A090 E9 FE DC 0A CF 

Function $A080 (00 00)

A085 8E B0 01
A088 8E 0F 7A
A08B 8E AC 9D
A08E 60
A08F 61
A090 E9 FE DC 0A

A094 CF
----------------------------------------------------
     00 01 02 03 04 05 06 07 08 09 0A 0B 0C 0D 0E 0F
A090                20 D1 E4 FC FF 40 2B 40 2A 3C E9
A0A0 E2 D4 02 D8 D2 A0 40 A9 21 79 0D A8 23 79 89 80
A0B0 A9 16 79 AC 6B A0 8E FF 00 61 60 A0 0F 00 B3 63
A0C0 8E 56 B3 8E E0 00 62 E9 12 F4 10 2B AC 80 A0 D6
A0D0 D8 A0 3D E9 24 9F 02 2B AC 50 D3 60 3B E9 2D C1
A0E0 04 B3 8E F0 AA E9 9D C6 04 8D 78 E9 59 C8 02 3B
A0F0 8E E2 A6 8E E0 00 62 E9 12 F4 08 0C 72 B0 2A 0A
A100 72 B0 1D C0 D8 3D A1 3D 3A 8E C1 AA 8E E0 00 62
A110 E9 12 F4 0A 8E FB 00 0A 8F 10 B4 B3 D3 DA D4 0A
A120 72 B0 D7 3D A1 3A 8E 9D A9 8E E0 00 62 E9 12 F4
A130 08 3A 8E 2C A4 8E E0 00 62 E9 12 F4 08 3D 8E AB
A140 AA 8E E0 00 62 E9 12 F4 08 3C 0B B1 3B 3C E9 C7
A150 9F 04 0C 74 B0 1B C0 D8 5F A1 0C 74 B3 40 B1 3C
A160 E9 4D 9E 02 8D 7D 0C 77 B4 B3 D3 DA D4 0C 8F 21
A170 B3 8A FF 00 D4 CF 

Function $A095 (FC FF)
Args:
<0C>
<0D>
Locs:
<0B> General?

A09A 40
A09B 2B
A09C 40
A09D 2A
A09E 3C
A09F E9 E2 D4 02
A0A3 D8 D2 A0

A0A6	40
A0A7	A9 21 79    / $7921 = #$00
A0AA	0D
A0AB	A8 23 79    / $7923 = #$0000
A0AE	89 80
A0B0	A9 16 79    / $7916 = #$00
A0B3	AC 6B A0    / Call $A06B
A0B6	8E FF 00
A0B9	61
A0BA	60
A0BB	A0 0F 00
A0BE	B3
A0BF	63
A0C0	8E 56 B3
A0C3	8E E0 00
A0C6	62
A0C7	E9 12 F4 10 / Call $F412 -> E0:B356 (Get player choice for general)
A0CB	2B
A0CC	AC 80 A0    / Call $A080
A0CF	D6 D8 A0

A0D2 	3D
A0D3	E9 24 9F 02 / Call $9F24 -> Find the best successor
A0D7	2B

A0D8 AC 50 D3    / Call $D350
A0DB 60
A0DC 3B
A0DD E9 2D C1 04 / Call $C12D
A0E1 B3
A0E2 8E F0 AA
A0E5 E9 9D C6 04 / Call $C69D
A0E9 8D 78
A0EB E9 59 C8 02 / Call $C859

A0EF 3B
A0F0 8E E2 A6
A0F3 8E E0 00
A0F6 62
A0F7 E9 12 F4 08 / Call $F412 -> E0:A6E2 (Clear general's status flags)

A0FB 0C
A0FC 72
A0FD B0
A0FE 2A
A0FF 0A
A100 72
A102 B0
A103 1D
A104 C0
A105 D8 3D A1

A108	3A
A109	8E C1 AA
A10C	8E E0 00
A10F	62
A110	E9 12 F4 0A / Call $F412 -> E0:AAC1 (Remove general from province)

A13D a

     00 01 02 03 04 05 06 07 08 09 0A 0B 0C 0D 0E 0F
A100 72 B0 1D C0 D8 3D A1 3D 3A 8E C1 AA 8E E0 00 62
A110 E9 12 F4 0A 8E FB 00 0A 8F 10 B4 B3 D3 DA D4 0A
A120 72 B0 D7 3D A1 3A 8E 9D A9 8E E0 00 62 E9 12 F4
A130 08 3A 8E 2C A4 8E E0 00 62 E9 12 F4 08 3D 8E AB
A140 AA 8E E0 00 62 E9 12 F4 08 3C 0B B1 3B 3C E9 C7
A150 9F 04 0C 74 B0 1B C0 D8 5F A1 0C 74 B3 40 B1 3C
A160 E9 4D 9E 02 8D 7D 0C 77 B4 B3 D3 DA D4 0C 8F 21
A170 B3 8A FF 00 D4 CF 
----------------------------------------------------
     00 01 02 03 04 05 06 07 08 09 0A 0B 0C 0D 0E 0F
A170                   20 D1 E4 F5 FF 40 A2 FF FF 40
A180 A2 FE FF 40 A2 FD FF 40 85 FB 40 85 F9 40 85 F7
A190 40 85 F5 40 A2 FF FF 8A 0F 7A 85 FB 0C 8C D4 71
A1A0 BC 8B 22 B8 A2 FE FF 8A F4 73 85 F7 40 A2 FD FF
A1B0 D6 85 A2 87 F7 E9 BA D8 02 85 F5 81 F7 7F D3 8C
A1C0 FF 00 C1 D8 CA A1 41 D6 CB A1 40 D8 38 A2 81 F5
A1D0 1C C0 D8 04 A2 87 F7 8E 90 A6 8E E0 00 62 E9 12
A1E0 F4 08 A0 FF FF 8C B5 7E BB B3 A0 FD FF D4 81 FB
A1F0 72 85 FB 8F FE B3 A4 F9 7B B1 A0 FF FF D0 A2 FF
A200 FF D6 75 A2 A0 FE FF B3 81 F7 7F D3 B4 C0 D8 75
A210 A2 87 F7 8E 90 A6 8E E0 00 62 E9 12 F4 08 A0 FF
A220 FF 8C B5 7E BB B3 A0 FD FF D4 81 FB 72 85 FB 8F
A230 FE B3 A4 0B 7C D6 F9 A1 81 F5 1C C1 D7 75 A2 81
A240 F7 72 D6 6D A2 0C B0 83 F9 C1 D8 6B A2 A0 FF FF
A250 8C B5 7E BB B3 A0 FD FF D4 81 FB 72 85 FB 8F FE
A260 B3 81 F9 B1 A0 FF FF D0 A2 FF FF 81 F9 B0 85 F9
A270 81 F9 D7 45 A2 A0 FD FF D0 A2 FD FF D1 81 F7 8F
A280 19 85 F7 8F E7 A0 FD FF 8B 29 C6 D7 B3 A1 87 FB
A290 40 B1 A0 FF FF CF 
----------------------------------------------------
     00 01 02 03 04 05 06 07 08 09 0A 0B 0C 0D 0E 0F
A290                   20 D1 E4 00 00 8E FF 00 8E D7
A2A0 00 8E B5 7E E9 95 F3 06 6E E9 E6 EE 02 60 8D 6B
A2B0 8E 8C 7F E9 95 F3 06 CF

Function $A296 (00 00)

A29B 8E FF 00
A29E 8E D7 00
A2A1 8E B5 7E
A2A4 E9 95 F3 06

A2A8 6E
A2A9 E9 E6 EE 02

A2AD 60
A2AE 8D 6B
A2B0 8E 8C 7F
A2B3 E9 95 F3 06

A2B7 CF
----------------------------------------------------
     00 01 02 03 04 05 06 07 08 09 0A 0B 0C 0D 0E 0F
A2B0                         20 D1 E4 E9 FF 40 2B 40
A2C0 2A 40 29 40 A2 F9 FF 40 A2 F8 FF 40 A2 F7 FF 40
A2D0 85 F5 40 85 F3 40 85 F1 40 85 EF 40 A2 EE FF 40
A2E0 A2 ED FF A4 5E 78 85 EB A4 60 78 85 E9 40 A8 5E
A2F0 78 40 A8 60 78 AC 96 A2 A4 0F 7A 85 F3 87 F3 E9
A300 A3 D8 02 2B A5 62 78 A2 F7 FF 67 8E 3C BA 8E E0
A310 00 62 E9 12 F4 08 61 E9 53 D1 02 60 8E 7A A5 8E
A320 E0 00 62 E9 12 F4 08 6E E9 AB D2 02 61 E9 F4 D2
A330 02 3B E9 E2 D4 02 D8 47 A3 60 87 F3 E9 2D C1 04
A340 B3 8E 1D AB D6 52 A3 60 87 F3 E9 2D C1 04 B3 8E
A350 49 AB E9 9D C6 04 8D 78 E9 59 C8 02 8D 20 E9 43
A360 D1 02 8E FD AB 8E E0 00 62 E9 12 F4 06 61 8E F6
A370 BA 8E E0 00 62 E9 12 F4 08 0B 8C D4 71 BC 8B 22
A380 B8 A2 F9 FF 8A BF 7B D6 AC A3 A0 F9 FF B3 09 B0
A390 8F 21 D3 B4 C0 D8 AA A3 09 B0 8F 21 B3 8A FF 00
A3A0 D4 62 09 B0 77 B4 B3 D3 DB D4 09 72 29 09 B0 D7
A3B0 8A A3 61 0B 77 B4 B3 D3 DB D4 8D 24 8E 8C 7F 8E
A3C0 F5 7B E9 B8 F3 06 8D 47 8E B0 7F 8E 19 7C E9 B8
A3D0 F3 06 3B E9 76 A1 02 A2 F9 FF D7 DE A4 3B E9 E2
A3E0 D4 02 A2 EE FF 0B 8C D4 71 BC 8B 22 B8 A2 F8 FF
A3F0 A0 F8 FF 8C F7 77 BB B3 40 D4 3B E9 E8 9D 02 0B
A400 72 B0 85 EF D8 26 A4 87 EF 8E 9D A9 8E E0 00 62
A410 E9 12 F4 08 87 EF 8E 2C A4 8E E0 00 62 E9 12 F4
A420 08 0B 72 B3 40 B1 60 8E 7A A5 8E E0 00 62 E9 12
A430 F4 08 60 87 F3 E9 2D C1 04 B3 8E 73 AB E9 8C C6
A440 04 87 F3 8E AB AA 8E E0 00 62 E9 12 F4 08 3B 40
A450 B1 A5 09 60 D1 A9 09 60 8D 78 E9 59 C8 02 61 8E
A460 F6 BA 8E E0 00 62 E9 12 F4 08 A2 F9 FF 8A BF 7B
A470 D6 9D A4 A0 F8 FF B3 0A 8F 1E D3 B4 C0 D8 88 A4
A480 0A 8F 1E B3 8A FF 00 D4 A0 F8 FF B3 0A 79 D3 B4
A490 C0 D8 9B A4 0A 79 B3 8A FF 00 D4 09 72 29 09 B0
A4A0 2A D7 73 A4 A0 F9 FF D8 B6 A4 A0 EE FF D8 E9 A4
A4B0 AC 53 D4 D8 E9 A4 60 E9 F4 D2 02 AC 25 D3 D7 BB
A4C0 A4 AC F2 E1 6E 6B E9 1D C4 04 8E 92 AB E9 4A C4
A4D0 02 6D E9 AB D2 02 60 E9 F4 D2 02 D6 DB A4 A0 F9
A4E0 FF B3 87 F3 3B E9 95 A0 06 8D 24 8E F5 7B 8E 8C
A4F0 7F E9 B8 F3 06 8D 47 8E 19 7C 8E B0 7F E9 B8 F3
A500 06 8E B4 00 E9 59 C8 02 60 E9 F4 D2 02 AC 25 D3
A510 D8 1B A5 60 E9 2F C8 02 D8 0D A5 A0 F7 FF 5F C1
A520 D8 39 A5 A0 F7 FF 8B 10 C1 D8 39 A5 A0 F7 FF B3
A530 E9 AB D2 02 61 E9 F4 D2 02 81 EB A8 5E 78 81 E9
A540 A8 60 78 CF 
----------------------------------------------------
Strings
A544 " and\n"
A54A ".\n"
A54D 1B 52 22 
     1B 3D 35 22

$A555 - String pointer table
00 A559 "triumphed"
01 A563 "succumbed to a greater power "

A581 "\n\n"
A584 "\n\n"

A587 "'s\nrice has run out"
A59B "'s\n"
A59F "ruler"
A5A5 "commander"
A5AF "commander"
A5B9 " was defeated"
A5C7 " lost"
A5CD "\nwas powerless before us"
A5E6 "\nwas crushed"
A5F3 "The castle fell to us"
A609 " was forced\nto surrender the castle"

00 01 02 03 
00 01 02 03

A636 1B 42 37 1B 3D 22 46 1B 43 30 01 "%s" 42 "-%2d"
A64A 1B 43 32 01


----------------------------------------------------
Function $AD00
AD00 JMP $0000
----------------------------------------------------
Function $AD03
Transfers data (save / load)
Arguments:

LOAD (pt 1)
0A/0B Check for the presence of "**KOEI" (when loading a saved file)
0C/0D Bank to switch
0E/0F Bank to switch to 
10/11 Destination
12/13 Source
14/15 Size

 08:AD03:A0 0D     LDY #$0D
 08:AD05:B1 02     LDA ($02),Y
 08:AD07:99 08 00  STA $0008,Y
 08:AD0A:88        DEY
 08:AD0B:D0 F8     BNE $AD05
 
 08:AD0D:A5 0A     LDA $000A
 08:AD0F:85 08     STA $0008
 08:AD11:A5 0B     LDA $000B
 08:AD13:85 09     STA $0009 / "data load" flag
 
 08:AD15:A5 0C     LDA $000C
 08:AD17:85 52     STA $0052
 08:AD19:A9 00     LDA #$00
 08:AD1B:85 53     STA $0053
 
 08:AD1D:A9 04     LDA #$04
 08:AD1F:20 B9 DC  JSR $DCB9 / Sysop 0x04
 08:AD22:A5 66     LDA $0066 
 08:AD24:85 0A     STA $000A / Store value of bank ? ($8000-$9FFF)
 
 08:AD26:A5 0C     LDA $000C
 08:AD28:85 52     STA $0052
 08:AD2A:A5 0E     LDA $000E
 08:AD2C:85 54     STA $0054
 08:AD2E:A9 00     LDA #$00
 08:AD30:85 53     STA $0053
 08:AD32:85 55     STA $0055
 
 08:AD34:A9 03     LDA #$03
 08:AD36:20 B9 DC  JSR $DCB9 / Change bank
 
 08:AD39:38        SEC
 08:AD3A:A5 14     LDA $0014
 08:AD3C:E9 07     SBC #$07
 08:AD3E:85 14     STA $0014
 08:AD40:A5 15     LDA $0015
 08:AD42:E9 00     SBC #$00
 08:AD44:85 15     STA $0015 / Subtract 7 from the number of bytes to transfer
 
 08:AD46:18        CLC
 08:AD47:A5 10     LDA $0010
 08:AD49:65 14     ADC $0014
 08:AD4B:85 18     STA $0018
 08:AD4D:A5 11     LDA $0011
 08:AD4F:65 15     ADC $0015
 08:AD51:85 19     STA $0019 / Calculate address of "**KOEI" string in source
 
 08:AD53:18        CLC
 08:AD54:A5 12     LDA $0012
 08:AD56:65 14     ADC $0014
 08:AD58:85 1A     STA $001A
 08:AD5A:A5 13     LDA $0013
 08:AD5C:65 15     ADC $0015
 08:AD5E:85 1B     STA $001B / Calculate address of "**KOEI" string in destination
 
 08:AD60:A9 00     LDA #$00
 08:AD62:85 16     STA $0016 / Initialize checksum at zero
 08:AD64:85 17     STA $0017
 
 08:AD66:A5 08     LDA $0008
 08:AD68:F0 15     BEQ $AD7F
 
 If the game is being loaded,
  ensure that the **KOEI string is present.
 08:AD6A:A0 02     LDY #$02
 08:AD6C:98        TYA
 08:AD6D:C9 06     CMP #$06
 08:AD6F:F0 0E     BEQ $AD7F
 08:AD71:B1 18     LDA ($18),Y
 08:AD73:D9 0C AE  CMP $AE0C,Y / **KOEI
 08:AD76:F0 03     BEQ $AD7B
 08:AD78:4C FC AD  JMP $ADFC
 08:AD7B:C8        INY
 08:AD7C:4C 6C AD  JMP $AD6C
 
 08:AD7F:A0 00     LDY #$00
 08:AD81:4C A1 AD  JMP $ADA1
 
 LOOP:
 08:AD84:18        CLC
 08:AD85:B1 10     LDA ($10),Y
 08:AD87:91 12     STA ($12),Y ; Transfer data
 08:AD89:65 16     ADC $0016
 08:AD8B:85 16     STA $0016
 08:AD8D:A5 17     LDA $0017
 08:AD8F:69 00     ADC #$00
 08:AD91:85 17     STA $0017   ; 
 08:AD93:E6 10     INC $0010   ; Go to next position in source
 08:AD95:D0 02     BNE $AD99
 08:AD97:E6 11     INC $0011
 08:AD99:E6 12     INC $0012   ; Go to next position in destination
 08:AD9B:D0 02     BNE $AD9F
 08:AD9D:E6 13     INC $0013
 08:AD9F:C6 14     DEC $0014
 
 08:ADA1:A5 14     LDA $0014
 08:ADA3:D0 DF     BNE $AD84
 08:ADA5:A5 15     LDA $0015
 08:ADA7:F0 05     BEQ $ADAE
 08:ADA9:C6 15     DEC $0015
 08:ADAB:4C 84 AD  JMP $AD84   ; Loop until all bytes are transferred
 
 08:ADAE:A5 08     LDA $0008
 08:ADB0:D0 0E     BNE $ADC0
 
 If data is being saved:
 08:ADB2:A0 00     LDY #$00
 08:ADB4:A5 16     LDA $0016
 08:ADB6:91 1A     STA ($1A),Y
 08:ADB8:C8        INY
 08:ADB9:A5 17     LDA $0017
 08:ADBB:91 1A     STA ($1A),Y ; Save checksum
 08:ADBD:4C D6 AD  JMP $ADD6
 
 If data is being loaded:
 08:ADC0:A0 00     LDY #$00
 08:ADC2:B1 18     LDA ($18),Y
 08:ADC4:91 1A     STA ($1A),Y
 08:ADC6:C5 16     CMP $0016
 08:ADC8:D0 37     BNE $AE01 ; return 0 if first byte of checksum is invalid
 08:ADCA:C8        INY
 08:ADCB:B1 18     LDA ($18),Y
 08:ADCD:91 1A     STA ($1A),Y
 08:ADCF:C5 17     CMP $0017
 08:ADD1:D0 2E     BNE $AE01 ; return 0 if second byte of checksum is invalid
 08:ADD3:4C F7 AD  JMP $ADF7 ; return 2 (successful load)
 
 If data is being saved:
 08:ADD6:C8        INY
 08:ADD7:B9 0C AE  LDA $AE0C,Y
 08:ADDA:91 1A     STA ($1A),Y ; write "**KOEI" to save file
 08:ADDC:C0 05     CPY #$05
 08:ADDE:D0 F6     BNE $ADD6
 08:ADE0:4C F7 AD  JMP $ADF7 ; return 2 (successful save)
 
 08:ADE3:A5 0C     LDA $000C
 08:ADE5:85 52     STA $0052
 08:ADE7:A5 0A     LDA $000A
 08:ADE9:85 54     STA $0054
 08:ADEB:A9 00     LDA #$00
 08:ADED:85 53     STA $0053
 08:ADEF:85 55     STA $0055
 08:ADF1:A9 03     LDA #$03
 08:ADF3:20 B9 DC  JSR $DCB9
 08:ADF6:60        RTS -----------------------------------------
 08:ADF7:A9 02     LDA #$02
 08:ADF9:4C 03 AE  JMP $AE03 / return 2
 
 "**KOEI" check failed
 08:ADFC:A9 01     LDA #$01
 08:ADFE:4C 03 AE  JMP $AE03 / return 1 ("No save file")
 
 08:AE01:A9 00     LDA #$00  / return 0
 08:AE03:85 08     STA $0008
 08:AE05:A9 00     LDA #$00
 08:AE07:85 09     STA $0009
 08:AE09:4C E3 AD  JMP $ADE3
----------------------------------------------------
     00 01 02 03 04 05 06 07 08 09 0A 0B 0C 0D 0E 0F
AE10       20 D1 E4 FF FF A5 08 60 53 B8 A2 FF FF 8E 
AE20 98 B4 E9 4A C4 02 8E F5 00 A0 FF FF 8B 1E B5 8C
AE30 44 BA BB B3 A0 FF FF 8B 1E B5 8C CC B9 BB B3 66
AE40 65 8D 15 62 68 E9 E6 EE 10 60 60 66 8D 19 8D 15
AE50 67 67 E9 E6 EE 0E 8D 15 67 E9 1D C4 04 8E 9F B4
AE60 E9 4A C4 02 CF 

Function $AE12

AE17 A5 08 60 .. / $6008 (Month)
AE1A 53
AE1B B8
AE1C A2 FF FF .. / Month % 3 (Season)

AE1F 8E 98 B4 .. / $B498 [1B 43 30 1B 45 3D]
AE22 E9 4A C4 02 / Call $C44A -> Print

AE26 8E F5 00
AE29 A0 FF FF
AE2C 8B 1E
AE2E B5
AE2F 8C 44 BA .. / $BA44
AE32 BB
AE33 B3
AE34 A0 FF FF
AE37 8B 1E
AE39 B5
AE3A 8C CC B9 .. / $B9CC
AE3D BB
AE3E B3
AE3F 66
AE40 65
AE41 8D 15
AE43 62 
AE44 68
AE45 E9 E6 EE 10 / Call $EEE6 -> Sysop 0x08 -> Print graphic

AE49 60
AE4A 60
AE4B 66
AE4C 8D 19
AE4E 8D 15
AE50 67
AE51 67
AE52 E9 E6 EE 0E / Call $EEE6 -> Sysop 0x07

AE56 8D 15
AE58 67
AE59 E9 1D C4 04 / Call $C41D -> Text pos 7,21

AE5D 8E 9F B4 .. / $B49F [1B 52 27]
AE60 E9 4A C4 02 / Call $C44A -> Print

AE64 CF
----------------------------------------------------
     00 01 02 03 04 05 06 07 08 09 0A 0B 0C 0D 0E 0F
AE60                20 D1 E4 00 00 AC 12 AE 8E A3 B4
AE70 E9 56 C4 02 AC 69 CC CF 
----------------------------------------------------
     00 01 02 03 04 05 06 07 08 09 0A 0B 0C 0D 0E 0F
AE70                         20 D1 E4 FC FF AA F2 7B
AE80 E9 D4 E1 02 8C B9 00 B5 8C 04 80 BB 2B 89 6B 2A
AE90 A0 0B 00 D8 A4 AE 3A 3B 8E F5 7B 60 61 E9 FE DC
AEA0 0A D6 AF AE 3A 8E F5 7B 3B 60 61 E9 FE DC 0A CF

Function $AE78 (FC FF)
Args:
<00> ?

AE7D AA F2 7B    / $7BF2 (current province)
AE80 E9 D4 E1 02 / Call $E1D4 -> Get ID of province
AE84 8C B9 00
AE87 B5
AE88 8C 04 80
AE8B BB
AE8C 2B

AE8D 89 6B
AE8F 2A

AE90 A0 0B 00
AE93 D8 A4 AE

if (code == 1)
	AE96 3A
	AE97 3B          / (destination)
	AE98 8E F5 7B    / $7BF5 (source)
	AE9B 60
	AE9C 61
	AE9D E9 FE DC 0A / Call $DCFE
	AEA1 D6 AF AE
else (code == 0)
	AEA4 3A
	AEA5 8E F5 7B    / (destination)
	AEA8 3B          / (source)
	AEA9 60
	AEAA 61
	AEAB E9 FE DC 0A / Call $DCFE 

AEAF CF
----------------------------------------------------
     00 01 02 03 04 05 06 07 08 09 0A 0B 0C 0D 0E 0F
AEB0 20 D1 E4 FC FF 40 2B 0D 74 B0 2A D6 CB AE 0A 7C
AEC0 B0 8B 64 B8 CD 0B BB 2B 0A B0 2A 0A D7 BE AE A0
AED0 0B 00 D7 EF AE 0D 72 B0 72 B0 2A D6 EB AE 0A 7C
AEE0 B0 8B 64 B8 CD 0B BB 2B 0A B0 2A 0A D7 DE AE 0B
AEF0 CF 
----------------------------------------------------
     00 01 02 03 04 05 06 07 08 09 0A 0B 0C 0D 0E 0F
AEF0    20 D1 E4 FD FF 40 A2 FF FF 0D 74 B0 85 FD D6
AF00 0F AF 81 FD B0 85 FD A0 FF FF D0 A2 FF FF D1 81
AF10 FD D7 02 AF A0 0B 00 D7 36 AF 0D 72 B0 72 B0 85
AF20 FD D6 31 AF 81 FD B0 85 FD A0 FF FF D0 A2 FF FF
AF30 D1 81 FD D7 24 AF A0 FF FF CF 
----------------------------------------------------
     00 01 02 03 04 05 06 07 08 09 0A 0B 0C 0D 0E 0F
AF30                               20 D1 E4 00 00 AA
AF40 2F 78 E9 CE D4 02 D8 5F AF AC 12 AE A4 2F 78 8C
AF50 F4 73 BC 8B 19 B8 D0 B3 8E C1 B4 E9 9D C6 04 CF

Function $AF3A

AF3F AA 2F 78 .. / $782F (Active province)
AF42 E9 CE D4 02 / Call $D4CE -> Check if province is delegated
AF46 D8 5F AF

AF49 AC 12 AE .. / Call $AE12

...

AF5F

     00 01 02 03 04 05 06 07 08 09 0A 0B 0C 0D 0E 0F
AF40 2F 78 E9 CE D4 02 D8 5F AF AC 12 AE A4 2F 78 8C
AF50 F4 73 BC 8B 19 B8 D0 B3 8E C1 B4 E9 9D C6 04 CF
----------------------------------------------------
     00 01 02 03 04 05 06 07 08 09 0A 0B 0C 0D 0E 0F
AF60 20 D1 E4 00 00 8D 2C 8D 3A 61 61 6B 62 67 E9 E6
AF70 EE 0E 8D 2C 8D 3C 61 61 6B 8D 1D 67 E9 E6 EE 0E
AF80 8D 2C 8D 40 61 61 8D 14 62 67 E9 E6 EE 0E 8D 2C
AF90 8D 42 61 61 8D 14 8D 1D 67 E9 E6 EE 0E 8D 2C 8D
AFA0 3B 61 8D 1A 6B 63 67 E9 E6 EE 0E 8D 2C 8D 41 61
AFB0 8D 1A 8D 14 63 67 E9 E6 EE 0E 8D 2C 8D 3D 68 61
AFC0 6C 62 67 E9 E6 EE 0E 8D 2C 8D 3F 68 61 6C 8D 1D
AFD0 67 E9 E6 EE 0E 60 60 68 8D 1A 6C 63 67 E9 E6 EE 
AFE0 0E CF 

Function $AF60 (00 00)

AF65 8D 2C
AF67 8D 3A
AF69 61
AF6A 61
AF6B 6B
AF6C 62
AF6D 67
AF6E E9 E6 EE 0E / Call $EEE6 -> Sysop 0x07

AF72 8D 2C
AF74 8D 3C
AF76 61
AF77 61
AF78 6B
AF79 8D 1D
AF7B 67
AF7C E9 E6 EE 0E / Call $EEE6 -> Sysop 0x07

AF80 8D 2C
AF82 8D 40
AF84 61
AF85 61
AF86 8D 14
AF88 62
AF89 67
AF8A E9 E6 EE 0E / Call $EEE6 -> Sysop 0x07

AF8E 8D 2C
AF90 8D 42
AF92 61
AF93 61
AF94 8D 14
AF96 8D 1D
AF98 67
AF99 E9 E6 EE 0E / Call $EEE6 -> Sysop 0x07

AF9D 8D 2C
AF9F 8D 3B
AFA1 61
AFA2 8D 1A
AFA4 6B
AFA5 63
AFA6 67
AFA7 E9 E6 EE 0E / Call $EEE6 -> Sysop 0x07

AFAB 8D 2C
AFAD 8D 41
AFAF 61
AFB0 8D 1A
AFB2 8D 14
AFB4 63
AFB5 67
AFB6 E9 E6 EE 0E / Call $EEE6 -> Sysop 0x07

AFBA 8D 2C
AFBC 8D 3D
AFBE 68
AFBF 61
AFC0 6C
AFC1 62
AFC2 67
AFC3 E9 E6 EE 0E / Call $EEE6 -> Sysop 0x07

AFC7 8D 2C
AFC9 8D 3F
AFCB 68
AFCC 61
AFCD 6C
AFCE 8D 1D
AFD0 67          
AFD1 E9 E6 EE 0E / Call $EEE6 -> Sysop 0x07

AFD5 60
AFD6 60
AFD7 68
AFD8 8D 1A
AFDA 6C
AFDB 63
AFDC 67       
AFDD E9 E6 EE 0E / Call $EEE6 -> Sysop 0x07

AFE1 CF
----------------------------------------------------
     00 01 02 03 04 05 06 07 08 09 0A 0B 0C 0D 0E 0F
AFE0       20 D1 E4 FA FF AC 60 AF 8A F5 7B 2A 8A 19
AFF0 7C 29 6E 6E E9 1D C4 04 8E EC B4 E9 4A C4 02 40
B000 A2 FF FF D6 6A B1 A0 FF FF D8 16 B0 8E 0B B5 E9
B010 4A C4 02 D6 1D B0 8E 12 B5 E9 4A C4 02 6E A0 FF
B020 FF 8B 11 B5 75 B3 E9 1D C4 04 3A A0 FF FF D2 B3
B030 E9 B0 AE 04 B3 0A 79 B3 A0 FF FF D2 D0 B3 E9 B0
B040 AE 04 B4 BB B3 3A A0 FF FF D2 B3 E9 F1 AE 04 B3
B050 0A 79 B3 A0 FF FF D2 D0 B3 E9 F1 AE 04 B4 BB B3
B060 A0 FF FF D2 D2 19 BB 74 B7 16 B7 19 64 00 00 00
B070 B7 02 B7 27 B3 A0 FF FF D2 19 BB B0 B3 8E 19 B5
B080 E9 8C C6 0A 6C A0 FF FF 55 B5 7C B3 E9 1D C4 04
B090 A0 FF FF D7 9C B0 8A 29 B5 D6 9F B0 8A 2D B5 B3
B0A0 E9 4A C4 02 6C A0 FF FF 8B 11 B5 74 B3 E9 1D C4
B0B0 04 0A B0 D7 BC B0 8A E4 B4 D6 C5 B0 62 0A B0 B0
B0C0 B3 E9 2D C1 04 B3 8E 31 B5 E9 8C C6 04 6D A0 FF
B0D0 FF 8B 11 B5 74 B3 E9 1D C4 04 0A B0 D7 E5 B0 8A
B0E0 E4 B4 D6 EE B0 63 0A B0 B0 B3 E9 2D C1 04 B3 8E
B0F0 35 B5 E9 8C C6 04 8D 12 A0 FF FF 8B 11 B5 74 B3
B100 E9 1D C4 04 0A 79 B0 D7 10 B1 8A E4 B4 D6 21 B1
B110 62 A0 FF FF D2 D0 59 B5 1A BB B0 B0 B3 E9 2D C1
B120 04 B3 8E 39 B5 E9 8C C6 04 8D 13 A0 FF FF 8B 11
B130 B5 74 B3 E9 1D C4 04 0A 79 B0 D7 43 B1 8A E4 B4
B140 D6 54 B1 63 A0 FF FF D2 D0 59 B5 1A BB B0 B0 B3
B150 E9 2D C1 04 B3 8E 3D B5 E9 8C C6 04 A0 FF FF D0
B160 A2 FF FF D1 89 12 CD 0A BB 2A A0 FF FF 52 C6 D7
B170 06 B0 8E 41 B5 E9 4A C4 02 CF 
----------------------------------------------------
     00 01 02 03 04 05 06 07 08 09 0A 0B 0C 0D 0E 0F
B170                               20 D1 E4 00 00 8A
B180 58 78 8C 04 60 BC D0 B3 8E 04 80 8E 04 60 63 61
B190 60 E9 03 AD 0C 60 60 63 E9 E6 EE 06 8A AC 7D 8C
B1A0 04 60 BC D0 B3 8E 04 80 8E 04 60 62 61 60 E9 03
B1B0 AD 0C 61 60 63 E9 E6 EE 06 AC 12 AE 8E 45 B5 E9
B1C0 56 C4 02 CF 

Function $B17A (00 00) -> Save the game

B17F 8A 58 78    / $7858
B182 8C 04 60
B185 BC
B186 D0
B187 B3
B188 8E 04 80
B18B 8E 04 60
B18E 63
B18F 61
B190 60
B191 E9 03 AD 0C / Call $AD03

B195 60
B196 60
B197 63
B198 E9 E6 EE 06 / Call $EEE6 -> Sysop 0x03: Set RAM bank 0 to Page 00

B19C 8A AC 7D
B19F 8C 04 60
B1A2 BC
B1A3 D0
B1A4 B3
B1A5 8E 04 80
B1A8 8E 04 60
B1AB 62
B1AC 61
B1AD 60
B1AE E9 03 AD 0C / Call $AD03

B1B2 61
B1B3 60
B1B4 63
B1B5 E9 E6 EE 06 / Call $EEE6 -> Sysop 0x03: Set RAM bank 0 to Page 01

B1B9 AC 12 AE    / Call $AE12

B1BC 8E 45 B5    / $B545 "Game is saved\W"
B1BF E9 56 C4 02 / Call $C456 -> Print

B1C3 CF
----------------------------------------------------
     00 01 02 03 04 05 06 07 08 09 0A 0B 0C 0D 0E 0F
B1C0             20 D1 E4 00 00 0C 72 D3 52 DA D7 DB
B1D0 B1 0C 73 D3 8C F0 00 DA D8 DF B1 41 D6 E0 B1 40
B1E0 CF 

Function $B1C4 (00 00)

B1C9 0C
B1CA 72
B1CB D3
B1CC 52
B1CD DA
B1CE D7 DB B1

B1D1 0C
B1D2 73
B1D3 D3
B1D4 8C F0 00
B1D7 DA
B1D8 D8 DF B1

	B1DB 41
	B1DC D6 E0 B1

	B1DF 40

B1E0 CF
----------------------------------------------------
     00 01 02 03 04 05 06 07 08 09 0A 0B 0C 0D 0E 0F
B1E0    20 D1 E4 00 00 A0 0B 00 D2 8C 55 B5 BB B0 B3
B1F0 E9 4A C4 02 CF 

Function $B1E1 (00 00) -> Print message <00> from table F0:B555
Args:
+0B  ?

B1E6 A0 0B 00
B1E9 D2
B1EA 8C 55 B5    / $B555
B1ED BB
B1EE B0
B1EF B3
B1F0 E9 4A C4 02 / Call $C44A -> Print
B1F4 CF
----------------------------------------------------
     00 01 02 03 04 05 06 07 08 09 0A 0B 0C 0D 0E 0F
B1F0                20 D1 E4 00 00 65 62 E9 1D C4 04
B200 A5 08 60 D2 8C 1E B6 BB B0 B3 8E 80 B6 E9 8C C6
B210 04 65 66 E9 1D C4 04 AA 06 60 8E 83 B6 E9 8C C6
B220 04 66 62 E9 1D C4 04 A5 08 60 53 B8 D2 8C 16 B6
B230 BB B0 B3 8E 86 B6 E9 8C C6 04 CF 

Function $B1F5 (00 00)
B1FA 65
B1FB 62
B1FC E9 1D C4 04 / Call $C41D (Text pos 2,5)

B200 A5 08 60    / $6008 (Month)
B203 D2
B204 8C 1E B6    / Month name table
B207 BB
B208 B0          /
B209 B3
B20A 8E 80 B6    / "%s"
B20D E9 8C C6 04 / Call $C68C -> Print Month name

B211 65
B212 66           
B213 E9 1D C4 04 / Call $C41D (Text pos 6,5)

B217 AA 06 60    / $6006 (Year)
B21A 8E 83 B6    / "%d"
B21D E9 8C C6 04 / Call $C68C -> Print Year

B221 66
B222 62
B223 E9 1D C4 04 / Call $C41D (Text pos 2,6)

B227 A5 08 60
B22A 53
B22B B8          / Season
B22C D2
B22D 8C 16 B6
B230 BB
B231 B0
B232 B3
B233 8E 86 B6    / 
B236 E9 8C C6 04 / Call $C68C -> Print Season
----------------------------------------------------
     00 01 02 03 04 05 06 07 08 09 0A 0B 0C 0D 0E 0F
B230                                  20 D1 E4 00 00
B240 8D 2C 8D 52 61 8D 1C 6B 62 67 E9 E6 EE 0E 8D 2C
B250 8D 68 68 8D 1C 6C 62 67 E9 E6 EE 0E 8D 2C 8D 53
B260 61 8D 1C 8D 14 62 67 E9 E6 EE 0E CF 

Function $B23B (00 00)

B240 8D 2C
B242 8D 52
B244 61
B245 8D 1C
B247 6B
B248 62
B249 67
B24A E9 E6 EE 0E / Call $EEE6 -> Sysop 0x07

B24D 8D 2C
B250 8D 68
B252 68
B253 8D 1C
B255 6C
B256 62
B257 67
B258 E9 E6 EE 0E / Call $EEE6 -> Sysop 0x07

B25C 8D 2C
B25E 8D 53
B260 61
B261 8D 1C
B263 8D 14
B265 62
B266 67
B267 E9 E6 EE 0E / Call $EEE6 -> Sysop 0x07

B26B CF
----------------------------------------------------
     00 01 02 03 04 05 06 07 08 09 0A 0B 0C 0D 0E 0F
B260                                     20 D1 E4 00
B270 00 A0 0B 00 53 B5 74 B3 65 E9 1D C4 04 A0 0D 00
B280 B3 E9 0D C4 02 A0 0B 00 D0 B3 8E 47 B7 E9 8C C6
B290 04 A0 0B 00 53 B5 74 B3 67 E9 1D C4 04 A0 0B 00
B2A0 D2 D2 8C 8F B6 BB B0 B3 E9 4A C4 02 A0 0B 00 53
B2B0 B5 75 B3 67 E9 1D C4 04 A0 0B 00 D2 D2 8C 91 B6
B2C0 BB B0 B3 E9 4A C4 02 A0 0B 00 53 B5 74 B3 8D 19
B2D0 E9 1D C4 04 A0 0B 00 8C 41 B7 BB D3 B3 8E 4B B7
B2E0 E9 8C C6 04 A0 0B 00 53 B5 75 B3 8D 1A E9 1D C4
B2F0 04 8E 4E B7 E9 4A C4 02 60 E9 0D C4 02 CF 

Function $B26C (00 00)

B271 A0 0B 00
B274 53
B275 B5
B276 74
B277 B3
B278 65
B279 E9 1D C4 04 / Call $C41D -> Text pos 5, 3*x+4

B27D A0 0D 00
B280 B3
B281 E9 0D C4 02 / Call $C40D

B285 A0 0B 00
B288 D0
B289 B3
B28A 8E 47 B7    / $B747 
B28D E9 8C C6 04 / Call $C68C

B291 A0 0B 00
B294 53
B295 B5
B296 74
B297 B3
B298 67
B299 E9 1D C4 04 / Call $C41D -> Text pos 7, 3*x+4

B29D A0 0B 00
B2A0 D2
B2A1 D2
B2A2 8C 8F B6
B2A5 BB
B2A6 B0
B2A7 B3
B2A8 E9 4A C4 02 / Call $C44A 

B2AC A0 0B 00
B2AF 53
B2B0 B5
B2B1 75
B2B2 B3
B2B3 67
B2B4 E9 1D C4 04 / Call $C41D -> Text pos 7, 3*x+5

B2B8 A0 0B 00
B2BB D2
B2BC D2
B2BD 8C 91 B6
B2C1 B0
B2C2 B3
B2C3 E9 4A C4 02 / Call $C44A -> Print

B2C7 A0 0B 00
B2CA 53
B2CB B5
B2CC 74
B2CD B3
B2CE 8D 19
B2D0 E9 1D C4 04 / Call $C41D -> Text pos 25, 3*x+4

B2D4 A0 0B 00
B2D7 8C 41 B7
B2DA BB
B2DB D3
B2DC B3
B2DD 8E 4B B7
B2E0 E9 8C C6 04 / Call $C68C 

B2E4 A0 0B 00
B2E7 53
B2E8 B5
B2E9 75
B2EA B3
B2EB 8D 1A
B2ED E9 1D C4 04 / Call $C41D

B2F1 8E 4E B7
B2F4 E9 4A C4 02 / Call $C44A -> Print

B2F8 60
B2F9 E9 0D C4 02 / Call $C40D

     00 01 02 03 04 05 06 07 08 09 0A 0B 0C 0D 0E 0F
B2C0 BB B0 B3 E9 4A C4 02 A0 0B 00 53 B5 74 B3 8D 19
B2D0 E9 1D C4 04 A0 0B 00 8C 41 B7 BB D3 B3 8E 4B B7
B2E0 E9 8C C6 04 A0 0B 00 53 B5 75 B3 8D 1A E9 1D C4
B2F0 04 8E 4E B7 E9 4A C4 02 60 E9 0D C4 02 CF 
----------------------------------------------------
     00 01 02 03 04 05 06 07 08 09 0A 0B 0C 0D 0E 0F
B2F0                                           20 D1
B300 E4 00 00 8E F0 00 A0 0F 00 D2 D2 8C 93 B7 BB B3
B310 A0 0F 00 D2 D2 8C 53 B7 BB B3 62 62 A0 0D 00 B3
B320 A0 0B 00 B3 68 E9 E6 EE 10 CF 

Function $B2FE (00 00) -> Prints a 2x2 graphic?
Args:
+0F  Graphic ID
+0D  y-pos
+0B  x-pos

B303 8E F0 00
B306 A0 0F 00
B309 D2
B30A D2
B30B 8C 93 B7
B30E BB
B30F B3
B310 A0 0F 00
B313 D2
B314 D2
B315 8C 53 B7
B318 BB
B319 B3
B31A 62
B31B 62
B31C A0 0D 00
B31F B3
B320 A0 0B 00
B323 B3
B324 68
B325 E9 E6 EE 10 / Call $EEE6 -> Sysop 0x08 (Print graphic)

B329 CF
----------------------------------------------------
Function $B32A - Randomize array $78FF

 08:B32A:A9 03     LDA #$03
 08:B32C:85 0A     STA $000A   $0A (init at 03)
 08:B32E:A9 00     LDA #$00
 08:B330:85 13     STA $0013
 08:B332:A9 06     LDA #$06
 08:B334:85 12     STA $0012 / $12 (init at 0006)
 
 Loop:
 08:B336:A9 0C     LDA #$0C
 08:B338:20 B9 DC  JSR $DCB9 / Sysop 0x0C (Get random value)
 
 08:B33B:A0 08     LDY #$08
 08:B33D:A2 12     LDX #$12
 08:B33F:A9 0C     LDA #$0C
 08:B341:20 BA E2  JSR $E2BA / $0C (RNG 00-05?)
 
 08:B344:A9 0C     LDA #$0C
 08:B346:20 B9 DC  JSR $DCB9 / Sysop 0x0C (get random value)
 
 08:B349:A0 08     LDY #$08
 08:B34B:A2 12     LDX #$12
 08:B34D:A9 0E     LDA #$0E
 08:B34F:20 BA E2  JSR $E2BA / $0E (RNG 00-05?)
 
 08:B352:18        CLC
 08:B353:A9 FF     LDA #$FF
 08:B355:65 0C     ADC $000C
 08:B357:85 14     STA $0014
 08:B359:A9 78     LDA #$78
 08:B35B:69 00     ADC #$00
 08:B35D:85 15     STA $0015 / $14 = random entry in $78FF
 
 08:B35F:18        CLC
 08:B360:A9 FF     LDA #$FF
 08:B362:65 0E     ADC $000E
 08:B364:85 16     STA $0016
 08:B366:A9 78     LDA #$78
 08:B368:69 00     ADC #$00
 08:B36A:85 17     STA $0017 / $16 = random entry in $78FF
 
 08:B36C:A1 14     LDA ($14,X)
 08:B36E:85 10     STA $0010
 08:B370:A1 16     LDA ($16,X)
 08:B372:81 14     STA ($14,X)
 08:B374:A5 10     LDA $0010
 08:B376:81 14     STA ($14,X)
 08:B378:C6 0A     DEC $000A
 08:B37A:D0 BA     BNE $B336
 08:B37C:60        RTS -----------------------------------------
----------------------------------------------------------------
Function $7DB3

 08:B37D:A0 09     LDY #$09
 08:B37F:20 8B B4  JSR $B48B
 08:B382:C6 0E     DEC $000E = #$A3
 08:B384:A5 0C     LDA $000C = #$C9
 08:B386:85 14     STA $0014 = #$0A
 08:B388:C6 14     DEC $0014 = #$0A
 08:B38A:A9 00     LDA #$00
 08:B38C:85 0D     STA $000D = #$05
 08:B38E:C5 14     CMP $0014 = #$0A
 08:B390:90 03     BCC $B395
 08:B392:4C 58 B4  JMP $B458
 08:B395:A0 00     LDY #$00
 08:B397:B1 08     LDA ($08),Y @ $00EF = #$0F
 08:B399:85 18     STA $0018 = #$00
 08:B39B:C8        INY
 08:B39C:B1 08     LDA ($08),Y @ $00EF = #$0F
 08:B39E:85 19     STA $0019 = #$00
 08:B3A0:20 59 B4  JSR $B459
 08:B3A3:A5 1A     LDA $001A = #$00
 08:B3A5:85 16     STA $0016 = #$00
 08:B3A7:A5 1B     LDA $001B = #$00
 08:B3A9:85 17     STA $0017 = #$00
 08:B3AB:18        CLC
 08:B3AC:A5 0A     LDA $000A = #$00
 08:B3AE:69 01     ADC #$01
 08:B3B0:85 12     STA $0012 = #$63
 08:B3B2:A5 0B     LDA $000B = #$8F
 08:B3B4:69 00     ADC #$00
 08:B3B6:85 13     STA $0013 = #$05
 08:B3B8:18        CLC
 08:B3B9:A5 08     LDA $0008 = #$E9
 08:B3BB:69 02     ADC #$02
 08:B3BD:85 10     STA $0010 = #$43
 08:B3BF:A5 09     LDA $0009 = #$00
 08:B3C1:69 00     ADC #$00
 08:B3C3:85 11     STA $0011 = #$05
 08:B3C5:18        CLC
 08:B3C6:A5 0D     LDA $000D = #$05
 08:B3C8:69 01     ADC #$01
 08:B3CA:85 0F     STA $000F = #$05
 08:B3CC:C5 0C     CMP $000C = #$C9
 08:B3CE:B0 70     BCS $B440
 08:B3D0:F0 6E     BEQ $B440
 08:B3D2:A5 10     LDA $0010 = #$43
 08:B3D4:85 1A     STA $001A = #$00
 08:B3D6:A5 11     LDA $0011 = #$05
 08:B3D8:85 1B     STA $001B = #$00
 08:B3DA:A0 00     LDY #$00
 08:B3DC:B1 1A     LDA ($1A),Y @ $0006 = #$CD
 08:B3DE:85 18     STA $0018 = #$00
 08:B3E0:C8        INY
 08:B3E1:B1 1A     LDA ($1A),Y @ $0006 = #$CD
 08:B3E3:85 19     STA $0019 = #$00
 08:B3E5:20 59 B4  JSR $B459
 08:B3E8:A5 17     LDA $0017 = #$00
 08:B3EA:C5 1B     CMP $001B = #$00
 08:B3EC:90 08     BCC $B3F6
 08:B3EE:D0 38     BNE $B428
 08:B3F0:A5 16     LDA $0016 = #$00
 08:B3F2:C5 1A     CMP $001A = #$00
 08:B3F4:B0 32     BCS $B428
 08:B3F6:A0 00     LDY #$00
 08:B3F8:B1 10     LDA ($10),Y @ $0549 = #$00
 08:B3FA:85 40     STA $0040 = #$00
 08:B3FC:C8        INY
 08:B3FD:B1 10     LDA ($10),Y @ $0549 = #$00
 08:B3FF:85 41     STA $0041 = #$00
 08:B401:B1 08     LDA ($08),Y @ $00EF = #$0F
 08:B403:91 10     STA ($10),Y @ $0549 = #$00
 08:B405:88        DEY
 08:B406:B1 08     LDA ($08),Y @ $00EF = #$0F
 08:B408:91 10     STA ($10),Y @ $0549 = #$00
 08:B40A:A5 40     LDA $0040 = #$00
 08:B40C:91 08     STA ($08),Y @ $00EF = #$0F
 08:B40E:C8        INY
 08:B40F:A5 41     LDA $0041 = #$00
 08:B411:91 08     STA ($08),Y @ $00EF = #$0F
 08:B413:88        DEY
 08:B414:B1 12     LDA ($12),Y @ $0569 = #$00
 08:B416:85 15     STA $0015 = #$00
 08:B418:B1 0A     LDA ($0A),Y @ $8F06 = #$E9
 08:B41A:91 12     STA ($12),Y @ $0569 = #$00
 08:B41C:A5 15     LDA $0015 = #$00
 08:B41E:91 0A     STA ($0A),Y @ $8F06 = #$E9
 08:B420:A5 1A     LDA $001A = #$00
 08:B422:85 16     STA $0016 = #$00
 08:B424:A5 1B     LDA $001B = #$00
 08:B426:85 17     STA $0017 = #$00
 08:B428:E6 0F     INC $000F = #$05
 08:B42A:18        CLC
 08:B42B:A5 10     LDA $0010 = #$43
 08:B42D:69 02     ADC #$02
 08:B42F:85 10     STA $0010 = #$43
 08:B431:90 02     BCC $B435
 08:B433:E6 11     INC $0011 = #$05
 08:B435:E6 12     INC $0012 = #$63
 08:B437:D0 02     BNE $B43B
 08:B439:E6 13     INC $0013 = #$05
 08:B43B:A5 0F     LDA $000F = #$05
 08:B43D:4C CC B3  JMP $B3CC
 08:B440:E6 0D     INC $000D = #$05
 08:B442:18        CLC
 08:B443:A5 08     LDA $0008 = #$E9
 08:B445:69 02     ADC #$02
 08:B447:85 08     STA $0008 = #$E9
 08:B449:90 02     BCC $B44D
 08:B44B:E6 09     INC $0009 = #$00
 08:B44D:E6 0A     INC $000A = #$00
 08:B44F:D0 02     BNE $B453
 08:B451:E6 0B     INC $000B = #$8F
 08:B453:A5 0D     LDA $000D = #$05
 08:B455:4C 8E B3  JMP $B38E
 08:B458:60        RTS -----------------------------------------
 08:B459:A2 00     LDX #$00
 08:B45B:A9 CC     LDA #$CC
 08:B45D:85 1A     STA $001A = #$00
 08:B45F:A9 B9     LDA #$B9
 08:B461:85 1B     STA $001B = #$00
 08:B463:A5 0E     LDA $000E = #$A3
 08:B465:A8        TAY
 08:B466:B1 1A     LDA ($1A),Y @ $0006 = #$CD
 08:B468:AA        TAX
 08:B469:A9 D2     LDA #$D2
 08:B46B:85 1A     STA $001A = #$00
 08:B46D:A9 B9     LDA #$B9
 08:B46F:85 1B     STA $001B = #$00
 08:B471:B1 1A     LDA ($1A),Y @ $0006 = #$CD
 08:B473:F0 0B     BEQ $B480
 08:B475:8A        TXA
 08:B476:A8        TAY
 08:B477:C8        INY
 08:B478:B1 18     LDA ($18),Y @ $0006 = #$CD
 08:B47A:85 1B     STA $001B = #$00
 08:B47C:88        DEY
 08:B47D:4C 86 B4  JMP $B486
 08:B480:8A        TXA
 08:B481:A8        TAY
 08:B482:A9 00     LDA #$00
 08:B484:85 1B     STA $001B = #$00
 08:B486:B1 18     LDA ($18),Y @ $0006 = #$CD
 08:B488:85 1A     STA $001A = #$00
 08:B48A:60        RTS -----------------------------------------
 08:B48B:A2 00     LDX #$00
 08:B48D:B1 02     LDA ($02),Y @ $05CE = #$6C
 08:B48F:99 06 00  STA $0006,Y @ $000C = #$C9
 08:B492:88        DEY
 08:B493:C0 01     CPY #$01
 08:B495:D0 F6     BNE $B48D
 08:B497:60        RTS -----------------------------------------
----------------------------------------------------------------
Strings
B498 1B 43 30 1B 45 3D
B49F 1B 52 27
B4A3 "This month's orders\ncomplete "
B4C1 "Province %2d now\nplotting strategy."
B4E4 "-------"
B4EC 1B 52 2E "Gold\nRice\nGens\nSoldrs\nJoint"
B50B 1B 52 36 1B 43 33
B512 1B 52 25 1B 43 31
B519 "%6d\n%6d\n%6d\n%6d"
B529 "Def"
B52D "Atk"
B531 "%7s"
B535 "%7s"
B539 "%7s"
B53D "%7s"
B541 1B 43 30
B545 "Game is saved\W"

$B555 String pointer table
00 B565 "Threaten whom?"
01 B574 "Which ruler?"
02 B581 "Offer gold to whom?"
03 B595 "Offer your daughter to whom?"
04 B5B2 "Joint invasion with whom?"
05 B5CC "Ally with whom?"
06 B5DC "Ask whom for reinforcements?"
07 B5F9 "Do this to which two rulers?"

$B616 String pointer table
00 B636 "Spring"
01 B63D "Summer"
02 B644 "Fall"
03 B649 "Winter"

$B61E String pointer table
00 B650 "Jan"
01 B654 "Feb"
02 B658 "Mar"
03 B65C "Apr"
04 B660 "May"
05 B664 "Jun"
06 B668 "Jul"
07 B66C "Aug"
08 B670 "Sep"
09 B674 "Oct"
0A B678 "Nov"
0B B67C "Dec"

B680 "%s"
B683 "%d"
B686 1B 43 31 25 73 1B 43 30

$B68F String pointer table
00 B6A7 "Dong Zhuo"
01 B6B1 "Seizes Loyang"
02 B6BF "Rivals Struggle"
03 B6CF "for Power"
04 B6D9 "Aged Liu Bei"
05 B6E6 "Hides"
06 B6EC "Cao Cao Covets"
07 B6FB "Control of China"
08 B70C "Nation Breaks"
09 B71A "into 3 Divisions"
0A B72B "The Three-way"
0B B739 "Contest"

----------------------------------------------------------------
Function $BA00
 08:BA00:4C 9A BA  JMP $BA9A
----------------------------------------------------------------
Function $BA03
 08:BA03:68        PLA
 08:BA04:85 00     STA $0000
 08:BA06:68        PLA
 08:BA07:85 01     STA $0001
 08:BA09:A0 00     LDY #$00
 08:BA0B:B9 0A 00  LDA $000A,Y @ $0010 = #$43
 08:BA0E:48        PHA
 08:BA0F:C8        INY
 08:BA10:C0 12     CPY #$12
 08:BA12:D0 F7     BNE $BA0B
 08:BA14:A5 01     LDA $0001
 08:BA16:48        PHA
 08:BA17:A5 00     LDA $0000
 08:BA19:48        PHA
 08:BA1A:60        RTS -----------------------------------------
----------------------------------------------------------------
Function $BA1B
 08:BA1B:68        PLA
 08:BA1C:85 00     STA $0000 = #$12
 08:BA1E:68        PLA
 08:BA1F:85 01     STA $0001 = #$F4
 08:BA21:A0 11     LDY #$11
 08:BA23:68        PLA
 08:BA24:99 0A 00  STA $000A,Y @ $0010 = #$43
 08:BA27:C0 00     CPY #$00
 08:BA29:F0 04     BEQ $BA2F
 08:BA2B:88        DEY
 08:BA2C:4C 23 BA  JMP $BA23
 08:BA2F:A5 01     LDA $0001 = #$F4
 08:BA31:48        PHA
 08:BA32:A5 00     LDA $0000 = #$12
 08:BA34:48        PHA
 08:BA35:60        RTS -----------------------------------------
----------------------------------------------------------------
Function $BA36
 08:BA36:20 03 BA  JSR $BA03 -> Store values to stack behind current value
 08:BA39:A9 00     LDA #$00 
 08:BA3B:48        PHA
 08:BA3C:18        CLC
 08:BA3D:A5 1A     LDA $001A
 08:BA3F:69 01     ADC #$01
 08:BA41:48        PHA
 08:BA42:A5 09     LDA $0009
 08:BA44:48        PHA
 08:BA45:A5 08     LDA $0008
 08:BA47:48        PHA
 08:BA48:20 19 E4  JSR $E419 -> $C272 (06)
 
 08:BA4E:20 1B BA  JSR $BA1B
 08:BA51:60        RTS -----------------------------------------
----------------------------------------------------------------
Function $BA52
 08:BA52:20 03 BA  JSR $BA03 -> Store values to stack behind current value
 
 08:BA55:A0 09     LDY #$09
 08:BA57:A9 00     LDA #$00
 
 Loop:
	 08:BA59:48        PHA
	 08:BA5A:88        DEY
	 08:BA5B:D0 FC     BNE $BA59
 
 08:BA5D:A5 14     LDA $0014
 08:BA5F:48        PHA
 08:BA60:18        CLC
 08:BA61:A5 02     LDA $0002
 08:BA63:69 04     ADC #$04
 08:BA65:85 1A     STA $001A
 08:BA67:A5 03     LDA $0003
 08:BA69:69 00     ADC #$00
 08:BA6B:48        PHA
 08:BA6C:A5 1A     LDA $001A
 08:BA6E:48        PHA
 08:BA6F:18        CLC
 08:BA70:A5 02     LDA $0002
 08:BA72:69 02     ADC #$02
 08:BA74:85 1A     STA $001A
 08:BA76:A5 03     LDA $0003
 08:BA78:69 00     ADC #$00
 08:BA7A:48        PHA
 08:BA7B:A5 1A     LDA $001A
 08:BA7D:48        PHA
 08:BA7E:A9 A8     LDA #$A8
 08:BA80:48        PHA
 08:BA81:A9 57     LDA #$57
 08:BA83:48        PHA
 08:BA84:A9 00     LDA #$00
 08:BA86:48        PHA
 08:BA87:A9 E0     LDA #$E0
 08:BA89:48        PHA
 08:BA8A:A9 00     LDA #$00
 08:BA8C:48        PHA
 08:BA8D:A9 02     LDA #$02
 08:BA8F:48        PHA
 08:BA90:20 19 E4  JSR $E419 -> $F412 (16) -> E0:A857 (Return province # from map)
 
 08:BA96:20 1B BA  JSR $BA1B -> Restore stack status
 08:BA99:60        RTS -----------------------------------------
----------------------------------------------------------------
Function $BA9A -> Determines which stat needs to be retrieved to help plot the path between provinces
Args from
<00> Province
<02> Province
 
 08:BA9A:20 7A E3  JSR $E37A -> 00 ED FF
 
 08:BAA0:18        CLC
 08:BAA1:A5 04     LDA $0004
 08:BAA3:69 0B     ADC #$0B
 08:BAA5:85 1A     STA $001A
 08:BAA7:A5 05     LDA $0005
 08:BAA9:69 00     ADC #$00
 08:BAAB:85 1B     STA $001B
 08:BAAD:A0 06     LDY #$06
 08:BAAF:88        DEY
 08:BAB0:B1 1A     LDA ($1A),Y
 08:BAB2:99 0A 00  STA $000A,Y
 08:BAB5:98        TYA
 
 08:BAB6:D0 F7     BNE $BAAF
 
 08:BAB8:38        SEC
 08:BAB9:A5 02     LDA $0002
 08:BABB:E9 06     SBC #$06
 08:BABD:85 02     STA $0002
 08:BABF:A5 03     LDA $0003
 08:BAC1:E9 00     SBC #$00
 08:BAC3:85 03     STA $0003
 08:BAC5:A0 00     LDY #$00
 08:BAC7:A9 00     LDA #$00
 08:BAC9:91 02     STA ($02),Y
 08:BACB:C8        INY
 08:BACC:C0 06     CPY #$06
 08:BACE:D0 F9     BNE $BAC9
 
 08:BAD0:A0 9C     LDY #$9C
 08:BAD2:A9 FA     LDA #$FA
 08:BAD4:88        DEY
 08:BAD5:99 63 78  STA $7863,Y
 08:BAD8:D0 FA     BNE $BAD4
 
 08:BADA:A2 00     LDX #$00
 
 08:BADC:A5 0A     LDA $000A
 08:BADE:85 08     STA $0008
 08:BAE0:A5 0B     LDA $000B
 08:BAE2:85 09     STA $0009
 08:BAE4:86 1A     STX $001A 
 08:BAE6:20 36 BA  JSR $BA36
 08:BAE9:A6 1A     LDX $001A
 08:BAEB:A5 08     LDA $0008
 08:BAED:95 18     STA $18,X
 08:BAEF:E8        INX
 08:BAF0:E0 02     CPX #$02
 08:BAF2:D0 E8     BNE $BADC
 
 08:BAF4:18        CLC
 08:BAF5:A9 26     LDA #$26
 08:BAF7:85 10     STA $0010
 08:BAF9:69 01     ADC #$01
 08:BAFB:85 12     STA $0012
 08:BAFD:A9 79     LDA #$79
 08:BAFF:85 11     STA $0011
 08:BB01:69 00     ADC #$00
 08:BB03:85 13     STA $0013
 08:BB05:A5 0C     LDA $000C
 08:BB07:85 08     STA $0008
 08:BB09:A5 0D     LDA $000D
 08:BB0B:85 09     STA $0009
 08:BB0D:A9 00     LDA #$00
 08:BB0F:85 1A     STA $001A
 08:BB11:20 36 BA  JSR $BA36
 08:BB14:A5 08     LDA $0008
 08:BB16:85 1B     STA $001B
 08:BB18:A5 0C     LDA $000C
 08:BB1A:85 08     STA $0008
 08:BB1C:A5 0D     LDA $000D
 08:BB1E:85 09     STA $0009
 08:BB20:E6 1A     INC $001A
 08:BB22:20 36 BA  JSR $BA36
 08:BB25:A5 08     LDA $0008
 08:BB27:8D 05 52  STA $5205
 08:BB2A:A9 08     LDA #$08
 08:BB2C:8D 06 52  STA $5206
 08:BB2F:A2 00     LDX #$00
 08:BB31:18        CLC
 08:BB32:AD 05 52  LDA $5205
 08:BB35:65 1B     ADC $001B
 08:BB37:81 10     STA ($10,X)
 08:BB39:A8        TAY
 08:BB3A:A9 00     LDA #$00
 08:BB3C:99 63 78  STA $7863,Y
 08:BB3F:A5 10     LDA $0010
 08:BB41:C5 12     CMP $0012
 
 08:BB43:D0 09     BNE $BB4E
 
 08:BB45:A5 11     LDA $0011 = #$05
 08:BB47:C5 13     CMP $0013 = #$05
 
 08:BB49:D0 03     BNE $BB4E
 
 08:BB4B:4C C0 BC  JMP $BCC0
 
 08:BB4E:A2 00     LDX #$00
 08:BB50:A1 10     LDA ($10,X)
 08:BB52:29 07     AND #$07
 08:BB54:A0 00     LDY #$00
 08:BB56:91 02     STA ($02),Y
 08:BB58:A1 10     LDA ($10,X)
 08:BB5A:4A        LSR
 08:BB5B:4A        LSR
 08:BB5C:4A        LSR
 08:BB5D:A0 01     LDY #$01
 08:BB5F:91 02     STA ($02),Y
 08:BB61:A1 10     LDA ($10,X)
 08:BB63:A8        TAY
 08:BB64:B9 63 78  LDA $7863,Y
 08:BB67:85 0F     STA $000F
 08:BB69:A9 00     LDA #$00
 08:BB6B:85 14     STA $0014
 08:BB6D:38        SEC
 08:BB6E:A9 06     LDA #$06
 08:BB70:E5 14     SBC $0014
 
 08:BB72:D0 03     BNE $BB77
 08:BB74:4C 8B BC  JMP $BC8B
 
 08:BB77:A0 00     LDY #$00
 08:BB79:B1 02     LDA ($02),Y
 08:BB7B:A0 02     LDY #$02
 08:BB7D:91 02     STA ($02),Y
 08:BB7F:A0 01     LDY #$01
 08:BB81:B1 02     LDA ($02),Y
 08:BB83:A0 04     LDY #$04
 08:BB85:91 02     STA ($02),Y
 08:BB87:20 52 BA  JSR $BA52
 08:BB8A:A5 08     LDA $0008
 08:BB8C:C9 FF     CMP #$FF
 
 08:BB8E:D0 03     BNE $BB93
 08:BB90:4C 81 BC  JMP $BC81
 
 08:BB93:A5 0E     LDA $000E
 
 08:BB95:F0 1D     BEQ $BBB4
 
 08:BB97:A0 02     LDY #$02
 08:BB99:B1 02     LDA ($02),Y
 08:BB9B:C5 18     CMP $0018
 
 08:BB9D:D0 15     BNE $BBB4
 
 08:BB9F:A0 04     LDY #$04
 08:BBA1:B1 02     LDA ($02),Y
 08:BBA3:C5 19     CMP $0019
 
 08:BBA5:D0 0D     BNE $BBB4
 
 08:BBA7:A0 E9     LDY #$E9
 08:BBA9:A9 00     LDA #$00
 
 08:BBAB:88        DEY
 08:BBAC:99 26 79  STA $7926,Y
 
 08:BBAF:D0 FA     BNE $BBAB
 08:BBB1:4C C0 BC  JMP $BCC0	
 
 08:BBB4:A0 04     LDY #$04
 08:BBB6:B1 02     LDA ($02),Y
 08:BBB8:8D 05 52  STA $5205
 08:BBBB:A9 08     LDA #$08
 08:BBBD:8D 06 52  STA $5206
 08:BBC0:18        CLC
 08:BBC1:AD 05 52  LDA $5205
 08:BBC4:A0 02     LDY #$02
 08:BBC6:71 02     ADC ($02),Y
 08:BBC8:85 15     STA $0015
 08:BBCA:18        CLC
 08:BBCB:A9 63     LDA #$63
 08:BBCD:65 15     ADC $0015
 08:BBCF:85 16     STA $0016
 08:BBD1:A9 78     LDA #$78
 08:BBD3:69 00     ADC #$00
 08:BBD5:85 17     STA $0017
 08:BBD7:A2 00     LDX #$00
 08:BBD9:A1 16     LDA ($16,X)
 08:BBDB:C9 FA     CMP #$FA
 
 08:BBDD:F0 03     BEQ $BBE2
 08:BBDF:4C 81 BC  JMP $BC81

 08:BBE2:18        CLC
 08:BBE3:A5 0F     LDA $000F
 08:BBE5:69 01     ADC #$01
 08:BBE7:A2 00     LDX #$00
 08:BBE9:81 16     STA ($16,X)
 08:BBEB:38        SEC
 08:BBEC:A5 12     LDA $0012
 08:BBEE:85 0A     STA $000A
 08:BBF0:E9 01     SBC #$01
 08:BBF2:85 0C     STA $000C
 08:BBF4:A5 13     LDA $0013
 08:BBF6:85 0B     STA $000B
 08:BBF8:E9 00     SBC #$00
 08:BBFA:85 0D     STA $000D
 08:BBFC:A9 79     LDA #$79
 08:BBFE:C5 0D     CMP $000D
 
 08:BC00:90 17     BCC $BC19
 08:BC02:D0 08     BNE $BC0C
 
 08:BC04:A9 26     LDA #$26
 08:BC06:C5 0C     CMP $000C
 
 08:BC08:90 0F     BCC $BC19
 08:BC0A:F0 0D     BEQ $BC19
 
 08:BC0C:18        CLC
 08:BC0D:A9 26     LDA #$26
 08:BC0F:69 47     ADC #$47
 08:BC11:85 0C     STA $000C
 08:BC13:A9 79     LDA #$79
 08:BC15:69 00     ADC #$00
 08:BC17:85 0D     STA $000D
 
 08:BC19:A2 00     LDX #$00
 08:BC1B:A1 0C     LDA ($0C,X)
 08:BC1D:81 0A     STA ($0A,X)
 08:BC1F:A2 00     LDX #$00
 08:BC21:18        CLC
 08:BC22:A1 0C     LDA ($0C,X)
 08:BC24:69 63     ADC #$63
 08:BC26:85 1A     STA $001A
 08:BC28:A9 78     LDA #$78
 08:BC2A:69 00     ADC #$00
 08:BC2C:85 1B     STA $001B
 08:BC2E:A1 16     LDA ($16,X)
 08:BC30:C1 1A     CMP ($1A,X)
 
 08:BC32:90 07     BCC $BC3B
 
 08:BC34:A5 15     LDA $0015
 08:BC36:81 0A     STA ($0A,X)
 
 08:BC38:4C 4F BC  JMP $BC4F
 
 08:BC3B:38        SEC
 08:BC3C:A5 0C     LDA $000C
 08:BC3E:85 0A     STA $000A
 08:BC40:E9 01     SBC #$01
 08:BC42:85 0C     STA $000C
 08:BC44:A5 0D     LDA $000D
 08:BC46:85 0B     STA $000B
 08:BC48:E9 00     SBC #$00
 08:BC4A:85 0D     STA $000D
 
 08:BC4C:4C FC BB  JMP $BBFC
 
 08:BC4F:18        CLC
 08:BC50:A5 12     LDA $0012
 08:BC52:69 01     ADC #$01
 08:BC54:85 12     STA $0012
 08:BC56:A5 13     LDA $0013
 08:BC58:69 00     ADC #$00
 08:BC5A:85 13     STA $0013
 08:BC5C:18        CLC
 08:BC5D:A9 26     LDA #$26
 08:BC5F:69 48     ADC #$48
 08:BC61:85 1A     STA $001A
 08:BC63:A9 79     LDA #$79
 08:BC65:69 00     ADC #$00
 08:BC67:85 1B     STA $001B
 08:BC69:38        SEC
 08:BC6A:A5 13     LDA $0013
 08:BC6C:E5 1B     SBC $001B
 
 08:BC6E:90 11     BCC $BC81
 08:BC70:D0 07     BNE $BC79
 
 08:BC72:38        SEC
 08:BC73:A5 12     LDA $0012
 08:BC75:E5 1A     SBC $001A
 
 08:BC77:90 08     BCC $BC81
 
 08:BC79:A9 26     LDA #$26
 08:BC7B:85 12     STA $0012
 08:BC7D:A9 79     LDA #$79
 08:BC7F:85 13     STA $0013
 
 08:BC81:18        CLC
 08:BC82:A5 14     LDA $0014
 08:BC84:69 01     ADC #$01
 08:BC86:85 14     STA $0014
 
 08:BC88:4C 6D BB  JMP $BB6D
 
 08:BC8B:18        CLC
 08:BC8C:A5 10     LDA $0010
 08:BC8E:69 01     ADC #$01
 08:BC90:85 10     STA $0010
 08:BC92:A5 11     LDA $0011
 08:BC94:69 00     ADC #$00
 08:BC96:85 11     STA $0011
 08:BC98:18        CLC
 08:BC99:A9 26     LDA #$26
 08:BC9B:69 48     ADC #$48
 08:BC9D:85 1A     STA $001A
 08:BC9F:A9 79     LDA #$79
 08:BCA1:69 00     ADC #$00
 08:BCA3:85 1B     STA $001B
 08:BCA5:38        SEC
 08:BCA6:A5 11     LDA $0011
 08:BCA8:E5 1B     SBC $001B
 
 08:BCAA:90 11     BCC $BCBD
 
 08:BCAC:D0 07     BNE $BCB5
 
 08:BCAE:38        SEC
 08:BCAF:A5 10     LDA $0010
 08:BCB1:E5 1A     SBC $001A
 
 08:BCB3:90 08     BCC $BCBD
 
 08:BCB5:A9 26     LDA #$26
 08:BCB7:85 10     STA $0010
 08:BCB9:A9 79     LDA #$79
 08:BCBB:85 11     STA $0011
 
 08:BCBD:4C 3F BB  JMP $BB3F
 
 Restore stack?
 
 08:BCC0:18        CLC
 08:BCC1:A5 02     LDA $0002
 08:BCC3:69 06     ADC #$06
 08:BCC5:85 02     STA $0002
 08:BCC7:A5 03     LDA $0003
 08:BCC9:69 00     ADC #$00
 08:BCCB:85 03     STA $0003
 08:BCCD:60        RTS -----------------------------------------
----------------------------------------------------------------
Function $BCCE -> Generates movement path from active province to Province <00>
Args
<00> Pointer to blank char array
<02> Province

 08:BCCE:20 7A E3  JSR $E37A (00 F8 FF)

 08:BCD4:48        PHA
 08:BCD5:98        TYA
 08:BCD6:48        PHA
 
 08:BCD7:A0 0E     LDY #$0E
 08:BCD9:B1 04     LDA ($04),Y
 08:BCDB:48        PHA
 08:BCDC:88        DEY
 08:BCDD:B1 04     LDA ($04),Y
 08:BCDF:48        PHA
 08:BCE0:AD 30 78  LDA $7830
 08:BCE3:48        PHA
 08:BCE4:AD 2F 78  LDA $782F
 08:BCE7:48        PHA
 08:BCE8:A9 BA     LDA #$BA
 08:BCEA:48        PHA
 08:BCEB:A9 9A     LDA #$9A
 08:BCED:48        PHA
 08:BCEE:8A        TXA
 08:BCEF:48        PHA
 08:BCF0:A9 F0     LDA #$F0
 08:BCF2:48        PHA
 08:BCF3:8A        TXA
 08:BCF4:48        PHA
 08:BCF5:A9 02     LDA #$02
 08:BCF7:48        PHA
 08:BCF8:20 19 E4  JSR $E419 -> F412 -> F0:BA9A (0E) (Active Province)

 08:BCFE:48        PHA
 08:BCFF:98        TYA
 08:BD00:48        PHA
 08:BD01:AD 30 78  LDA $7830
 08:BD04:48        PHA
 08:BD05:AD 2F 78  LDA $782F
 08:BD08:48        PHA
 08:BD09:20 19 E4  JSR $E419 -> $C272 (06)

 08:BD0F:A5 08     LDA $0008
 08:BD11:A0 FD     LDY #$FD
 08:BD13:91 06     STA ($06),Y
 
 08:BD15:8A        TXA
 08:BD16:48        PHA
 08:BD17:A9 02     LDA #$02
 08:BD19:48        PHA
 08:BD1A:AD 30 78  LDA $7830
 08:BD1D:48        PHA
 08:BD1E:AD 2F 78  LDA $782F
 08:BD21:48        PHA       / Active province
 
 08:BD22:20 19 E4  JSR $E419 -> $C272 (06)
 
 
 08:BD28:A5 08     LDA $0008
 08:BD2A:A0 FC     LDY #$FC
 08:BD2C:91 06     STA ($06),Y @ $87D3 = #$C6
 08:BD2E:18        CLC
 08:BD2F:A0 0B     LDY #$0B
 08:BD31:B1 04     LDA ($04),Y @ $05DE = #$76
 08:BD33:85 18     STA $0018 = #$00
 08:BD35:69 02     ADC #$02
 08:BD37:91 04     STA ($04),Y @ $05DE = #$76
 08:BD39:C8        INY
 08:BD3A:B1 04     LDA ($04),Y @ $05DE = #$76
 08:BD3C:85 19     STA $0019 = #$00
 08:BD3E:69 00     ADC #$00
 08:BD40:91 04     STA ($04),Y @ $05DE = #$76
 08:BD42:AD 2F 78  LDA $782F = #$00
 08:BD45:81 18     STA ($18,X) @ $0000 = #$12
 08:BD47:AD 30 78  LDA $7830 = #$00
 08:BD4A:A0 01     LDY #$01
 08:BD4C:91 18     STA ($18),Y @ $0006 = #$CD
 08:BD4E:A9 FA     LDA #$FA
 08:BD50:A0 F9     LDY #$F9
 08:BD52:91 06     STA ($06),Y @ $87D3 = #$C6
 08:BD54:A9 B3     LDA #$B3
 08:BD56:48        PHA
 08:BD57:A9 2A     LDA #$2A
 08:BD59:48        PHA
 08:BD5A:8A        TXA
 08:BD5B:48        PHA
 08:BD5C:A9 F0     LDA #$F0
 08:BD5E:48        PHA
 08:BD5F:8A        TXA
 08:BD60:48        PHA
 08:BD61:A9 02     LDA #$02
 08:BD63:48        PHA
 08:BD64:20 19 E4  JSR $E419 -> $F412 -> F0:B32A (08)

 08:BD6A:A0 FB     LDY #$FB
 08:BD6C:91 06     STA ($06),Y
 08:BD6E:4C 7D BD  JMP $BD7D
 
 08:BD71:18        CLC
 08:BD72:A9 01     LDA #$01
 08:BD74:A0 FB     LDY #$FB
 08:BD76:71 06     ADC ($06),Y @ $87D3 = #$C6
 08:BD78:91 06     STA ($06),Y @ $87D3 = #$C6
 08:BD7A:8A        TXA
 08:BD7B:69 00     ADC #$00
 
 08:BD7D:A0 FB     LDY #$FB
 08:BD7F:B1 06     LDA ($06),Y @ $87D3 = #$C6
 08:BD81:85 18     STA $0018 = #$00
 08:BD83:86 19     STX $0019 = #$00
 08:BD85:A5 18     LDA $0018 = #$00
 08:BD87:C9 06     CMP #$06
 08:BD89:A5 19     LDA $0019 = #$00
 08:BD8B:E9 00     SBC #$00
 08:BD8D:90 03     BCC $BD92
 08:BD8F:4C 87 BE  JMP $BE87
 08:BD92:A0 FD     LDY #$FD
 08:BD94:B1 06     LDA ($06),Y @ $87D3 = #$C6
 08:BD96:A0 FF     LDY #$FF
 08:BD98:91 06     STA ($06),Y @ $87D3 = #$C6
 08:BD9A:A0 FC     LDY #$FC
 08:BD9C:B1 06     LDA ($06),Y @ $87D3 = #$C6
 08:BD9E:A0 FE     LDY #$FE
 08:BDA0:91 06     STA ($06),Y @ $87D3 = #$C6
 08:BDA2:A0 FB     LDY #$FB
 08:BDA4:B1 06     LDA ($06),Y @ $87D3 = #$C6
 08:BDA6:85 18     STA $0018 = #$00
 08:BDA8:86 19     STX $0019 = #$00
 08:BDAA:18        CLC
 08:BDAB:A5 18     LDA $0018 = #$00
 08:BDAD:69 FF     ADC #$FF
 08:BDAF:85 14     STA $0014 = #$0A
 08:BDB1:A5 19     LDA $0019 = #$00
 08:BDB3:69 78     ADC #$78
 08:BDB5:85 15     STA $0015 = #$00
 08:BDB7:A1 14     LDA ($14,X) @ $0000 = #$12
 08:BDB9:85 18     STA $0018 = #$00
 08:BDBB:86 19     STX $0019 = #$00
 08:BDBD:A5 19     LDA $0019 = #$00
 08:BDBF:48        PHA
 08:BDC0:A5 18     LDA $0018 = #$00
 08:BDC2:48        PHA
 08:BDC3:18        CLC
 08:BDC4:A9 FE     LDA #$FE
 08:BDC6:65 06     ADC $0006 = #$CD
 08:BDC8:85 18     STA $0018 = #$00
 08:BDCA:8A        TXA
 08:BDCB:65 07     ADC $0007 = #$87
 08:BDCD:85 19     STA $0019 = #$00
 08:BDCF:A5 19     LDA $0019 = #$00
 08:BDD1:48        PHA
 08:BDD2:A5 18     LDA $0018 = #$00
 08:BDD4:48        PHA
 08:BDD5:18        CLC
 08:BDD6:A9 FF     LDA #$FF
 08:BDD8:65 06     ADC $0006
 08:BDDA:85 18     STA $0018
 08:BDDC:8A        TXA
 08:BDDD:65 07     ADC $0007
 08:BDDF:85 19     STA $0019
 08:BDE1:A5 19     LDA $0019
 08:BDE3:48        PHA
 08:BDE4:A5 18     LDA $0018
 08:BDE6:48        PHA
 08:BDE7:A9 A8     LDA #$A8
 08:BDE9:48        PHA
 08:BDEA:A9 57     LDA #$57
 08:BDEC:48        PHA
 08:BDED:8A        TXA
 08:BDEE:48        PHA
 08:BDEF:A9 E0     LDA #$E0
 08:BDF1:48        PHA
 08:BDF2:8A        TXA
 08:BDF3:48        PHA
 08:BDF4:A9 02     LDA #$02
 08:BDF6:48        PHA
 08:BDF7:20 19 E4  JSR $E419 -> F412 : E0:A857 (0E) (return province # from map)

 08:BDFD:A5 08     LDA $0008
 08:BDFF:C9 FF     CMP #$FF
 08:BE01:D0 04     BNE $BE07
 08:BE03:A5 09     LDA $0009
 08:BE05:C9 00     CMP #$00
 08:BE07:D0 03     BNE $BE0C
 08:BE09:4C 84 BE  JMP $BE84
 08:BE0C:A0 FF     LDY #$FF
 08:BE0E:B1 06     LDA ($06),Y @ $87D3 = #$C6
 08:BE10:85 18     STA $0018 = #$00
 08:BE12:86 19     STX $0019 = #$00
 08:BE14:A9 03     LDA #$03
 08:BE16:85 14     STA $0014 = #$0A
 08:BE18:86 15     STX $0015 = #$00
 08:BE1A:88        DEY
 08:BE1B:B1 06     LDA ($06),Y @ $87D3 = #$C6
 08:BE1D:85 10     STA $0010 = #$43
 08:BE1F:86 11     STX $0011 = #$05
 08:BE21:A0 10     LDY #$10
 08:BE23:A2 14     LDX #$14
 08:BE25:A9 0C     LDA #$0C
 08:BE27:20 0E D7  JSR $D70E
 08:BE2A:18        CLC
 08:BE2B:A5 0C     LDA $000C = #$C9
 08:BE2D:65 18     ADC $0018 = #$00
 08:BE2F:85 14     STA $0014 = #$0A
 08:BE31:A5 0D     LDA $000D = #$05
 08:BE33:65 19     ADC $0019 = #$00
 08:BE35:85 15     STA $0015 = #$00
 08:BE37:18        CLC
 08:BE38:A5 14     LDA $0014 = #$0A
 08:BE3A:69 63     ADC #$63
 08:BE3C:85 18     STA $0018 = #$00
 08:BE3E:A5 15     LDA $0015 = #$00
 08:BE40:69 78     ADC #$78
 08:BE42:85 19     STA $0019 = #$00
 08:BE44:A1 18     LDA ($18,X) @ $0000 = #$12
 08:BE46:A0 F8     LDY #$F8
 08:BE48:91 06     STA ($06),Y @ $87D3 = #$C6
 08:BE4A:C8        INY
 08:BE4B:B1 06     LDA ($06),Y @ $87D3 = #$C6
 08:BE4D:85 18     STA $0018 = #$00
 08:BE4F:86 19     STX $0019 = #$00
 08:BE51:88        DEY
 08:BE52:B1 06     LDA ($06),Y @ $87D3 = #$C6
 08:BE54:85 14     STA $0014 = #$0A
 08:BE56:86 15     STX $0015 = #$00
 08:BE58:A5 14     LDA $0014 = #$0A
 08:BE5A:C5 18     CMP $0018 = #$00
 08:BE5C:A5 15     LDA $0015 = #$00
 08:BE5E:E5 19     SBC $0019 = #$00
 08:BE60:90 03     BCC $BE65
 08:BE62:4C 84 BE  JMP $BE84
 08:BE65:B1 06     LDA ($06),Y @ $87D3 = #$C6
 08:BE67:C8        INY
 08:BE68:91 06     STA ($06),Y @ $87D3 = #$C6
 08:BE6A:A0 FB     LDY #$FB
 08:BE6C:B1 06     LDA ($06),Y @ $87D3 = #$C6
 08:BE6E:85 18     STA $0018 = #$00
 08:BE70:86 19     STX $0019 = #$00
 08:BE72:18        CLC
 08:BE73:A5 18     LDA $0018 = #$00
 08:BE75:69 FF     ADC #$FF
 08:BE77:85 14     STA $0014 = #$0A
 08:BE79:A5 19     LDA $0019 = #$00
 08:BE7B:69 78     ADC #$78
 08:BE7D:85 15     STA $0015 = #$00
 08:BE7F:A1 14     LDA ($14,X) @ $0000 = #$12
 08:BE81:88        DEY
 08:BE82:91 06     STA ($06),Y @ $87D3 = #$C6
 08:BE84:4C 71 BD  JMP $BD71
 08:BE87:18        CLC
 08:BE88:A0 0B     LDY #$0B
 08:BE8A:B1 04     LDA ($04),Y @ $05DE = #$76
 08:BE8C:85 18     STA $0018 = #$00
 08:BE8E:69 02     ADC #$02
 08:BE90:91 04     STA ($04),Y @ $05DE = #$76
 08:BE92:C8        INY
 08:BE93:B1 04     LDA ($04),Y @ $05DE = #$76
 08:BE95:85 19     STA $0019 = #$00
 08:BE97:69 00     ADC #$00
 08:BE99:91 04     STA ($04),Y @ $05DE = #$76
 08:BE9B:A2 18     LDX #$18
 08:BE9D:20 76 E4  JSR $E476
 08:BEA0:A0 FA     LDY #$FA
 08:BEA2:B1 06     LDA ($06),Y @ $87D3 = #$C6
 08:BEA4:85 18     STA $0018 = #$00
 08:BEA6:86 19     STX $0019 = #$00
 08:BEA8:A5 19     LDA $0019 = #$00
 08:BEAA:48        PHA
 08:BEAB:A5 18     LDA $0018 = #$00
 08:BEAD:48        PHA
 08:BEAE:18        CLC
 08:BEAF:A9 FC     LDA #$FC
 08:BEB1:65 06     ADC $0006 = #$CD
 08:BEB3:85 18     STA $0018 = #$00
 08:BEB5:8A        TXA
 08:BEB6:65 07     ADC $0007 = #$87
 08:BEB8:85 19     STA $0019 = #$00
 08:BEBA:A5 19     LDA $0019 = #$00
 08:BEBC:48        PHA
 08:BEBD:A5 18     LDA $0018 = #$00
 08:BEBF:48        PHA
 08:BEC0:18        CLC
 08:BEC1:A9 FD     LDA #$FD
 08:BEC3:65 06     ADC $0006 = #$CD
 08:BEC5:85 18     STA $0018 = #$00
 08:BEC7:8A        TXA
 08:BEC8:65 07     ADC $0007 = #$87
 08:BECA:85 19     STA $0019 = #$00
 08:BECC:A5 19     LDA $0019 = #$00
 08:BECE:48        PHA
 08:BECF:A5 18     LDA $0018 = #$00
 08:BED1:48        PHA
 08:BED2:A9 A8     LDA #$A8
 08:BED4:48        PHA
 08:BED5:A9 57     LDA #$57
 08:BED7:48        PHA
 08:BED8:8A        TXA
 08:BED9:48        PHA
 08:BEDA:A9 E0     LDA #$E0
 08:BEDC:48        PHA
 08:BEDD:8A        TXA
 08:BEDE:48        PHA
 08:BEDF:A9 02     LDA #$02
 08:BEE1:48        PHA
 08:BEE2:20 19 E4  JSR $E419
 08:BEE5:12        UNDEFINED
 08:BEE6:F4        UNDEFINED
 08:BEE7:0E A5 09  ASL $09A5 = #$F9
 08:BEEA:48        PHA
 08:BEEB:A5 08     LDA $0008 = #$E9
 08:BEED:48        PHA
 08:BEEE:20 19 E4  JSR $E419
 08:BEF1:E2        UNDEFINED
 08:BEF2:E1 04     SBC ($04,X) @ $87CD = #$0A
 08:BEF4:A2 18     LDX #$18
 08:BEF6:20 9B E4  JSR $E49B
 08:BEF9:A5 08     LDA $0008 = #$E9
 08:BEFB:81 18     STA ($18,X) @ $0000 = #$12
 08:BEFD:A5 09     LDA $0009 = #$00
 08:BEFF:91 18     STA ($18),Y @ $0006 = #$CD
 08:BF01:A0 FD     LDY #$FD
 08:BF03:B1 06     LDA ($06),Y @ $87D3 = #$C6
 08:BF05:85 18     STA $0018 = #$00
 08:BF07:86 19     STX $0019 = #$00
 08:BF09:A9 03     LDA #$03
 08:BF0B:85 14     STA $0014 = #$0A
 08:BF0D:86 15     STX $0015 = #$00
 08:BF0F:88        DEY
 08:BF10:B1 06     LDA ($06),Y @ $87D3 = #$C6
 08:BF12:85 10     STA $0010 = #$43
 08:BF14:86 11     STX $0011 = #$05
 08:BF16:A0 10     LDY #$10
 08:BF18:A2 14     LDX #$14
 08:BF1A:A9 0C     LDA #$0C
 08:BF1C:20 0E D7  JSR $D70E
 08:BF1F:18        CLC
 08:BF20:A5 0C     LDA $000C = #$C9
 08:BF22:65 18     ADC $0018 = #$00
 08:BF24:85 14     STA $0014 = #$0A
 08:BF26:A5 0D     LDA $000D = #$05
 08:BF28:65 19     ADC $0019 = #$00
 08:BF2A:85 15     STA $0015 = #$00
 08:BF2C:18        CLC
 08:BF2D:A5 14     LDA $0014 = #$0A
 08:BF2F:69 63     ADC #$63
 08:BF31:85 18     STA $0018 = #$00
 08:BF33:A5 15     LDA $0015 = #$00
 08:BF35:69 78     ADC #$78
 08:BF37:85 19     STA $0019 = #$00
 08:BF39:A1 18     LDA ($18,X) @ $0000 = #$12
 08:BF3B:A0 F9     LDY #$F9
 08:BF3D:91 06     STA ($06),Y @ $87D3 = #$C6
 08:BF3F:B1 06     LDA ($06),Y @ $87D3 = #$C6
 08:BF41:85 18     STA $0018 = #$00
 08:BF43:86 19     STX $0019 = #$00
 08:BF45:A5 18     LDA $0018 = #$00
 08:BF47:05 19     ORA $0019 = #$00
 08:BF49:F0 03     BEQ $BF4E
 08:BF4B:4C 51 BF  JMP $BF51
 08:BF4E:4C 54 BF  JMP $BF54
 08:BF51:4C 54 BD  JMP $BD54
 08:BF54:60        RTS -----------------------------------------
----------------------------------------------------------------