Page ED
ROM: 0x1A010-0x1C00F
----------------------------------------------------
     00 01 02 03 04 05 06 07 08 09 0A 0B 0C 0D 0E 0F
8000 4C 03 80 

8000 JMP $8003 (Main function)
----------------------------------------------------
     00 01 02 03 04 05 06 07 08 09 0A 0B 0C 0D 0E 0F
8000          20 D1 E4 FE FF 62 64 E9 E6 EE 04 2B 8E
8010 EE 00 62 63 E9 E6 EE 06 AC 35 82 3B 62 63 E9 E6
8020 EE 06 CF 

Function $8003 (FE FF)

8008 62
8009 64
800A E9 E6 EE 04 / Call $EEE6 -> Sysop 0x04 (Get Page of RAM Bank 02)
800E 2B

800F 8E EE 00
8012 62
8013 63
8014 E9 E6 EE 06 / Call $EEE6 -> Sysop 0x03 (Set RAM Bank to Page EE)

8018 AC 35 82    / Call $8235

801B 3B
801C 62
801D 63
801E E9 E6 EE 06 / Call $EEE6 -> Sysop 0x03 (Restore RAM Bank 02)

8022 CF
----------------------------------------------------
     00 01 02 03 04 05 06 07 08 09 0A 0B 0C 0D 0E 0F
8020          20 D1 E4 FD FF 8A 31 60 2B 40 A2 FD FF
8030 D6 5C 80 0B 8F 13 B0 8B FF C1 D8 4E 80 A0 0B 00
8040 B3 61 3B E9 5F C0 04 B4 C0 D8 4E 80 0B CF A0 FD
8050 FF D0 A2 FD FF D1 0B 8F 15 2B 8F EB A0 FD FF 8C
8060 D7 00 C6 D7 33 80 40 CF 

Function $8023 (FD FF)

8028 8A 31 60    / $6031
802B 2B

802C 40
802D A2 FD FF

8030 D6 5C 80

Loop:
	8033 0B
	8034 8F 13
	8036 B0
	8037 8B FF
	8039 C1
	803A D8 4E 80

	803D A0 0B 00
	8040 B3
	8041 61
	8042 3B
	8043 E9 5F C0 04 / Call $C05F (Get ID of general)
	8047 B4
	8048 C0
	8049 D8 4E 80

		804C 0B
		804D CF

	804E A0 FD FF
	8051 D0
	8052 A2 FD FF
	8055 D1
	8056 0B
	8057 8F 15
	8059 2B
	805A 8F EB

Bounds check:
	805C A0 FD FF
	805F 8C D7 00
	8062 C6
	8063 D7 33 80

8066 40
8067 CF
----------------------------------------------------
     00 01 02 03 04 05 06 07 08 09 0A 0B 0C 0D 0E 0F
8060                         20 D1 E4 F7 FF 40 A2 FE
8070 FF 40 85 F9 40 D6 FB 80 A0 FF FF B3 3C 8E CD A8
8080 8E E0 00 62 E9 12 F4 0A A2 FB FF 8C FF 00 C1 D8
8090 F7 80 A0 FB FF 8B 19 B5 8C F4 73 BB 85 F7 87 F7
80A0 E9 BA D8 02 D7 AB 80 41 D6 AC 80 40 D8 B4 80 89
80B0 14 D6 BC 80 87 F7 E9 BA D8 02 76 D3 A2 FD FF A0
80C0 FE FF B3 A0 FD FF B3 81 F7 8F 15 D3 51 BE B4 BB
80D0 D0 A2 FC FF B4 C8 D8 F7 80 8D 64 E9 C5 D7 02 8B
80E0 32 C6 D8 E9 80 41 D6 EA 80 40 D8 F7 80 A0 FC FF
80F0 A2 FE FF 81 F7 85 F9 A0 FF FF D0 A2 FF FF A0 FF
8100 FF 56 C6 D7 78 80 81 F9 CF 
----------------------------------------------------
     00 01 02 03 04 05 06 07 08 09 0A 0B 0C 0D 0E 0F
8100                            20 D1 E4 FC FF 0D B0
8110 2B 3D 0C 76 B0 B3 8E C7 BA 8E E0 00 62 E9 12 F4
8120 0A 2A 0A D7 2C 81 0C 76 B3 D6 2D 81 3A 0B B1 CF
----------------------------------------------------
     00 01 02 03 04 05 06 07 08 09 0A 0B 0C 0D 0E 0F
8130 20 D1 E4 00 00 AC 3B 97 AC 95 9D AC 96 9B CF 

Function $8130 (00 00)

8135 AC 3B 97    / Call $973B
8138 AC 95 9D    / Call $9D95
813B AC 96 9B    / CAll $9B96

     00 01 02 03 04 05 06 07 08 09 0A 0B 0C 0D 0E 0F
8130 20 D1 E4 00 00 AC 3B 97 AC 95 9D AC 96 9B CF 
----------------------------------------------------
     00 01 02 03 04 05 06 07 08 09 0A 0B 0C 0D 0E 0F
8130                                              20
8140 D1 E4 00 00 A0 0B 00 D5 00 00 04 00 6F 81 56 81
8150 8E 81 AE 81 A8 81 AC 1B 96 8E FF 00 69 8E 3B 78
8160 E9 95 F3 06 8E FF 00 69 8E 32 78 E9 95 F3 06 A0
8170 0B 00 52 C6 D8 7F 81 A0 0B 00 B3 E9 18 93 02 A0
8180 0B 00 51 DA D7 8A 81 AC 8B 8C AC 90 93 CF A5 3B
8190 78 8C FF 00 C1 D8 9E 81 AC C8 90 D6 6F 81 A5 32
81A0 78 8C FF 00 C1 D8 6F 81 AC B7 90 D6 6F 81 AC 3C
81B0 95 AC C8 90 D6 A8 81 
----------------------------------------------------
     00 01 02 03 04 05 06 07 08 09 0A 0B 0C 0D 0E 0F
81B0                      20 D1 E4 00 00 AC 35 89 AC
81C0 18 A1 CF 

Function $81B7 (00 00)

81BC AC 35 89 / Call $8935
81BF AC 18 A1 / Call $A118
----------------------------------------------------
     00 01 02 03 04 05 06 07 08 09 0A 0B 0C 0D 0E 0F
81C0          20 D1 E4 F9 FF 8A F4 73 2B 3B E9 BA D8
81D0 02 85 FB 40 A2 FD FF D6 19 82 3B E9 BA D8 02 D7
81E0 E6 81 41 D6 E7 81 40 D7 FC 81 0B 7F D3 8C FF 00
81F0 C1 D8 F8 81 41 D6 F9 81 40 D8 FE 81 40 CF 3B E9
8200 BA D8 02 83 FB C1 D8 0B 82 40 CF A0 FD FF D0 A2
8210 FD FF D1 0B 8F 19 2B 8F E7 A0 FD FF 8B 29 C6 D7
8220 DA 81 41 CF 

Function $81C3 (F9 FF)
Loops through province list

81C8 8A F4 73    /
81CB 2B          / Array of provinces

81CC 3B          / 
81CD E9 BA D8 02 / 
81D1 85 FB       / FB = nation of current province
81D3 40          /
81D4 A2 FD FF    / FD = 0
81D7 D6 19 82

LOOP
	81DA 3B          
	81DB E9 BA D8 02 / nation of current province
	81DF D7 E6 81

	81E2 41
	81E3 D6 E7 81

	81E6 40

	81E7 D7 FC 81

	81EA 0B
	81EB 7F
	81EC D3          / ? of current province
	81ED 8C FF 00
	81F0 C1
	81F1 D8 F8 81
	
	81F4 41
	81F5 D6 F9 81

	81F8 40
	
	81F9 D8 FE 81
	
	81FC 40
	81FD CF
	
	81FE 3B
	81FF E9 BA D8 02 / Call $D8BA
	8203 83 FB
	8205 C1
	8206 D8 0B 82
	
	8209 40
	820A CF
	
	820B A0 FD FF
	820E D0
	820F A2 FF FF
	8212 D1
	
	8213 0B
	8214 8F 19
	8216 2B
	8217 8F E7

8219 A0 FD FF
821C 8B 29
821D C6
821E D7 DA 81

8222 41
8223 CF

     00 01 02 03 04 05 06 07 08 09 0A 0B 0C 0D 0E 0F
8200 BA D8 02 83 FB C1 D8 0B 82 40 CF A0 FD FF D0 A2
8210 FD FF D1 0B 8F 19 2B 8F E7 A0 FD FF 8B 29 C6 D7
8220 DA 81 41 CF 
----------------------------------------------------
     00 01 02 03 04 05 06 07 08 09 0A 0B 0C 0D 0E 0F
8220             20 D1 E4 00 00 8E A8 A4 8E E0 00 62
8230 E9 12 F4 06 CF 

Function $8224 (00 00) -> Display map

8229 8E A8 A4
822C 8E E0 00
822F 62
8230 E9 12 F4 06 / Call $F412 -> E0:A4A8 -> Display map
8234 CF
----------------------------------------------------
     00 01 02 03 04 05 06 07 08 09 0A 0B 0C 0D 0E 0F
8230                20 D1 E4 FE FF A5 45 78 8B 20 DA
8240 D8 44 82 CF AC C3 81 D8 50 82 AC 0C D3 AC 37 E0
8250 A5 08 60 D0 A9 08 60 5C C0 D8 67 82 A4 06 60 D0
8260 A8 06 60 40 A9 08 60 AC 71 D3 60 8E 7A A5 8E E0
8270 00 62 E9 12 F4 08 A5 08 60 D7 7F 82 AC 30 81 A5
8280 08 60 53 BA D7 94 82 A5 08 60 53 B8 B3 E9 3F 81
8290 02 AC 24 82 AC B7 81 AC 00 84 A5 45 78 8B 40 DA
82A0 D8 BC 82 8A BF 00 CD A5 45 78 DA A9 45 78 D6 BC
82B0 82 8E FD AB 8E E0 00 62 E9 12 F4 06 A5 20 79 D7
82C0 B1 82 CF 

Function $8235 (FE FF)

823A A5 45 78    /
823D 8B 20       /
823F DA          / [$7845] AND 0x20
8240 D8 44 82    /

8243 CF

8244 AC C3 81    / Call $81C3
8247 D8 50 82    /

if
	824A AC 0C D3    / Call $D30C
	824D AC 37 E0    / Call $E037 / Trigger game ending

8250 A5 08 60    
8253 D0
8254 A9 08 60
8257 5C
8258 C0
8259 D8 67 82

	825C A4 06 60
	825F D0
	8260 A8 06 60
	8263 40
	8264 A9 08 60

8267 AC 71 D3 / Call $D371

826A 60
826B 8E 7A A5
826E 8E E0 00
8271 62
8272 E9 12 F4 08 / Call $F412 -> E0:A57A

     00 01 02 03 04 05 06 07 08 09 0A 0B 0C 0D 0E 0F
8270 00 62 E9 12 F4 08 A5 08 60 D7 7F 82 AC 30 81 A5
8280 08 60 53 BA D7 94 82 A5 08 60 53 B8 B3 E9 3F 81
8290 02 AC 24 82 AC B7 81 AC 00 84 A5 45 78 8B 40 DA
82A0 D8 BC 82 8A BF 00 CD A5 45 78 DA A9 45 78 D6 BC
82B0 82 8E FD AB 8E E0 00 62 E9 12 F4 06 A5 20 79 D7
82C0 B1 82 CF 
----------------------------------------------------
     00 01 02 03 04 05 06 07 08 09 0A 0B 0C 0D 0E 0F
82C0          20 D1 E4 9E FF DE A2 FF 85 A0 40 A2 FD
82D0 FF 0C 72 D6 E8 82 81 A0 72 85 A0 8F FE B3 08 B1
82E0 A0 FD FF D0 A2 FD FF 08 B0 28 08 D7 D6 82 87 A0
82F0 40 B1 A0 FD FF 52 C6 D8 FB 82 CF DE A2 FF 85 A0
8300 81 A2 7F D3 8C FF 00 C1 D8 0F 83 41 D6 10 83 40
8310 D7 1F 83 81 A2 72 B0 B3 E9 B3 D5 02 D7 20 83 CF
8320 A0 FD FF D1 A2 FD FF 81 A0 72 85 A0 A0 FD FF 52
8330 C6 D8 35 83 CF A0 FD FF D1 A2 FC FF 40 A2 FB FF
8340 D6 E4 83 81 A0 B0 72 B0 D8 5F 83 81 A0 B0 72 B0
8350 B3 8E 98 B6 8E E0 00 62 E9 12 F4 08 D6 60 83 40
8360 A2 FF FF 81 A0 72 85 9E A0 FB FF D0 A2 FA FF D6
8370 C9 83 81 9E B0 28 08 7F D3 8C FF 00 C1 D8 84 83
8380 41 D6 85 83 40 D8 8C 83 40 D6 9B 83 08 72 B0 B3
8390 8E 98 B6 8E E0 00 62 E9 12 F4 08 A2 FE FF A0 FE
83A0 FF B3 A0 FF FF B4 C6 D8 BA 83 87 9E 81 A0 B0 B1
83B0 87 A0 08 B1 A0 FE FF A2 FF FF A0 FA FF D0 A2 FA
83C0 FF D1 81 9E 72 85 9E 8F FE A0 FD FF B3 A0 FA FF
83D0 B4 C6 D7 72 83 A0 FB FF D0 A2 FB FF D1 81 A0 72
83E0 85 A0 8F FE A0 FC FF B3 A0 FB FF B4 C6 D7 43 83
83F0 DE A2 FF B3 8E 3E BD 8E E0 00 62 E9 12 F4 08 CF
----------------------------------------------------
     00 01 02 03 04 05 06 07 08 09 0A 0B 0C 0D 0E 0F
8400 20 D1 E4 F5 FF 40 A2 FF FF 8A D4 71 85 F7 8A 07
8410 78 85 FB D6 44 84 81 F7 B0 D8 34 84 81 F7 72 B0
8420 D8 34 84 81 FB 72 85 FB 8F FE B3 81 F7 B1 87 F7
8430 E9 C3 82 02 A0 FF FF D0 A2 FF FF D1 81 F7 8F 22
8440 85 F7 8F DE A0 FF FF 8B 10 C6 D7 16 84 87 FB 40
8450 B1 8A 07 78 D6 A1 84 40 85 FD 81 F7 72 D6 8F 84
8460 81 F5 7F D3 8C FF 00 C1 D8 6F 84 41 D6 70 84 40
8470 D7 8D 84 81 F5 72 B0 B3 E9 2F D9 02 5A B5 B3 87
8480 F5 E9 F0 D8 02 B4 BB CD 81 FD BB 85 FD 81 F5 B0
8490 85 F5 81 F5 D7 60 84 81 F7 7C B3 81 FD B1 81 FB
84A0 72 85 FB 81 FB B0 85 F7 D7 57 84 8A 07 78 D6 E4
84B0 84 81 FB D6 D8 84 81 F9 B0 7C B0 B3 81 FB B0 7C
84C0 B0 B4 C8 D8 D6 84 81 FB B0 85 F7 87 FB 81 F9 B0
84D0 B1 87 F9 81 F7 B1 81 F9 72 85 F9 81 F9 B0 D7 B6
84E0 84 81 FB 72 85 FB 81 FB B0 D7 B1 84 CF 
----------------------------------------------------
     00 01 02 03 04 05 06 07 08 09 0A 0B 0C 0D 0E 0F
84E0                                        20 D1 E4
84F0 FE FF 3D 3C 8E C1 AA 8E E0 00 62 E9 12 F4 0A 3D
8500 E9 A3 D8 02 2B B3 E9 E2 D4 02 D8 40 85 AC 50 D3
8510 60 0B B0 B3 E9 2D C1 04 B3 8E E0 A7 E9 8C C6 04
8520 0C 8C F4 73 BC 8B 19 B8 D0 B3 60 3D E9 2D C1 04
8530 B3 8E F0 A7 E9 8C C6 06 AC 91 D1 6A E9 43 D1 02
8540 3D 3C 8E 09 A9 8E E0 00 62 E9 12 F4 08 B3 E9 C5
8550 D7 02 D2 8C E1 7B BB B0 B3 8E 84 A7 8E E0 00 62
8560 E9 12 F4 0A CF 

Function $84ED (FE FF)
Args:
<0C>
<0D> General

84F2 3D
84F3 3C
84F4 8E C1 AA
84F7 8E E0 00
84FA 62
84FB E9 12 F4 0A / Call $F412 -> E0:AAC1 (Remove general from province)

84FF 3D
8500 E9 A3 D8 02 / Call $D8A3 -> Get general's nation
8504 2B
8505 B3
8506 E9 E2 D4 02 / Call $D4E2 -> Check if player-controlled
850A D8 40 85

850D	AC 50 D3    / Call $D350

8540

     00 01 02 03 04 05 06 07 08 09 0A 0B 0C 0D 0E 0F
8500 E9 A3 D8 02 2B B3 E9 E2 D4 02 D8 40 85 AC 50 D3
8510 60 0B B0 B3 E9 2D C1 04 B3 8E E0 A7 E9 8C C6 04
8520 0C 8C F4 73 BC 8B 19 B8 D0 B3 60 3D E9 2D C1 04
8530 B3 8E F0 A7 E9 8C C6 06 AC 91 D1 6A E9 43 D1 02
8540 3D 3C 8E 09 A9 8E E0 00 62 E9 12 F4 08 B3 E9 C5
8550 D7 02 D2 8C E1 7B BB B0 B3 8E 84 A7 8E E0 00 62
8560 E9 12 F4 0A CF 
----------------------------------------------------
     00 01 02 03 04 05 06 07 08 09 0A 0B 0C 0D 0E 0F
8560                20 D1 E4 00 00 0C 8F 18 B3 8D 50
8570 0C 8F 18 D3 B3 E9 A8 D7 04 B3 65 E9 C5 D7 02 7A
8580 B3 E9 6C F3 04 D4 CF 

Function $8565 (00 00)
Args:
<0C>

856A 0C
856B 8F 18
856D B3
856E 8D 50
8570 0C
8571 8F 18
8573 D3
8574 B3
8575 E9 A8 D7 04 / Call $D7A8
8579 B3
857A 65
857B E9 C5 D7 04 / Call $D7C5 / 
857F 7A                       / RNG 10-14
8580 B3
8681 E9 6C F3 04 / Call $F36C / Get larger of two values
8685 D4
8686 CF
----------------------------------------------------
     00 01 02 03 04 05 06 07 08 09 0A 0B 0C 0D 0E 0F
8580                      20 D1 E4 FC FF 3C 8E 09 A9
8590 8E E0 00 62 E9 12 F4 08 8A E1 7B D6 E6 85 3B E9
85A0 BA D8 02 D7 AA 85 41 D6 AB 85 40 D7 E4 85 0D 77
85B0 D3 B3 3B E9 BA D8 02 8C D4 71 BC 8B 22 B8 B4 C0
85C0 D8 E4 85 0B 7F D3 8C FF 00 C1 D8 D1 85 41 D6 D2
85D0 85 40 D7 E4 85 3D 3B 8E 33 AA 8E E0 00 62 E9 12
85E0 F4 0A 41 CF 0A 72 2A 0A B0 2B D7 9E 85 40 CF 

Function $8587 (FC FF)

858C 3C
858D 8E 09 A9
8590 8E E0 00
8593 62
8594 E9 12 F4 08 / Call $F412 -> E0:A909 (Assemble a list of adjacent provinces @ $7BE1)

8598 8A E1 7B    / $7BE1
859B D6 E6 85

Loop
859E 3B
859F E9 BA D8 02 / Call $D8BA (Get nation of province)
85A3 D7 AA 85

if
	85A6 41
	85A7 D6 AB 85
else
	85AA 40
	
85AB D7 E4 85

85AE 0D
85AF 77
85B0 D3
85B1 B3
85B2 3B
85B3 E9 BA D8 02 / Call $D8BA (Get nation of province)
85B7 8C D4 71    / $71D4
85BA BC
85BB 8B 22
85BD B8          / Nation ID
85BE B4
85BF C0
85C0 D8 E4 85

85C3 0B
85C4 7F
85C5 D3
85C6 8C FF 00
85C9 C1
85CA D8 D1 85

	85CD 41
	85CE D6 D2 85

	85D1 40

85D2 D7 E4 85

	85D5 3D
	85D6 3B
	85D7 8E 33 AA
	85DA 8E E0 00
	85DD 62
	85DE E9 12 F4 0A / Call $F412 -> E0:AA33
	85E2 41
	85E3 CF

85E4 0A
85E5 72

Bounds Check
85E6 2A
85E7 0A
85E8 B0
85E9 2B
85EA D7 9E 85

85ED 40
85EE CF
----------------------------------------------------
     00 01 02 03 04 05 06 07 08 09 0A 0B 0C 0D 0E 0F
85E0                                              20
85F0 D1 E4 FE FF 60 3D E9 19 C0 04 A2 FE FF 0D 72 D3
8600 52 DA D8 41 86 3D 0C B0 B3 8E 98 B9 8E E0 00 62
8610 E9 12 F4 0A A2 FF FF A0 FE FF B3 3D 0D 7A D3 8B
8620 22 B5 8C D4 71 BB B0 B3 8E 98 B9 8E E0 00 62 E9
8630 12 F4 0A B4 BB B3 DE FF FF B3 E9 3B D8 04 D6 80
8640 86 60 3D E9 5F C0 04 B3 60 3D E9 A3 D8 02 B0 B3
8650 E9 5F C0 04 B4 DA D8 5D 86 40 D6 7D 86 A0 FE FF
8660 B3 3D E9 A3 D8 02 B0 B3 3D 8E 98 B9 8E E0 00 62
8670 E9 12 F4 0A B4 BB 52 BE B3 89 64 B4 BC A2 FF FF
8680 A0 FF FF CF 
----------------------------------------------------
     00 01 02 03 04 05 06 07 08 09 0A 0B 0C 0D 0E 0F
8680             20 D1 E4 FA FF 0D 72 B0 29 09 B0 D6
8690 F3 86 0B B0 2A 3B 3C E9 EF 85 04 B3 8D 64 E9 C5
86A0 D7 02 B4 C6 D8 AB 86 41 D6 AC 86 40 D7 D5 86 3B
86B0 3D 8E C1 AA 8E E0 00 62 E9 12 F4 0A 3B 3D E9 87
86C0 85 04 D7 F2 86 3B 3D 8E 84 A7 8E E0 00 62 E9 12
86D0 F4 0A D6 F2 86 3C 3B 8E F5 A7 8E E0 00 62 E9 12
86E0 F4 0A 8D 64 8D 14 E9 C5 D7 02 B3 0B 78 B3 E9 02
86F0 D8 06 0A 2B 0B D7 92 86 CF 
----------------------------------------------------
     00 01 02 03 04 05 06 07 08 09 0A 0B 0C 0D 0E 0F
86F0                            20 D1 E4 FA FF 8D 32
8700 8D 10 0C 7E B3 E9 95 F3 06 0C 8C D4 71 BC 8B 22
8710 B8 A2 FD FF A0 FD FF B3 41 B4 BD CC 29 8A D4 71
8720 2B 40 A2 FC FF D6 5E 87 39 0B 7A B4 B3 B0 DA B1
8730 0B B0 D8 50 87 0B 1C C1 D8 50 87 A0 FD FF 1B BB
8740 7E B3 0B 1D C0 D8 4D 87 89 64 D6 4F 87 89 32 D4
8750 A0 FC FF D0 A2 FC FF D1 0B 8F 22 2B 8F DE A0 FC
8760 FF 8B 10 C6 D7 28 87 CF 
----------------------------------------------------
     00 01 02 03 04 05 06 07 08 09 0A 0B 0C 0D 0E 0F
8760                         20 D1 E4 00 00 0D 7E B3
8770 0C 8C D4 71 BC 8B 22 B8 D4 0D 8F 12 B3 8A FF 00
8780 D4 0D 8F 13 B3 8A FF 00 D4 8E FB 00 0D 8F 10 B4
8790 B3 D3 DA D4 CF 

Function $8768
Args:
<0C> Nation
<0D> Province

876D 0D
876E 7E
876F B3
8770 0C
8771 8C D4 71 .. / $71D4 (Nations)
8774 BC
8775 8B 22
8777 B8
8778 D4          / Province now belongs to nation

8779 0D
877A 8F 12
877C B3
877D 8A FF 00
8780 D4          / Set "Delegate-Send" to 0xFF ?

8781 0D
8782 8F 13
8784 B3
8785 8A FF 00
8788 D4          / Set "Delegate-Invade" to 0xFF ?

8789 8E FB 00
878C 0D
878D 8F 10
878F B4
8790 B3
8791 D3
8792 DA
8793 D4          / Clear Delegate flag

8794 CF
----------------------------------------------------
     00 01 02 03 04 05 06 07 08 09 0A 0B 0C 0D 0E 0F
8790                20 D1 E4 00 00 3C 0D B1 0C 74 B3
87A0 40 B1 0C 76 B3 89 32 D4 0C 77 B3 40 D4 0C 78 B3
87B0 8A FF 00 D4 0C 79 B3 8A FF 00 D4 0C 7A B3 40 B1
87C0 0C 8F 1E B3 8A FF 00 D4 0C 8F 1F B3 8A FF 00 D4
87D0 0C 8F 20 B3 8A FF 00 D4 0C 8F 21 B3 8A FF 00 D4
87E0 CF 
----------------------------------------------------
     00 01 02 03 04 05 06 07 08 09 0A 0B 0C 0D 0E 0F
87E0    20 D1 E4 FD FF 40 A2 FD FF 8A D4 71 2B D6 06
87F0 88 0B B0 D7 F8 87 0B CF A0 FD FF D0 A2 FD FF D1
8800 0B 8F 22 2B 8F DE A0 FD FF 8B 10 C6 D7 F1 87 CF

Function $87E1 -> Return the 1st nation with no ruler

Nation f_87E1()
{
}

87E6 40
87E7 A2 FD FF
87EA 8A D4 71
87ED 2B
87EE D6 06 88

loop:
	87F1 0B
	87F2 B0
	87F3 D7 F8 87

	return if it has no ruler
		87F6 0B
		87F7 CF

	87F8 A0 FD FF
	87FB D0
	87FC A2 FD FF
	87FF D1
	8800 0B
	8801 8F 22
	8803 2B
	8804 8F DE
bounds check:
	8806 A0 FD FF 
	8809 8B 10
	880B C6
	880C D7 F1 87
	
880F CF
----------------------------------------------------
     00 01 02 03 04 05 06 07 08 09 0A 0B 0C 0D 0E 0F
8810 20 D1 E4 FB FF 0D 72 D3 58 DA D8 21 88 41 D6 22
8820 88 40 A2 FB FF 3C E9 BA D8 02 2A AC E1 87 2B 3C
8830 3A 8E CE A9 8E E0 00 62 E9 12 F4 0A 0D 77 B3 0B
8840 8C D4 71 BC 8B 22 B8 D4 3D 8E E2 A6 8E E0 00 62
8850 E9 12 F4 08 0B 72 B3 40 B1 3C 3B 8E 5B A9 8E E0
8860 00 62 E9 12 F4 0A 3D 3B E9 95 87 04 3C 3B E9 68
8870 87 04 3C 3B E9 84 86 04 3A 3B E9 F9 86 04 0B 8C
8880 D4 71 BC 8B 22 B8 8C F7 77 BB B3 40 D4 A0 0F 00
8890 D7 AF 88 65 8E 3C BA 8E E0 00 62 E9 12 F4 08 61
88A0 E9 53 D1 02 8E FD AB 8E E0 00 62 E9 12 F4 06 3C
88B0 8E 2C A4 8E E0 00 62 E9 12 F4 08 AC 50 D3 A0 FB
88C0 FF D8 F8 88 60 0B B0 B3 E9 2D C1 04 B3 8E 23 A8
88D0 E9 8C C6 04 0C 8C F4 73 BC 8B 19 B8 D0 B3 8E 3D
88E0 A8 E9 8C C6 04 60 0A B0 B3 E9 2D C1 04 B3 8E 56
88F0 A8 E9 8C C6 04 D6 12 89 0C 8C F4 73 BC 8B 19 B8
8900 D0 B3 60 0B B0 B3 E9 2D C1 04 B3 8E 62 A8 E9 8C
8910 C6 06 8D 19 E9 43 D1 02 AC 50 D3 60 0C 72 B0 B3
8920 E9 2D C1 04 B3 8E 93 A8 E9 9D C6 04 AC A2 D1 6A
8930 E9 43 D1 02 CF 

Function $8810
Args:
<0C> Province
<0D>

8815 0D
8816 72
8817 D3
8818 58
8819 DA
881A D8 21 88

if
	881D 41
	881E D6 22 88
else
	8821 40

8822 A2 FB FF

8825 3C
8826 E9 BA D8 02 / Call $D8BA -> Get nation of province
882A 2A

882B AC E1 87 .. / Call $87E1
882E 2B          / Nation

882F 3C
8830 3A 
8831 8E CE A9
8834 8E E0 00
8837 62
8838 E9 12 F4 0A / Call $F412 -> E0:A9CE (Remove province from nation)

883C 0D
883D 77
883E B3
883F 0B
8840 8C D4 71 .. / $71D4 
8843 BC
8844 

     00 01 02 03 04 05 06 07 08 09 0A 0B 0C 0D 0E 0F
8830 3A 8E CE A9 8E E0 00 62 E9 12 F4 0A 0D 77 B3 0B
8840 8C D4 71 BC 8B 22 B8 D4 3D 8E E2 A6 8E E0 00 62
8850 E9 12 F4 08 0B 72 B3 40 B1 3C 3B 8E 5B A9 8E E0
8860 00 62 E9 12 F4 0A 3D 3B E9 95 87 04 3C 3B E9 68
8870 87 04 3C 3B E9 84 86 04 3A 3B E9 F9 86 04 0B 8C
8880 D4 71 BC 8B 22 B8 8C F7 77 BB B3 40 D4 A0 0F 00
8890 D7 AF 88 65 8E 3C BA 8E E0 00 62 E9 12 F4 08 61
88A0 E9 53 D1 02 8E FD AB 8E E0 00 62 E9 12 F4 06 3C
88B0 8E 2C A4 8E E0 00 62 E9 12 F4 08 AC 50 D3 A0 FB
88C0 FF D8 F8 88 60 0B B0 B3 E9 2D C1 04 B3 8E 23 A8
88D0 E9 8C C6 04 0C 8C F4 73 BC 8B 19 B8 D0 B3 8E 3D
88E0 A8 E9 8C C6 04 60 0A B0 B3 E9 2D C1 04 B3 8E 56
88F0 A8 E9 8C C6 04 D6 12 89 0C 8C F4 73 BC 8B 19 B8
8900 D0 B3 60 0B B0 B3 E9 2D C1 04 B3 8E 62 A8 E9 8C
8910 C6 06 8D 19 E9 43 D1 02 AC 50 D3 60 0C 72 B0 B3
8920 E9 2D C1 04 B3 8E 93 A8 E9 9D C6 04 AC A2 D1 6A
8930 E9 43 D1 02 CF 
----------------------------------------------------
     00 01 02 03 04 05 06 07 08 09 0A 0B 0C 0D 0E 0F
8930                20 D1 E4 F8 FF A5 44 78 5A B5 B3
8940 89 3C B4 BC A2 FA FF 40 A2 F8 FF 8A F4 73 2B 40
8950 A2 FB FF D6 66 8A 8D 77 0B 8F 10 B4 B3 D3 DA D4
8960 8E FB 00 0B 8F 11 B4 B3 D3 DA D4 3B E9 BA D8 02
8970 D8 AC 89 A0 FA FF B3 3B E9 BA D8 02 76 D3 52 BE
8980 B4 BB B3 8D 64 E9 C5 D7 02 B4 C6 D8 92 89 41 D6
8990 93 89 40 D8 A1 89 62 0B 8F 11 B4 B3 D3 DB D6 AB
89A0 89 8E FD 00 0B 8F 11 B4 B3 D3 DA D4 0B 74 D6 B8
89B0 89 60 3A E9 D6 9D 04 0A B0 2A 0A D7 B1 89 A5 09
89C0 60 8B 10 C9 D7 58 8A 3B E9 BA D8 02 D7 D3 89 41
89D0 D6 D4 89 40 D7 58 8A 0B 7F D3 8C FF 00 C1 D8 E5
89E0 89 41 D6 E6 89 40 D7 58 8A 0B 72 B0 2A 3A E9 B3
89F0 D5 02 D7 58 8A 0A 72 D3 52 DA D7 58 8A 62 3A E9
8A00 19 C0 04 B3 A5 44 78 5A B5 B4 BB 75 A2 F9 FF 60
8A10 3A E9 19 C0 04 B3 0A 78 D3 B4 BB B3 DE F9 FF B3
8A20 E9 3B D8 04 0A 72 D3 58 DA D7 43 8A A0 F9 FF B3
8A30 8D 64 E9 C5 D7 02 B4 C6 D8 3F 8A 41 D6 40 8A 40
8A40 D8 58 8A A0 F8 FF B3 3A 3B E9 10 88 06 41 A2 F8
8A50 FF A5 09 60 D0 A9 09 60 0B 8F 19 2B 8F E7 A0 FB
8A60 FF D0 A2 FB FF D1 A0 FB FF 8B 29 C6 D7 56 89 CF
----------------------------------------------------
     00 01 02 03 04 05 06 07 08 09 0A 0B 0C 0D 0E 0F
8A70 20 D1 E4 FF FF 40 D6 88 8A 61 67 E9 83 D2 04 6A
8A80 E9 59 C8 02 A0 FF FF D0 A2 FF FF A0 FF FF 56 C6
8A90 D7 79 8A CF 
----------------------------------------------------
     00 01 02 03 04 05 06 07 08 09 0A 0B 0C 0D 0E 0F
8A90             20 D1 E4 F3 FF 40 2A 8A F4 73 2B D6
8AA0 1E 8B 60 3B E9 34 C2 04 29 61 3B E9 34 C2 04 28
8AB0 0B 7E D3 A2 F5 FF 8C FF 00 C1 A2 F7 FF 0B 8F 11
8AC0 D3 8B 40 DA A2 F6 FF A0 F6 FF D8 FA 8A A0 F7 FF
8AD0 D8 F2 8A A0 F5 FF 8C 0A 60 BB D3 5F DA A2 F4 FF
8AE0 A0 F5 FF 8C 0A 60 BB D3 8C C0 00 DA 8B 2D DB D6
8AF0 00 8B 40 A2 F4 FF 40 D6 00 8B 89 38 A2 F4 FF 48
8B00 A2 F3 FF A0 F3 FF B3 A0 F4 FF B3 61 61 38 39 67
8B10 E9 E6 EE 0E 0A D0 2A D1 0B 8F 19 2B 8F E7 0A 8B
8B20 29 C6 D7 A2 8A CF 
----------------------------------------------------
     00 01 02 03 04 05 06 07 08 09 0A 0B 0C 0D 0E 0F
8B20                   20 D1 E4 FB FF AC 70 8A D6 3C
8B30 8B 8E FD AB 8E E0 00 62 E9 12 F4 06 A5 20 79 D7
8B40 31 8B 8A F4 73 85 FD 40 A2 FF FF D6 6A 8B 8E BF
8B50 00 81 FD 8F 11 B4 B3 D3 DA D4 81 FD 8F 19 85 FD
8B60 8F E7 A0 FF FF D0 A2 FF FF D1 A0 FF FF 8B 29 C6
8B70 D7 4E 8B A0 0B 00 D9 02 00 00 00 83 8B 01 00 89
8B80 8B 8F 8B 8A 3B 78 D6 A4 8B 8A 32 78 D6 A4 8B CF
8B90 8D 40 81 FB D3 8B 19 B5 8C 05 74 BB B4 B3 D3 DB
8BA0 D4 81 FB D0 85 FB 81 FB D3 8C FF 00 C1 D7 90 8B
8BB0 AC 94 8A CF 
----------------------------------------------------
     00 01 02 03 04 05 06 07 08 09 0A 0B 0C 0D 0E 0F
8BB0             20 D1 E4 FC FF 0C 8F 15 B3 8D 15 E9
8BC0 C5 D7 02 7A B3 0C 8F 15 D3 B3 E9 A8 D7 04 D4 0C
8BD0 8F 14 B3 8D 15 E9 C5 D7 02 8F 32 B3 0C 8F 14 D3
8BE0 B3 E9 A8 D7 04 D4 0C 78 B3 8D 15 E9 C5 D7 02 8F
8BF0 32 B3 0C 78 B0 B3 E9 A8 D7 04 B1 0C 7A B3 8D 15
8C00 E9 C5 D7 02 8F 32 B3 0C 7A B0 B3 E9 A8 D7 04 B1
8C10 0C 72 D6 38 8C 0B 7C B3 8D 15 E9 C5 D7 02 8F 3C
8C20 B3 0B 7C B0 B3 E9 A8 D7 04 B1 0B 7C B0 D7 37 8C
8C30 0B 8F 10 B3 89 64 D4 0B B0 2B 0B D7 15 8C 0C 7C
8C40 B0 2A 0C 7C B3 8D 15 E9 C5 D7 02 8F 3C B3 0C 7C
8C50 B0 B3 E9 A8 D7 04 D0 B1 8E 30 75 0C 7C B0 B3 0A
8C60 B4 BC B3 3C 8E 09 A9 8E E0 00 62 E9 12 F4 08 B3
8C70 E9 C5 D7 02 D2 8C E1 7B BB B0 7C B3 E9 F8 D7 06
8C80 8D 30 0C 8F 11 B4 B3 D3 DB D4 CF 
----------------------------------------------------
     00 01 02 03 04 05 06 07 08 09 0A 0B 0C 0D 0E 0F
8C80                                  20 D1 E4 FB FF
8C90 60 8D 29 8E 00 7D E9 95 F3 06 A5 44 78 55 B5 8F
8CA0 2D A2 FC FF 40 A2 FB FF 40 A2 FD FF 8A F4 73 2B
8CB0 D6 27 8D 3B E9 BA D8 02 D7 BF 8C 41 D6 C0 8C 40
8CC0 D7 19 8D 0B 7F D3 8C FF 00 C1 D8 D1 8C 41 D6 D2
8CD0 8C 40 D7 19 8D 0B 8F 11 D3 8B 30 DA D7 19 8D 0B
8CE0 8F 15 D3 53 B8 B3 A0 FC FF B4 BC B3 8D 19 E9 C5
8CF0 D7 02 B3 0B 72 B0 76 D3 B3 3B E9 BA D8 02 76 D3
8D00 B4 BB 53 B8 B4 BB B4 C6 D8 19 8D A0 FD FF 8C 00
8D10 7D BB B3 41 D4 41 A2 FB FF A0 FD FF D0 A2 FD FF
8D20 D1 0B 8F 19 2B 8F E7 A0 FD FF 8B 29 C6 D7 B3 8C
8D30 A0 FB FF D8 B7 8D 64 8E 3C BA 8E E0 00 62 E9 12
8D40 F4 08 AC 70 8A D6 53 8D 8E FD AB 8E E0 00 62 E9
8D50 12 F4 06 A5 20 79 D7 48 8D 40 A2 FD FF 8A F4 73
8D60 2B D6 9C 8D A0 FD FF 8C 00 7D BB D3 51 C0 D8 83
8D70 8D 8D 40 0B 8F 11 B4 B3 D3 DB D4 3B E9 B4 8B 02
8D80 D6 8E 8D 8E BF 00 0B 8F 11 B4 B3 D3 DA D4 A0 FD
8D90 FF D0 A2 FD FF D1 0B 8F 19 2B 8F E7 A0 FD FF 8B
8DA0 29 C6 D7 64 8D AC 94 8A AC 50 D3 8E C2 A8 E9 56
8DB0 C4 02 63 E9 53 D1 02 CF 
----------------------------------------------------
     00 01 02 03 04 05 06 07 08 09 0A 0B 0C 0D 0E 0F
8DB0                         20 D1 E4 FE FF 0C 7F D3
8DC0 8C FF 00 C1 D8 CB 8D 41 D6 CC 8D 40 D8 D0 8D CF
8DD0 0C 72 D6 18 8E 0B 7C B3 A0 0F 00 B3 66 E9 C5 D7
8DE0 02 B4 BB 8F 46 B3 0B 7C B0 B3 E9 A8 D7 04 B1 0B
8DF0 7C B0 D7 FC 8D 0B 8F 10 B3 89 64 D4 A0 0D 00 D8
8E00 17 8E 6F 0B 73 B4 B3 D3 DA D4 64 E9 C5 D7 02 B3
8E10 0B 73 B4 B3 D3 DB D4 0B B0 2B 0B D7 D5 8D CF 
----------------------------------------------------
     00 01 02 03 04 05 06 07 08 09 0A 0B 0C 0D 0E 0F
8E10                                              20
8E20 D1 E4 FE FF A0 0D 00 8B 19 B5 8C F4 73 BB 2B A0
8E30 0B 00 D5 00 00 04 00 8F 8E 41 8E 90 8E C7 8E 4A
8E40 8F 0B 8F 15 B3 8D 15 E9 C5 D7 02 8F 46 B3 0B 8F
8E50 15 D3 B3 E9 A8 D7 04 D4 0B 8F 14 B3 8D 15 E9 C5
8E60 D7 02 8F 32 B3 0B 8F 14 D3 B3 E9 A8 D7 04 D4 0B
8E70 7A B3 0B 7A B0 51 BE B3 0B 7A B0 8B 64 B8 B3 8D
8E80 15 E9 C5 D7 02 B4 B5 B4 BB B1 3B E9 65 85 02 CF
8E90 0B 8F 15 B3 8D 15 E9 C5 D7 02 8F 32 B3 0B 8F 15
8EA0 D3 B3 E9 A8 D7 04 D4 0B 7C B3 8D 10 E9 C5 D7 02
8EB0 8F 4B B3 0B 7C B0 B3 E9 A8 D7 04 D0 B1 6A 61 3B
8EC0 E9 B8 8D 06 D6 8F 8E 0B 8F 16 D3 52 BE B3 60 3B
8ED0 E9 B8 8D 06 0B 7C B3 0B 8F 16 D3 55 B8 B3 66 E9
8EE0 C5 D7 02 B4 BB 8F 4B B3 0B 7C B0 B3 E9 A8 D7 04
8EF0 D0 B1 0B 8F 15 B3 0B 8F 16 D3 53 B8 B3 68 E9 C5
8F00 D7 02 B4 BB 8F 3C B3 0B 8F 15 D3 B3 E9 A8 D7 04
8F10 D4 0B 8F 14 B3 0B 8F 16 D3 51 BE B3 66 E9 C5 D7
8F20 02 B4 BB 8F 2D B3 0B 8F 14 D3 B3 E9 A8 D7 04 D4
8F30 0B 8F 16 B3 8D 10 E9 C5 D7 02 8F 4B B3 0B 8F 16
8F40 D3 B3 E9 A8 D7 04 D4 D6 8A 8E 0B 8F 15 B3 6A E9
8F50 C5 D7 02 8F 5A B3 0B 8F 15 D3 B3 E9 A8 D7 04 D4
8F60 0B 8F 14 B3 0B 8F 16 D3 53 B8 B3 68 E9 C5 D7 02
8F70 B4 BB 8F 3C B3 0B 8F 14 D3 B3 E9 A8 D7 04 D4 0B
8F80 8F 16 B3 8D 15 E9 C5 D7 02 8F 3C B3 0B 8F 16 D3
8F90 B3 E9 A8 D7 04 D4 D6 8F 8E 
----------------------------------------------------
     00 01 02 03 04 05 06 07 08 09 0A 0B 0C 0D 0E 0F
8F90                            20 D1 E4 00 00 D6 B0
8FA0 8F A0 0D 00 B3 0C D3 B4 C0 D8 AD 8F CF 0C D0 2C
8FB0 0C D3 8C FF 00 C1 D7 A1 8F 3C A0 0D 00 D4 CF 
----------------------------------------------------
     00 01 02 03 04 05 06 07 08 09 0A 0B 0C 0D 0E 0F
8FB0                                              20
8FC0 D1 E4 FD FF A0 0B 00 8B 19 B5 8C F4 73 BB 85 FD
8FD0 40 D6 FD 8F 87 FD 8E 09 A9 8E E0 00 62 E9 12 F4
8FE0 08 B3 E9 C5 D7 02 D2 8C E1 7B BB B0 8C F4 73 BC
8FF0 8B 19 B8 B3 3D E9 99 8F 04 A0 FF FF D0 A2 FF FF
9000 A0 FF FF D8 1A 90 8D 64 E9 C5 D7 02 8B 14 C6 D8
9010 16 90 41 D6 17 90 40 D7 22 90 A0 FF FF 52 C9 D8
9020 D4 8F CF 
----------------------------------------------------
     00 01 02 03 04 05 06 07 08 09 0A 0B 0C 0D 0E 0F
9020          20 D1 E4 F5 FF 0D D3 8C FF 00 C0 D8 32
9030 90 CF 8E FF 00 69 DE F7 FF B3 E9 95 F3 06 0D D6
9040 51 90 DE F7 FF B3 81 F5 D3 B3 E9 BF 8F 04 81 F5
9050 D0 85 F5 81 F5 D3 8C FF 00 C1 D7 42 90 A0 0B 00
9060 51 C0 D8 69 90 43 D6 6A 90 40 B3 8E 3C BA 8E E0
9070 00 62 E9 12 F4 08 DE F7 FF D6 8B 90 81 F5 D3 B3
9080 A0 0B 00 B3 E9 1F 8E 04 81 F5 D0 85 F5 81 F5 D3
9090 8C FF 00 C1 D7 7C 90 69 3D DE F7 FF B3 E9 B8 F3
90A0 06 A0 0B 00 B3 E9 26 8B 02 AC 50 D3 3E E9 56 C4
90B0 02 63 E9 53 D1 02 CF 
----------------------------------------------------
     00 01 02 03 04 05 06 07 08 09 0A 0B 0C 0D 0E 0F
90B0                      20 D1 E4 00 00 8E DD A8 8E
90C0 32 78 61 E9 23 90 06 CF 
----------------------------------------------------
     00 01 02 03 04 05 06 07 08 09 0A 0B 0C 0D 0E 0F
90C0                         20 D1 E4 00 00 8E FA A8
90D0 8E 3B 78 60 E9 23 90 06 CF 
----------------------------------------------------
     00 01 02 03 04 05 06 07 08 09 0A 0B 0C 0D 0E 0F
90D0                            20 D1 E4 FB FF 60 8D
90E0 29 8E 00 7D E9 95 F3 06 6A E9 C5 D7 02 D0 A2 FF
90F0 FF 40 D6 0C 91 8D 29 E9 C5 D7 02 A2 FD FF A0 FD
9100 FF 8C 00 7D BB B3 41 D4 A0 FE FF D0 A2 FE FF A0
9110 FF FF B3 A0 FE FF B4 C6 D7 F5 90 61 8E 3C BA 8E
9120 E0 00 62 E9 12 F4 08 63 E9 26 8B 02 8A F4 73 85
9130 FB 40 A2 FE FF D6 69 91 A0 FE FF 8C 00 7D BB D3
9140 51 C0 D8 59 91 8D 40 81 FB 8F 11 B4 B3 D3 DB D4
9150 A0 FE FF B3 63 E9 1F 8E 04 81 FB 8F 19 85 FB 8F
9160 E7 A0 FE FF D0 A2 FE FF D1 A0 FE FF 8B 29 C6 D7
9170 38 91 AC 94 8A AC 50 D3 8E 25 A9 E9 56 C4 02 63
9180 E9 53 D1 02 CF 
----------------------------------------------------
     00 01 02 03 04 05 06 07 08 09 0A 0B 0C 0D 0E 0F
9180                20 D1 E4 FB FF 60 8D 29 8E 00 7D
9190 E9 95 F3 06 6A E9 C5 D7 02 D0 A2 FD FF 40 D6 BD
91A0 91 8D 10 E9 C5 D7 02 8C 4F A9 BB D3 A2 FB FF A0
91B0 FB FF 8C 00 7D BB B3 41 D4 A0 FC FF D0 A2 FC FF
91C0 A0 FD FF B3 A0 FC FF B4 C6 D7 A1 91 62 8E 3C BA
91D0 8E E0 00 62 E9 12 F4 08 62 E9 26 8B 02 8A F4 73
91E0 2B 40 A2 FC FF D6 16 92 A0 FC FF 8C 00 7D BB D3
91F0 51 C0 D8 08 92 8D 40 0B 8F 11 B4 B3 D3 DB D4 A0
9200 FC FF B3 62 E9 1F 8E 04 0B 8F 19 2B 8F E7 A0 FC
9210 FF D0 A2 FC FF D1 A0 FC FF 8B 29 C6 D7 E8 91 AC
9220 94 8A AC 50 D3 8E 5F A9 E9 4A C4 02 63 E9 53 D1
9230 02 CF 
----------------------------------------------------
     00 01 02 03 04 05 06 07 08 09 0A 0B 0C 0D 0E 0F
9230       20 D1 E4 FC FF 8D 29 E9 C5 D7 02 A2 FF FF
9240 A0 FF FF A9 3B 78 60 8E 3C BA 8E E0 00 62 E9 12
9250 F4 08 60 E9 26 8B 02 A0 FF FF B3 60 E9 1F 8E 04
9260 AC 50 D3 A0 FF FF D0 B3 8E A5 A9 E9 8C C6 04 63
9270 E9 53 D1 02 CF 
----------------------------------------------------
     00 01 02 03 04 05 06 07 08 09 0A 0B 0C 0D 0E 0F
9270                20 D1 E4 D0 FF 40 A2 FF FF A2 FE
9280 FF 8A F4 73 85 F9 D6 B9 92 81 F9 7C B0 8C 20 4E
9290 C9 D8 A9 92 DE D0 FF B3 A0 FE FF B4 BB B3 A0 FF
92A0 FF D4 A0 FE FF D0 A2 FE FF A0 FF FF D0 A2 FF FF
92B0 D1 81 F9 8F 19 85 F9 8F E7 A0 FF FF 8B 29 C6 D7
92C0 89 92 A0 FE FF D8 DA 92 DE D0 FF B3 A0 FE FF B3
92D0 E9 C5 D7 02 B4 BB D3 D6 E0 92 8D 29 E9 C5 D7 02
92E0 A2 FD FF A0 FD FF A9 32 78 63 8E 3C BA 8E E0 00
92F0 62 E9 12 F4 08 61 E9 26 8B 02 A0 FD FF B3 61 E9
9300 1F 8E 04 AC 50 D3 A0 FD FF D0 B3 8E D9 A9 E9 8C
9310 C6 04 63 E9 53 D1 02 CF 
----------------------------------------------------
     00 01 02 03 04 05 06 07 08 09 0A 0B 0C 0D 0E 0F
9310                         20 D1 E4 FF FF A5 44 78
9320 55 B5 8F 14 B3 8D 64 E9 C5 D7 02 B4 C6 D8 34 93
9330 41 D6 35 93 40 D8 8F 93 62 E9 C5 D7 02 A2 FF FF
9340 A0 0B 00 D8 85 93 8D 64 E9 C5 D7 02 8B 50 C6 D8
9350 56 93 41 D6 57 93 40 D8 63 93 42 CD A0 FF FF BB
9360 D6 82 93 A5 3B 78 8C FF 00 C1 D8 71 93 41 D6 82
9370 93 A5 32 78 8C FF 00 C1 D8 7F 93 40 D6 82 93 A0
9380 FF FF A2 FF FF A0 FF FF D2 8C 05 AA BB B0 DD CF
----------------------------------------------------
     00 01 02 03 04 05 06 07 08 09 0A 0B 0C 0D 0E 0F
9390 20 D1 E4 F9 FF 40 A2 FF FF 8A F4 73 85 FD D6 39
93A0 94 81 FD 74 D6 21 94 87 F9 E9 8B D4 02 D8 1F 94
93B0 8D 64 E9 C5 D7 02 8B 32 C6 D8 C0 93 41 D6 C1 93
93C0 40 D7 1F 94 81 F9 72 D3 52 DA D8 ED 93 81 F9 7A
93D0 D3 8C F7 77 BB D3 D7 1F 94 8D 64 E9 C5 D7 02 8B
93E0 46 C6 D8 E9 93 41 D6 EA 93 40 D7 1F 94 87 FD E9
93F0 68 80 02 85 FB D8 1F 94 87 F9 87 FD 8E 70 A6 8E
9400 E0 00 62 E9 12 F4 0A 87 F9 87 FB 8E 01 AA 8E E0
9410 00 62 E9 12 F4 0A 61 81 F9 72 B4 B3 D3 DB D4 81
9420 F9 B0 85 F9 81 F9 D7 A7 93 A0 FF FF D0 A2 FF FF
9430 D1 81 FD 8F 19 85 FD 8F E7 A0 FF FF 8B 29 C6 D7
9440 A1 93 CF 
----------------------------------------------------
     00 01 02 03 04 05 06 07 08 09 0A 0B 0C 0D 0E 0F
9440          20 D1 E4 FE FF A0 0D 00 8B 1E C8 D8 56
9450 94 89 1E A2 0D 00 0C 72 D6 99 94 65 E9 C5 D7 02
9460 B3 A0 0D 00 B4 BB B3 0B 78 B3 E9 3B D8 04 0B 7C
9470 B3 65 E9 C5 D7 02 B3 A0 0D 00 B3 89 64 B4 BC B4
9480 BC B3 0B 7C B0 B3 E9 A8 D7 04 B1 0B 7C B0 D7 98
9490 94 0B 8F 10 B3 89 64 D4 0B B0 2B 0B D7 5B 94 CF
----------------------------------------------------
     00 01 02 03 04 05 06 07 08 09 0A 0B 0C 0D 0E 0F
94A0 20 D1 E4 FE FF 6A 0C 7C B0 B3 E9 D1 D5 02 52 B6
94B0 B3 8D 14 0C 72 B0 B3 E9 2F D9 02 B3 E9 4C F3 04
94C0 55 B5 B4 BB B3 0C 8F 14 D3 B3 0C 8F 16 D3 51 BE
94D0 B4 BB 7F B3 E9 63 D7 06 2B 0C 72 B0 76 D3 B3 0C
94E0 8F 15 D3 B4 BB 75 B3 3B E9 A8 D7 04 CF 

Function $94A0 (FE FF)

94A5 6A
94A6 0C
94A7 7C
94A8 B0
94A9 B3
94AA E9 D1 D5 02 / Call $D5D1 -> Get square root
94AE 52
94AF B6
94B0 B3
94B1 8D 14
94B3 0C
94B4 72
94B5 B0
94B6 B3
94B7 E9 2F D9 02 / Call $D92F -> Find number of generals in list
94BB B3
94BC E9 4C F3 04 / Call $F34C -> Return smaller
94C0 55
94C1 B5
94C2 B4
94C3 BB
94C4 B3
94C5 0C
94C6 8F 14
94C8 D3
94C9 B3
94CA 0C
94CB 8F 16
94CD D3
94CE 51
94CF BE
94D0 B4
94D1 BB
94D2 7F
94D3 B3
94D4 E9 63 D7 06 / Call $D763 -> Get ratio <00> * (<02>/<04>)
94D8 2B

94D9 0C
94DA 72
94DB B0
94DC 76
94DD D3
94DE B3
94DF 0C
94E0 8F 15
94E2 D3
94E3 B4
94E4 BB
94E5 75
94E6 B3
94E7 3B
94E8 E9 A8 D7 04 / Call $D7A8 -> Return to percentage

94EC CF          / Return
----------------------------------------------------
     00 01 02 03 04 05 06 07 08 09 0A 0B 0C 0D 0E 0F
94E0                                        20 D1 E4
94F0 FC FF 3C E9 BA D8 02 2A 6A 0C 7C B0 B3 E9 D1 D5
9500 02 52 B6 7F B3 0C 8F 14 D3 7A B3 E9 63 D7 06 2B
9510 0A 8C D4 71 BC 8B 22 B8 52 C7 D8 25 95 8D 7D 3B
9520 E9 A8 D7 04 2B 6C 0A 76 D3 52 BE B3 0C 8F 15 D3
9530 51 BE B4 BB 7A B3 3B E9 63 D7 06 CF 
----------------------------------------------------
     00 01 02 03 04 05 06 07 08 09 0A 0B 0C 0D 0E 0F
9530                                     20 D1 E4 F7
9540 FF 8A F4 73 85 FD 40 A2 FF FF D6 11 96 87 FD E9
9550 BA D8 02 D7 5A 95 41 D6 5B 95 40 D7 01 96 81 FD
9560 7F D3 8C FF 00 C1 D8 6D 95 41 D6 6E 95 40 D7 01
9570 96 87 FD E9 A0 94 02 85 F9 6A E9 C5 D7 02 B3 81
9580 FD 8F 15 B3 E9 3B D8 04 87 F9 81 FD 7A B4 B3 B0
9590 BB B1 87 FD E9 F0 D8 02 85 FB 81 FB 51 BE B3 87
95A0 FB E9 C5 D7 02 B4 BB 85 FB 81 FB 85 F7 81 FD 7A
95B0 B0 83 F7 C6 D8 E4 95 81 FD 7A B0 B3 81 F7 B4 BC
95C0 5A B8 B3 87 FD E9 43 94 04 81 FD 7A B3 8D 47 E9
95D0 C5 D7 02 8F 1E B3 87 FD E9 F0 D8 02 B3 E9 A8 D7
95E0 04 D6 00 96 87 F7 81 FD 7A B4 B3 B0 BC B1 81 FD
95F0 7A B0 8C 30 75 C8 D8 01 96 81 FD 7A B3 8A 30 75
9600 B1 A0 FF FF D0 A2 FF FF D1 81 FD 8F 19 85 FD 8F
9610 E7 A0 FF FF 8B 29 C6 D7 4D 95 CF 

Function $953C (F7 FF)

9541 8A F4 73    / $73F4 (Start of provinces)
9544 85 FD

9546 40
9547 A2 FF FF

954A D6 11 96

Loop:
954D 87 FD
954F E9 BA D8 02 / Call $D8BA -> Get nation of province
9553 D7 5A 95

If
	9556 41
	9557 D6 5B 95
Else
	955A 40

955B D7 01 96

955E 81 FD
9560 7F
9561 D3
9562 8C FF 00
9565 C1
9566 D8 6D 95

If
	9569 41
	956A D6 6E 95
Else
	956D 40
	
956E D7 01 96

9571 87 FD
9573 E9 A0 94 02 / Call $94A0

9601

Bounds check:
9611

     00 01 02 03 04 05 06 07 08 09 0A 0B 0C 0D 0E 0F
9570 96 87 FD E9 A0 94 02 85 F9 6A E9 C5 D7 02 B3 81
9580 FD 8F 15 B3 E9 3B D8 04 87 F9 81 FD 7A B4 B3 B0
9590 BB B1 87 FD E9 F0 D8 02 85 FB 81 FB 51 BE B3 87
95A0 FB E9 C5 D7 02 B4 BB 85 FB 81 FB 85 F7 81 FD 7A
95B0 B0 83 F7 C6 D8 E4 95 81 FD 7A B0 B3 81 F7 B4 BC
95C0 5A B8 B3 87 FD E9 43 94 04 81 FD 7A B3 8D 47 E9
95D0 C5 D7 02 8F 1E B3 87 FD E9 F0 D8 02 B3 E9 A8 D7
95E0 04 D6 00 96 87 F7 81 FD 7A B4 B3 B0 BC B1 81 FD
95F0 7A B0 8C 30 75 C8 D8 01 96 81 FD 7A B3 8A 30 75
9600 B1 A0 FF FF D0 A2 FF FF D1 81 FD 8F 19 85 FD 8F
9610 E7 A0 FF FF 8B 29 C6 D7 4D 95 CF 
----------------------------------------------------
     00 01 02 03 04 05 06 07 08 09 0A 0B 0C 0D 0E 0F
9610                                  20 D1 E4 F9 FF
9620 A5 45 78 8B 40 DA D8 2A 96 CF 8A F4 73 85 FD 40
9630 A2 FF FF D6 F2 96 87 FD E9 BA D8 02 D7 43 96 41
9640 D6 44 96 40 D7 E2 96 81 FD 7F D3 8C FF 00 C1 D8
9650 56 96 41 D6 57 96 40 D7 E2 96 8D 64 E9 C5 D7 02
9660 B3 87 FD E9 ED 94 02 B4 BB 85 FB 6A E9 C5 D7 02
9670 B3 81 FD 8F 15 B3 E9 3B D8 04 87 FB 81 FD 78 B4
9680 B3 B0 BB B1 87 FD E9 F0 D8 02 85 F9 81 F9 51 BE
9690 B3 87 F9 E9 C5 D7 02 B4 BB 85 F9 81 FD 78 B0 83
96A0 F9 C6 D8 C5 96 81 FD 78 B0 B3 81 F9 B4 BC 8B 14
96B0 B8 B3 87 FD E9 43 94 04 81 FD 78 B3 87 F9 E9 C5
96C0 D7 02 D6 E1 96 87 F9 81 FD 78 B4 B3 B0 BC B1 81
96D0 FD 78 B0 8C 30 75 C8 D8 E2 96 81 FD 78 B3 8A 30
96E0 75 B1 A0 FF FF D0 A2 FF FF D1 81 FD 8F 19 85 FD
96F0 8F E7 A0 FF FF 8B 29 C6 D7 36 96 CF 
----------------------------------------------------
     00 01 02 03 04 05 06 07 08 09 0A 0B 0C 0D 0E 0F
96F0                                     20 D1 E4 EB
9700 FF 60 8D 15 DE EB FF B3 E9 95 F3 06 8E FF 00 65
9710 DE F2 FF B3 E9 95 F3 06 63 DE EF FF B3 0D 53 B5
9720 8C A4 B4 BB B3 8E F9 00 62 E9 FE DC 0A 0D 2B 8D
9730 15 3C DE EB FF B3 E9 B8 F3 06 CF 
----------------------------------------------------
     00 01 02 03 04 05 06 07 08 09 0A 0B 0C 0D 0E 0F
9730                                  20 D1 E4 FA FF
9740 A5 45 78 8B 40 DA D8 4A 97 CF 8A F4 73 2A 40 A2
9750 FF FF D6 CB 97 0A 8F 11 D3 8B 30 DA 54 BE A2 FE
9760 FF 8E CF 00 0A 8F 11 B4 B3 D3 DA D4 61 DE FE FF
9770 B3 E9 3B D8 04 A0 FE FF 54 BD 8B 30 DA B3 0A 8F
9780 11 B4 B3 D3 DB D4 8E 30 75 8D 14 E9 C5 D7 02 B3
9790 0A 7C B0 B3 E9 D1 D5 02 53 B5 B4 BB 8F 32 B3 0A
97A0 7C B3 E9 F8 D7 06 0A 72 D6 B7 97 8E FF 00 61 09
97B0 79 B3 E9 02 D8 06 09 B0 29 09 D7 AB 97 A0 FF FF
97C0 D0 A2 FF FF D1 0A 8F 19 2A 8F E7 A0 FF FF 8B 29
97D0 C6 D7 55 97 CF 
----------------------------------------------------
     00 01 02 03 04 05 06 07 08 09 0A 0B 0C 0D 0E 0F
97D0                20 D1 E4 FC FF 3D E9 A3 D8 02 2B
97E0 3B E9 E2 D4 02 D8 42 98 AC 50 D3 0C 72 B0 1D C0
97F0 D8 F9 97 8A 2D AA D6 FC 97 8A 36 AA B3 0C 8C F4
9800 73 BC 8B 19 B8 D0 B3 60 0B B0 B3 E9 2D C1 04 B3
9810 8E 0E AA E9 9D C6 08 60 3D E9 2D C1 04 B3 8E 3E
9820 AA E9 9D C6 04 61 3D E9 5F C0 04 B3 8D 15 62 8E
9830 4E A2 8E E0 00 62 E9 12 F4 0C AC 91 D1 6A E9 43
9840 D1 02 3D E9 11 C3 02 51 C0 A2 FD FF 0B 74 B0 1D
9850 C0 D8 59 98 0B 74 B3 40 B1 3D 3C 8E C1 AA 8E E0
9860 00 62 E9 12 F4 0A 3D 8E AB AA 8E E0 00 62 E9 12
9870 F4 08 A0 FD FF D8 C9 98 0C 72 B0 D7 BD 98 3C 8E
9880 9D A9 8E E0 00 62 E9 12 F4 08 3C 8E 2C A4 8E E0
9890 00 62 E9 12 F4 08 3B E9 E2 D4 02 D8 C9 98 AC 50
98A0 D3 0C 8C F4 73 BC 8B 19 B8 D0 B3 8E 4E AA E9 9D
98B0 C6 04 AC 91 D1 6A E9 43 D1 02 D6 C9 98 3C 8E 58
98C0 B7 8E E0 00 62 E9 12 F4 08 CF 
----------------------------------------------------
     00 01 02 03 04 05 06 07 08 09 0A 0B 0C 0D 0E 0F
98C0                               20 D1 E4 00 00 3C
98D0 E9 B3 D5 02 D7 E9 98 3C 8E 7B B6 8E E0 00 62 E9
98E0 12 F4 08 8B 5A C9 D8 34 99 A5 29 7D D7 FF 98 41
98F0 A9 29 7D 66 8E 3C BA 8E E0 00 62 E9 12 F4 08 AC
9900 50 D3 8E 6D AA E9 4A C4 02 6A E9 43 D1 02 60 3C
9910 E9 2D C1 04 B3 8E 94 AA E9 8C C6 04 61 3C E9 5F
9920 C0 04 B3 8D 15 62 8E 4E A2 8E E0 00 62 E9 12 F4
9930 0C AC 70 8A CF 
----------------------------------------------------
     00 01 02 03 04 05 06 07 08 09 0A 0B 0C 0D 0E 0F
9930                20 D1 E4 FD FF 61 3C E9 C1 C0 04
9940 B3 A4 06 60 B4 BC D0 A2 FD FF A0 FD FF 8B 41 C8
9950 D8 82 99 A0 FD FF 8F BF D2 B3 8D 64 E9 C5 D7 02
9960 B4 C6 D8 69 99 41 D6 6A 99 40 D8 82 99 8D 10 0C
9970 72 B4 B3 D3 DB D4 A0 0D 00 D8 81 99 3C E9 CA 98
9980 02 CF 61 3C E9 5F C0 04 D1 2B 0B 59 C6 D8 C6 99
9990 0B D2 8C B6 AA BB B0 A6 06 60 C7 D8 C6 99 8D 64
99A0 E9 C5 D7 02 8B 32 C6 D8 AE 99 41 D6 AF 99 40 D8
99B0 C6 99 A0 0D 00 D8 BD 99 3C E9 CA 98 02 8D 10 0C
99C0 72 B4 B3 D3 DB D4 CF 
----------------------------------------------------
     00 01 02 03 04 05 06 07 08 09 0A 0B 0C 0D 0E 0F
99C0                      20 D1 E4 FB FF 3C E9 A3 D8
99D0 02 85 FB 40 A2 FF FF 8A F4 73 85 FD D6 42 9A 81
99E0 FD 7F D3 8C FF 00 C1 D8 EE 99 41 D6 EF 99 40 D8
99F0 32 9A 87 FD E9 BA D8 02 83 FB C1 D8 32 9A 81 FB
9A00 8C D4 71 BC 8B 22 B8 B3 81 FD 7F D3 B4 C1 D8 32
9A10 9A 87 FD 8E 90 A6 8E E0 00 62 E9 12 F4 08 A4 FE
9A20 7B 83 FB C0 D7 30 9A A4 10 7C 83 FB C0 D8 32 9A
9A30 41 CF A0 FF FF D0 A2 FF FF D1 81 FD 8F 19 85 FD
9A40 8F E7 A0 FF FF 8B 29 C6 D7 DF 99 40 CF 
----------------------------------------------------
     00 01 02 03 04 05 06 07 08 09 0A 0B 0C 0D 0E 0F
9A40                                        20 D1 E4
9A50 00 00 0D 72 D3 8B 10 DA D8 97 9A 3D E9 B3 D5 02
9A60 D8 85 9A 3D E9 C7 99 02 D8 6D 9A 40 CF 8E EF 00
9A70 0D 72 B4 B3 D3 DA D4 3D 8E D5 A6 8E E0 00 62 E9
9A80 12 F4 08 41 CF 8E EF 00 0D 72 B4 B3 D3 DA D4 3D
9A90 3C E9 D5 97 04 40 CF 61 3D E9 35 99 04 40 CF 
----------------------------------------------------
     00 01 02 03 04 05 06 07 08 09 0A 0B 0C 0D 0E 0F
9A90                                              20
9AA0 D1 E4 F9 FF 8A F4 73 85 FD 40 A2 FF FF D6 43 9B
9AB0 81 FD 74 B0 D6 EE 9A 81 FB B0 85 F9 81 FB 72 D3
9AC0 8B 10 DA D8 E5 9A 87 FB 87 FD 8E 70 A6 8E E0 00
9AD0 62 E9 12 F4 0A 87 FB 8E AB AA 8E E0 00 62 E9 12
9AE0 F4 08 D6 EC 9A 60 87 FB E9 35 99 04 81 F9 85 FB
9AF0 81 FB D7 B7 9A 81 FD 76 B0 D6 2C 9B 81 FB B0 85
9B00 F9 81 FB 72 D3 8B 10 DA D8 23 9B 87 FB 87 FD E9
9B10 09 81 04 87 FB 8E AB AA 8E E0 00 62 E9 12 F4 08
9B20 D6 2A 9B 60 87 FB E9 35 99 04 81 F9 85 FB 81 FB
9B30 D7 FC 9A A0 FF FF D0 A2 FF FF D1 81 FD 8F 19 85
9B40 FD 8F E7 A0 FF FF 8B 29 C6 D7 B0 9A CF 
----------------------------------------------------
     00 01 02 03 04 05 06 07 08 09 0A 0B 0C 0D 0E 0F
9B40                                        20 D1 E4
9B50 F8 FF 0C 72 B0 D6 90 9B 0B B0 2A 0B 7F D3 8C FF
9B60 00 C1 D8 69 9B 41 D6 6A 9B 40 D7 8F 9B 0B 72 B0
9B70 B0 D6 7E 9B 09 B0 28 39 3B E9 4D 9A 04 08 29 09
9B80 D7 74 9B 0B 72 B0 B3 3B E9 4D 9A 04 D7 95 9B 0A
9B90 2B 0B D7 58 9B CF 
----------------------------------------------------
     00 01 02 03 04 05 06 07 08 09 0A 0B 0C 0D 0E 0F
9B90                   20 D1 E4 FD FF 40 A9 29 7D 8A
9BA0 D4 71 2B 40 A2 FD FF D6 C2 9B 0B B0 D8 B4 9B 3B
9BB0 E9 4D 9B 02 A0 FD FF D0 A2 FD FF D1 0B 8F 22 2B
9BC0 8F DE A0 FD FF 8B 10 C6 D7 AA 9B AC 9F 9A A5 29
9BD0 7D D8 E8 9B D6 E2 9B 8E FD AB 8E E0 00 62 E9 12
9BE0 F4 06 A5 20 79 D7 D7 9B CF 
----------------------------------------------------
     00 01 02 03 04 05 06 07 08 09 0A 0B 0C 0D 0E 0F
9BE0                            20 D1 E4 FC FF 0C 76
9BF0 B0 2B D7 FB 9B 0C 76 B3 D6 09 9C 3B 8E 89 BA 8E
9C00 E0 00 62 E9 12 F4 08 2A 3A 0D B1 3D 40 B1 CF 
----------------------------------------------------
     00 01 02 03 04 05 06 07 08 09 0A 0B 0C 0D 0E 0F
9C00                                              20
9C10 D1 E4 FB FF 40 A2 FF FF 8A F4 73 85 FD D6 7E 9C
9C20 81 FD 72 D6 32 9C 81 FB 1C C0 D8 30 9C 81 FD CF
9C30 81 FB B0 85 FB 81 FB D7 26 9C 81 FD 74 D6 4C 9C
9C40 81 FB 1C C0 D8 4A 9C 81 FD CF 81 FB B0 85 FB 81
9C50 FB D7 40 9C 81 FD 76 D6 66 9C 81 FB 1C C0 D8 64
9C60 9C 81 FD CF 81 FB B0 85 FB 81 FB D7 5A 9C A0 FF
9C70 FF D0 A2 FF FF D1 81 FD 8F 19 85 FD 8F E7 A0 FF
9C80 FF 8B 29 C6 D7 20 9C 40 CF 
----------------------------------------------------
     00 01 02 03 04 05 06 07 08 09 0A 0B 0C 0D 0E 0F
9C80                            20 D1 E4 F8 FF A5 48
9C90 78 2B 8C FF 00 C1 D8 7A 9D 3B E9 23 80 02 2A 0A
9CA0 D8 7A 9D 3A E9 0F 9C 02 29 09 D8 BF 9C 09 7F D3
9CB0 8C FF 00 C1 D8 BB 9C 41 D6 BC 9C 40 D8 D5 9C A4
9CC0 06 60 8F FD B3 A5 47 78 B4 C6 D8 D3 9C 8A FF 00
9CD0 A9 48 78 40 CF AA 4A 78 3C E9 FC 96 04 0C 8F 10
9CE0 B3 89 64 D4 3A E9 11 C3 02 54 C0 D8 FE 9C 3C 39
9CF0 E9 E9 9B 04 0C 77 B3 8A FF 00 D4 D6 78 9D 3C 39
9D00 8E 33 AA 8E E0 00 62 E9 12 F4 0A 0C 77 B3 0A 77
9D10 D3 D4 0C 79 B3 41 D4 0C 78 B3 66 E9 C5 D7 02 8F
9D20 5F D4 3A E9 A3 D8 02 28 B3 E9 E2 D4 02 D8 78 9D
9D30 AC 50 D3 60 08 B0 B3 E9 2D C1 04 B3 8E C8 AA E9
9D40 9D C6 04 09 8C F4 73 BC 8B 19 B8 D0 B3 60 3C E9
9D50 2D C1 04 B3 8E D6 AA E9 8C C6 06 61 3C E9 5F C0
9D60 04 B3 8D 15 62 8E 4E A2 8E E0 00 62 E9 12 F4 0C
9D70 AC A2 D1 6A E9 43 D1 02 41 CF AA 4A 78 3C E9 FC
9D80 96 04 A5 49 78 8B 19 B5 8C F4 73 BB 29 3C 39 E9
9D90 E9 9B 04 41 CF 
----------------------------------------------------
     00 01 02 03 04 05 06 07 08 09 0A 0B 0C 0D 0E 0F
9D90                20 D1 E4 FE FF A4 4C 78 8B FF C0
9DA0 D8 B0 9D CF A4 4C 78 8B FF C0 D7 D5 9D AC CA A6
9DB0 A4 F5 77 D8 D5 9D A5 47 78 A6 06 60 C8 D7 D5 9D
9DC0 A4 F5 77 2B 0B B0 A8 F5 77 3B E9 89 9C 02 D7 A4
9DD0 9D 0B A8 F5 77 CF 
----------------------------------------------------
 06:9DD6:20 7A E3  JSR $E37A
 06:9DD9:00        BRK
 06:9DDA:FE FF A0  INC $A0FF,X @ $A101 = #$71
 06:9DDD:0B        UNDEFINED
 06:9DDE:B1 04     LDA ($04),Y @ $05E6 = #$FA
 06:9DE0:85 18     STA $0018 = #$A8
 06:9DE2:C8        INY
 06:9DE3:B1 04     LDA ($04),Y @ $05E6 = #$FA
 06:9DE5:85 19     STA $0019 = #$DC
 06:9DE7:A9 FE     LDA #$FE
 06:9DE9:A0 02     LDY #$02
 06:9DEB:31 18     AND ($18),Y @ $DCA9 = #$4C
 06:9DED:91 18     STA ($18),Y @ $DCA9 = #$4C
 06:9DEF:A0 0B     LDY #$0B
 06:9DF1:B1 04     LDA ($04),Y @ $05E6 = #$FA
 06:9DF3:85 18     STA $0018 = #$A8
 06:9DF5:C8        INY
 06:9DF6:B1 04     LDA ($04),Y @ $05E6 = #$FA
 06:9DF8:85 19     STA $0019 = #$DC
 06:9DFA:A0 03     LDY #$03
 06:9DFC:B1 18     LDA ($18),Y @ $DCA9 = #$4C
 06:9DFE:F0 03     BEQ $9E03
 06:9E00:4C 04 9E  JMP $9E04
 06:9E03:60        RTS -----------------------------------------
 06:9E04:A0 0D     LDY #$0D
 06:9E06:B1 04     LDA ($04),Y @ $05E6 = #$FA
 06:9E08:D0 03     BNE $9E0D
 06:9E0A:4C 20 9E  JMP $9E20
 06:9E0D:A0 0B     LDY #$0B
 06:9E0F:B1 04     LDA ($04),Y @ $05E6 = #$FA
 06:9E11:85 18     STA $0018 = #$A8
 06:9E13:C8        INY
 06:9E14:B1 04     LDA ($04),Y @ $05E6 = #$FA
 06:9E16:85 19     STA $0019 = #$DC
 06:9E18:A9 F0     LDA #$F0
 06:9E1A:A0 03     LDY #$03
 06:9E1C:31 18     AND ($18),Y @ $DCA9 = #$4C
 06:9E1E:91 18     STA ($18),Y @ $DCA9 = #$4C
 06:9E20:A0 0B     LDY #$0B
 06:9E22:B1 04     LDA ($04),Y @ $05E6 = #$FA
 06:9E24:85 18     STA $0018 = #$A8
 06:9E26:C8        INY
 06:9E27:B1 04     LDA ($04),Y @ $05E6 = #$FA
 06:9E29:85 19     STA $0019 = #$DC
 06:9E2B:A0 03     LDY #$03
 06:9E2D:B1 18     LDA ($18),Y @ $DCA9 = #$4C
 06:9E2F:85 14     STA $0014 = #$00
 06:9E31:86 15     STX $0015 = #$00
 06:9E33:A9 0F     LDA #$0F
 06:9E35:25 14     AND $0014 = #$00
 06:9E37:85 18     STA $0018 = #$A8
 06:9E39:8A        TXA
 06:9E3A:85 19     STA $0019 = #$DC
 06:9E3C:A5 18     LDA $0018 = #$A8
 06:9E3E:A0 FF     LDY #$FF
 06:9E40:91 06     STA ($06),Y @ $8018 = #$AC
 06:9E42:8A        TXA
 06:9E43:48        PHA
 06:9E44:A9 01     LDA #$01
 06:9E46:48        PHA
 06:9E47:18        CLC
 06:9E48:98        TYA
 06:9E49:65 06     ADC $0006 = #$17
 06:9E4B:85 18     STA $0018 = #$A8
 06:9E4D:8A        TXA
 06:9E4E:65 07     ADC $0007 = #$80
 06:9E50:85 19     STA $0019 = #$DC
 06:9E52:A5 19     LDA $0019 = #$DC
 06:9E54:48        PHA
 06:9E55:A5 18     LDA $0018 = #$A8
 06:9E57:48        PHA
 06:9E58:20 19 E4  JSR $E419
 06:9E5B:3B        UNDEFINED
 06:9E5C:D8        CLD
 06:9E5D:06 A9     ASL $00A9 = #$B4
 06:9E5F:04        UNDEFINED
 06:9E60:85 18     STA $0018 = #$A8
 06:9E62:86 19     STX $0019 = #$DC
 06:9E64:A0 0B     LDY #$0B
 06:9E66:B1 04     LDA ($04),Y @ $05E6 = #$FA
 06:9E68:85 14     STA $0014 = #$00
 06:9E6A:C8        INY
 06:9E6B:B1 04     LDA ($04),Y @ $05E6 = #$FA
 06:9E6D:85 15     STA $0015 = #$00
 06:9E6F:A0 03     LDY #$03
 06:9E71:B1 14     LDA ($14),Y @ $0001 = #$EE
 06:9E73:85 10     STA $0010 = #$18
 06:9E75:86 11     STX $0011 = #$05
 06:9E77:A0 10     LDY #$10
 06:9E79:A2 18     LDX #$18
 06:9E7B:A9 14     LDA #$14
 06:9E7D:20 33 D7  JSR $D733
 06:9E80:A5 14     LDA $0014 = #$00
 06:9E82:A0 FE     LDY #$FE
 06:9E84:91 06     STA ($06),Y @ $8018 = #$AC
 06:9E86:8A        TXA
 06:9E87:48        PHA
 06:9E88:A9 01     LDA #$01
 06:9E8A:48        PHA
 06:9E8B:18        CLC
 06:9E8C:98        TYA
 06:9E8D:65 06     ADC $0006 = #$17
 06:9E8F:85 18     STA $0018 = #$A8
 06:9E91:8A        TXA
 06:9E92:65 07     ADC $0007 = #$80
 06:9E94:85 19     STA $0019 = #$DC
 06:9E96:A5 19     LDA $0019 = #$DC
 06:9E98:48        PHA
 06:9E99:A5 18     LDA $0018 = #$A8
 06:9E9B:48        PHA
 06:9E9C:20 19 E4  JSR $E419 -> $D83B (06)

 06:9EA2:A9 04     LDA #$04
 06:9EA4:85 18     STA $0018 = #$A8
 06:9EA6:86 19     STX $0019 = #$DC
 06:9EA8:A0 FE     LDY #$FE
 06:9EAA:B1 06     LDA ($06),Y @ $8018 = #$AC
 06:9EAC:85 14     STA $0014 = #$00
 06:9EAE:86 15     STX $0015 = #$00
 06:9EB0:A0 14     LDY #$14
 06:9EB2:A2 18     LDX #$18
 06:9EB4:A9 10     LDA #$10
 06:9EB6:20 0E D7  JSR $D70E
 06:9EB9:A5 10     LDA $0010 = #$18
 06:9EBB:A0 FE     LDY #$FE
 06:9EBD:91 06     STA ($06),Y @ $8018 = #$AC
 06:9EBF:A0 0B     LDY #$0B
 06:9EC1:B1 04     LDA ($04),Y @ $05E6 = #$FA
 06:9EC3:85 18     STA $0018 = #$A8
 06:9EC5:C8        INY
 06:9EC6:B1 04     LDA ($04),Y @ $05E6 = #$FA
 06:9EC8:85 19     STA $0019 = #$DC
 06:9ECA:A0 FE     LDY #$FE
 06:9ECC:B1 06     LDA ($06),Y @ $8018 = #$AC
 06:9ECE:85 14     STA $0014 = #$00
 06:9ED0:86 15     STX $0015 = #$00
 06:9ED2:C8        INY
 06:9ED3:B1 06     LDA ($06),Y @ $8018 = #$AC
 06:9ED5:85 10     STA $0010 = #$18
 06:9ED7:86 11     STX $0011 = #$05
 06:9ED9:A5 10     LDA $0010 = #$18
 06:9EDB:05 14     ORA $0014 = #$00
 06:9EDD:85 0C     STA $000C = #$E5
 06:9EDF:A5 11     LDA $0011 = #$05
 06:9EE1:05 15     ORA $0015 = #$00
 06:9EE3:85 0D     STA $000D = #$05
 06:9EE5:A5 0C     LDA $000C = #$E5
 06:9EE7:A0 03     LDY #$03
 06:9EE9:91 18     STA ($18),Y @ $DCA9 = #$4C
 06:9EEB:60        RTS -----------------------------------------
 06:9EEC:20 7A E3  JSR $E37A
 06:9EEF:00        BRK
 06:9EF0:00        BRK
 06:9EF1:00        BRK
 06:9EF2:48        PHA
 06:9EF3:A9 64     LDA #$64
 06:9EF5:48        PHA
 06:9EF6:20 19 E4  JSR $E419
 06:9EF9:C5 D7     CMP $00D7 = #$0F
 06:9EFB:04        UNDEFINED
 06:9EFC:86 09     STX $0009 = #$00
 06:9EFE:A5 08     LDA $0008 = #$E1
 06:9F00:C9 04     CMP #$04
 06:9F02:A5 09     LDA $0009 = #$00
 06:9F04:E9 00     SBC #$00
 06:9F06:90 03     BCC $9F0B
 06:9F08:4C 12 9F  JMP $9F12
 06:9F0B:84 18     STY $0018 = #$A8
 06:9F0D:86 19     STX $0019 = #$DC
 06:9F0F:4C 16 9F  JMP $9F16
 06:9F12:86 18     STX $0018 = #$A8
 06:9F14:86 19     STX $0019 = #$DC
 06:9F16:A5 18     LDA $0018 = #$A8
 06:9F18:D0 03     BNE $9F1D
 06:9F1A:4C 51 9F  JMP $9F51
 06:9F1D:A0 0D     LDY #$0D
 06:9F1F:B1 04     LDA ($04),Y @ $05E6 = #$FA
 06:9F21:85 18     STA $0018 = #$A8
 06:9F23:C8        INY
 06:9F24:B1 04     LDA ($04),Y @ $05E6 = #$FA
 06:9F26:85 19     STA $0019 = #$DC
 06:9F28:A2 18     LDX #$18
 06:9F2A:20 76 E4  JSR $E476
 06:9F2D:48        PHA
 06:9F2E:A9 51     LDA #$51
 06:9F30:48        PHA
 06:9F31:20 19 E4  JSR $E419
 06:9F34:C5 D7     CMP $00D7 = #$0F
 06:9F36:04        UNDEFINED
 06:9F37:86 09     STX $0009 = #$00
 06:9F39:18        CLC
 06:9F3A:A9 0A     LDA #$0A
 06:9F3C:65 08     ADC $0008 = #$E1
 06:9F3E:85 18     STA $0018 = #$A8
 06:9F40:8A        TXA
 06:9F41:65 09     ADC $0009 = #$00
 06:9F43:85 19     STA $0019 = #$DC
 06:9F45:A2 14     LDX #$14
 06:9F47:20 9B E4  JSR $E49B
 06:9F4A:A5 18     LDA $0018 = #$A8
 06:9F4C:A0 18     LDY #$18
 06:9F4E:91 14     STA ($14),Y @ $0001 = #$EE
 06:9F50:60        RTS -----------------------------------------
 06:9F51:8A        TXA
 06:9F52:48        PHA
 06:9F53:A9 02     LDA #$02
 06:9F55:48        PHA
 06:9F56:20 19 E4  JSR $E419
 06:9F59:C5 D7     CMP $00D7 = #$0F
 06:9F5B:04        UNDEFINED
 06:9F5C:A5 08     LDA $0008 = #$E1
 06:9F5E:05 09     ORA $0009 = #$00
 06:9F60:D0 03     BNE $9F65
 06:9F62:4C BB 9F  JMP $9FBB
 06:9F65:8A        TXA
 06:9F66:48        PHA
 06:9F67:A9 64     LDA #$64
 06:9F69:48        PHA
 06:9F6A:8A        TXA
 06:9F6B:48        PHA
 06:9F6C:A9 0A     LDA #$0A
 06:9F6E:48        PHA
 06:9F6F:20 19 E4  JSR $E419
 06:9F72:C5 D7     CMP $00D7 = #$0F
 06:9F74:04        UNDEFINED
 06:9F75:86 09     STX $0009 = #$00
 06:9F77:A5 09     LDA $0009 = #$00
 06:9F79:48        PHA
 06:9F7A:A5 08     LDA $0008 = #$E1
 06:9F7C:48        PHA
 06:9F7D:18        CLC
 06:9F7E:A9 18     LDA #$18
 06:9F80:A0 0D     LDY #$0D
 06:9F82:71 04     ADC ($04),Y @ $05E6 = #$FA
 06:9F84:85 18     STA $0018 = #$A8
 06:9F86:8A        TXA
 06:9F87:C8        INY
 06:9F88:71 04     ADC ($04),Y @ $05E6 = #$FA
 06:9F8A:85 19     STA $0019 = #$DC
 06:9F8C:A5 19     LDA $0019 = #$DC
 06:9F8E:48        PHA
 06:9F8F:A5 18     LDA $0018 = #$A8
 06:9F91:48        PHA
 06:9F92:20 19 E4  JSR $E419
 06:9F95:02        UNDEFINED
 06:9F96:D8        CLD
 06:9F97:08        PHP
 06:9F98:A0 0D     LDY #$0D
 06:9F9A:B1 04     LDA ($04),Y @ $05E6 = #$FA
 06:9F9C:85 18     STA $0018 = #$A8
 06:9F9E:C8        INY
 06:9F9F:B1 04     LDA ($04),Y @ $05E6 = #$FA
 06:9FA1:85 19     STA $0019 = #$DC
 06:9FA3:A0 18     LDY #$18
 06:9FA5:B1 18     LDA ($18),Y @ $DCA9 = #$4C
 06:9FA7:85 14     STA $0014 = #$00
 06:9FA9:86 15     STX $0015 = #$00
 06:9FAB:A9 46     LDA #$46
 06:9FAD:C5 14     CMP $0014 = #$00
 06:9FAF:8A        TXA
 06:9FB0:E5 15     SBC $0015 = #$00
 06:9FB2:B0 03     BCS $9FB7
 06:9FB4:4C B8 9F  JMP $9FB8
 06:9FB7:60        RTS -----------------------------------------
 06:9FB8:4C 0A A0  JMP $A00A
 06:9FBB:8A        TXA
 06:9FBC:48        PHA
 06:9FBD:A9 0A     LDA #$0A
 06:9FBF:48        PHA
 06:9FC0:20 19 E4  JSR $E419
 06:9FC3:C5 D7     CMP $00D7 = #$0F
 06:9FC5:04        UNDEFINED
 06:9FC6:86 09     STX $0009 = #$00
 06:9FC8:A5 09     LDA $0009 = #$00
 06:9FCA:48        PHA
 06:9FCB:A5 08     LDA $0008 = #$E1
 06:9FCD:48        PHA
 06:9FCE:18        CLC
 06:9FCF:A9 18     LDA #$18
 06:9FD1:A0 0D     LDY #$0D
 06:9FD3:71 04     ADC ($04),Y @ $05E6 = #$FA
 06:9FD5:85 18     STA $0018 = #$A8
 06:9FD7:8A        TXA
 06:9FD8:C8        INY
 06:9FD9:71 04     ADC ($04),Y @ $05E6 = #$FA
 06:9FDB:85 19     STA $0019 = #$DC
 06:9FDD:A5 19     LDA $0019 = #$DC
 06:9FDF:48        PHA
 06:9FE0:A5 18     LDA $0018 = #$A8
 06:9FE2:48        PHA
 06:9FE3:20 19 E4  JSR $E419
 06:9FE6:3B        UNDEFINED
 06:9FE7:D8        CLD
 06:9FE8:06 A0     ASL $00A0 = #$0C
 06:9FEA:0D B1 04  ORA $04B1 = #$E8
 06:9FED:85 18     STA $0018 = #$A8
 06:9FEF:C8        INY
 06:9FF0:B1 04     LDA ($04),Y @ $05E6 = #$FA
 06:9FF2:85 19     STA $0019 = #$DC
 06:9FF4:A0 18     LDY #$18
 06:9FF6:B1 18     LDA ($18),Y @ $DCA9 = #$4C
 06:9FF8:85 14     STA $0014 = #$00
 06:9FFA:86 15     STX $0015 = #$00
 06:9FFC:A5 14     LDA $0014 = #$00
 06:9FFE:C9 14     CMP #$14
 07:A000:A5 15     LDA $0015 = #$00
 07:A002:E9 00     SBC #$00
 07:A004:B0 03     BCS $A009
 07:A006:4C 0A A0  JMP $A00A
 07:A009:60        RTS -----------------------------------------
 07:A00A:A0 0D     LDY #$0D
 07:A00C:B1 04     LDA ($04),Y @ $05E6 = #$FA
 07:A00E:85 18     STA $0018 = #$A8
 07:A010:C8        INY
 07:A011:B1 04     LDA ($04),Y @ $05E6 = #$FA
 07:A013:85 19     STA $0019 = #$DC
 07:A015:A2 18     LDX #$18
 07:A017:20 76 E4  JSR $E476
 07:A01A:48        PHA
 07:A01B:A9 1F     LDA #$1F
 07:A01D:48        PHA
 07:A01E:20 19 E4  JSR $E419
 07:A021:C5 D7     CMP $00D7 = #$0F
 07:A023:04        UNDEFINED
 07:A024:86 09     STX $0009 = #$00
 07:A026:18        CLC
 07:A027:A9 1E     LDA #$1E
 07:A029:65 08     ADC $0008 = #$E1
 07:A02B:85 18     STA $0018 = #$A8
 07:A02D:8A        TXA
 07:A02E:65 09     ADC $0009 = #$00
 07:A030:85 19     STA $0019 = #$DC
 07:A032:A2 14     LDX #$14
 07:A034:20 9B E4  JSR $E49B
 07:A037:A5 18     LDA $0018 = #$A8
 07:A039:A0 18     LDY #$18
 07:A03B:91 14     STA ($14),Y @ $0001 = #$EE
 07:A03D:60        RTS -----------------------------------------
 07:A03E:20 7A E3  JSR $E37A
 07:A041:00        BRK
 07:A042:FC        UNDEFINED
 07:A043:FF        UNDEFINED
 07:A044:A0 0B     LDY #$0B
 07:A046:B1 04     LDA ($04),Y @ $05E6 = #$FA
 07:A048:85 18     STA $0018 = #$A8
 07:A04A:C8        INY
 07:A04B:B1 04     LDA ($04),Y @ $05E6 = #$FA
 07:A04D:85 19     STA $0019 = #$DC
 07:A04F:A0 02     LDY #$02
 07:A051:B1 18     LDA ($18),Y @ $DCA9 = #$4C
 07:A053:A0 FE     LDY #$FE
 07:A055:91 06     STA ($06),Y @ $8018 = #$AC
 07:A057:A0 03     LDY #$03
 07:A059:B1 18     LDA ($18),Y @ $DCA9 = #$4C
 07:A05B:A0 FF     LDY #$FF
 07:A05D:91 06     STA ($06),Y @ $8018 = #$AC
 07:A05F:4C 7A A0  JMP $A07A
 07:A062:A0 FE     LDY #$FE
 07:A064:B1 06     LDA ($06),Y @ $8018 = #$AC
 07:A066:85 18     STA $0018 = #$A8
 07:A068:C8        INY
 07:A069:B1 06     LDA ($06),Y @ $8018 = #$AC
 07:A06B:85 19     STA $0019 = #$DC
 07:A06D:A1 18     LDA ($18,X) @ $0460 = #$00
 07:A06F:88        DEY
 07:A070:91 06     STA ($06),Y @ $8018 = #$AC
 07:A072:A0 01     LDY #$01
 07:A074:B1 18     LDA ($18),Y @ $DCA9 = #$4C
 07:A076:A0 FF     LDY #$FF
 07:A078:91 06     STA ($06),Y @ $8018 = #$AC
 07:A07A:A0 FE     LDY #$FE
 07:A07C:B1 06     LDA ($06),Y @ $8018 = #$AC
 07:A07E:C8        INY
 07:A07F:11 06     ORA ($06),Y @ $8018 = #$AC
 07:A081:D0 03     BNE $A086
 07:A083:4C 17 A1  JMP $A117
 07:A086:88        DEY
 07:A087:B1 06     LDA ($06),Y @ $8018 = #$AC
 07:A089:85 18     STA $0018 = #$A8
 07:A08B:C8        INY
 07:A08C:B1 06     LDA ($06),Y @ $8018 = #$AC
 07:A08E:85 19     STA $0019 = #$DC
 07:A090:A0 02     LDY #$02
 07:A092:B1 18     LDA ($18),Y @ $DCA9 = #$4C
 07:A094:85 14     STA $0014 = #$00
 07:A096:86 15     STX $0015 = #$00
 07:A098:A5 14     LDA $0014 = #$00
 07:A09A:29 02     AND #$02
 07:A09C:D0 03     BNE $A0A1
 07:A09E:4C 14 A1  JMP $A114
 07:A0A1:A0 0B     LDY #$0B
 07:A0A3:B1 04     LDA ($04),Y @ $05E6 = #$FA
 07:A0A5:85 18     STA $0018 = #$A8
 07:A0A7:C8        INY
 07:A0A8:B1 04     LDA ($04),Y @ $05E6 = #$FA
 07:A0AA:85 19     STA $0019 = #$DC
 07:A0AC:A0 02     LDY #$02
 07:A0AE:B1 18     LDA ($18),Y @ $DCA9 = #$4C
 07:A0B0:A0 FC     LDY #$FC
 07:A0B2:91 06     STA ($06),Y @ $8018 = #$AC
 07:A0B4:A0 03     LDY #$03
 07:A0B6:B1 18     LDA ($18),Y @ $DCA9 = #$4C
 07:A0B8:A0 FD     LDY #$FD
 07:A0BA:91 06     STA ($06),Y @ $8018 = #$AC
 07:A0BC:4C D7 A0  JMP $A0D7
 07:A0BF:A0 FC     LDY #$FC
 07:A0C1:B1 06     LDA ($06),Y @ $8018 = #$AC
 07:A0C3:85 18     STA $0018 = #$A8
 07:A0C5:C8        INY
 07:A0C6:B1 06     LDA ($06),Y @ $8018 = #$AC
 07:A0C8:85 19     STA $0019 = #$DC
 07:A0CA:A1 18     LDA ($18,X) @ $0460 = #$00
 07:A0CC:88        DEY
 07:A0CD:91 06     STA ($06),Y @ $8018 = #$AC
 07:A0CF:A0 01     LDY #$01
 07:A0D1:B1 18     LDA ($18),Y @ $DCA9 = #$4C
 07:A0D3:A0 FD     LDY #$FD
 07:A0D5:91 06     STA ($06),Y @ $8018 = #$AC
 07:A0D7:A0 FC     LDY #$FC
 07:A0D9:B1 06     LDA ($06),Y @ $8018 = #$AC
 07:A0DB:C8        INY
 07:A0DC:11 06     ORA ($06),Y @ $8018 = #$AC
 07:A0DE:D0 03     BNE $A0E3
 07:A0E0:4C 14 A1  JMP $A114
 07:A0E3:8A        TXA
 07:A0E4:48        PHA
 07:A0E5:A9 03     LDA #$03
 07:A0E7:48        PHA
 07:A0E8:20 19 E4  JSR $E419
 07:A0EB:C5 D7     CMP $00D7 = #$0F
 07:A0ED:04        UNDEFINED
 07:A0EE:86 09     STX $0009 = #$00
 07:A0F0:A5 09     LDA $0009 = #$00
 07:A0F2:48        PHA
 07:A0F3:A5 08     LDA $0008 = #$E1
 07:A0F5:48        PHA
 07:A0F6:18        CLC
 07:A0F7:A9 08     LDA #$08
 07:A0F9:A0 FC     LDY #$FC
 07:A0FB:71 06     ADC ($06),Y @ $8018 = #$AC
 07:A0FD:85 18     STA $0018 = #$A8
 07:A0FF:8A        TXA
 07:A100:C8        INY
 07:A101:71 06     ADC ($06),Y @ $8018 = #$AC
 07:A103:85 19     STA $0019 = #$DC
 07:A105:A5 19     LDA $0019 = #$DC
 07:A107:48        PHA
 07:A108:A5 18     LDA $0018 = #$A8
 07:A10A:48        PHA
 07:A10B:20 19 E4  JSR $E419
 07:A10E:3B        UNDEFINED
 07:A10F:D8        CLD
 07:A110:06 4C     ASL $004C = #$00
 07:A112:BF        UNDEFINED
 07:A113:A0 4C     LDY #$4C
 07:A115:62        UNDEFINED
 07:A116:A0 60     LDY #$60
 07:A118:20 7A E3  JSR $E37A
 07:A11B:00        BRK
 07:A11C:F1 FF     SBC ($FF),Y @ $E601 = #$D0
 07:A11E:48        PHA
 07:A11F:A9 0A     LDA #$0A
 07:A121:48        PHA
 07:A122:20 19 E4  JSR $E419
 07:A125:C5 D7     CMP $00D7 = #$0F
 07:A127:04        UNDEFINED
 07:A128:86 09     STX $0009 = #$00
 07:A12A:A9 05     LDA #$05
 07:A12C:85 18     STA $0018 = #$A8
 07:A12E:86 19     STX $0019 = #$DC
 07:A130:AD 44 78  LDA $7844 = #$03
 07:A133:85 14     STA $0014 = #$00
 07:A135:86 15     STX $0015 = #$00
 07:A137:A0 14     LDY #$14
 07:A139:A2 18     LDX #$18
 07:A13B:A9 10     LDA #$10
 07:A13D:20 58 E2  JSR $E258
 07:A140:18        CLC
 07:A141:A5 10     LDA $0010 = #$18
 07:A143:65 08     ADC $0008 = #$E1
 07:A145:85 18     STA $0018 = #$A8
 07:A147:A5 11     LDA $0011 = #$05
 07:A149:65 09     ADC $0009 = #$00
 07:A14B:85 19     STA $0019 = #$DC
 07:A14D:18        CLC
 07:A14E:A9 0A     LDA #$0A
 07:A150:65 18     ADC $0018 = #$A8
 07:A152:85 14     STA $0014 = #$00
 07:A154:8A        TXA
 07:A155:65 19     ADC $0019 = #$DC
 07:A157:85 15     STA $0015 = #$00
 07:A159:A5 14     LDA $0014 = #$00
 07:A15B:A0 F2     LDY #$F2
 07:A15D:91 06     STA ($06),Y @ $8018 = #$AC
 07:A15F:8A        TXA
 07:A160:48        PHA
 07:A161:A9 01     LDA #$01
 07:A163:48        PHA
 07:A164:A9 BA     LDA #$BA
 07:A166:48        PHA
 07:A167:A9 F6     LDA #$F6
 07:A169:48        PHA
 07:A16A:8A        TXA
 07:A16B:48        PHA
 07:A16C:A9 E0     LDA #$E0
 07:A16E:48        PHA
 07:A16F:8A        TXA
 07:A170:48        PHA
 07:A171:A9 02     LDA #$02
 07:A173:48        PHA
 07:A174:20 19 E4  JSR $E419
 07:A177:12        UNDEFINED
 07:A178:F4        UNDEFINED
 07:A179:0A        ASL
 07:A17A:A9 BF     LDA #$BF
 07:A17C:A0 FE     LDY #$FE
 07:A17E:91 06     STA ($06),Y @ $8018 = #$AC
 07:A180:A9 7B     LDA #$7B
 07:A182:C8        INY
 07:A183:91 06     STA ($06),Y @ $8018 = #$AC
 07:A185:4C 97 A1  JMP $A197
 07:A188:18        CLC
 07:A189:A9 02     LDA #$02
 07:A18B:A0 FE     LDY #$FE
 07:A18D:71 06     ADC ($06),Y @ $8018 = #$AC
 07:A18F:91 06     STA ($06),Y @ $8018 = #$AC
 07:A191:8A        TXA
 07:A192:C8        INY
 07:A193:71 06     ADC ($06),Y @ $8018 = #$AC
 07:A195:91 06     STA ($06),Y @ $8018 = #$AC
 07:A197:A0 FE     LDY #$FE
 07:A199:B1 06     LDA ($06),Y @ $8018 = #$AC
 07:A19B:85 18     STA $0018 = #$A8
 07:A19D:C8        INY
 07:A19E:B1 06     LDA ($06),Y @ $8018 = #$AC
 07:A1A0:85 19     STA $0019 = #$DC
 07:A1A2:A1 18     LDA ($18,X) @ $0460 = #$00
 07:A1A4:A0 FC     LDY #$FC
 07:A1A6:91 06     STA ($06),Y @ $8018 = #$AC
 07:A1A8:A0 01     LDY #$01
 07:A1AA:B1 18     LDA ($18),Y @ $DCA9 = #$4C
 07:A1AC:A0 FD     LDY #$FD
 07:A1AE:91 06     STA ($06),Y @ $8018 = #$AC
 07:A1B0:A1 18     LDA ($18,X) @ $0460 = #$00
 07:A1B2:A0 01     LDY #$01
 07:A1B4:11 18     ORA ($18),Y @ $DCA9 = #$4C
 07:A1B6:D0 03     BNE $A1BB
 07:A1B8:4C C9 A6  JMP $A6C9
 07:A1BB:A0 FC     LDY #$FC
 07:A1BD:B1 06     LDA ($06),Y @ $8018 = #$AC
 07:A1BF:85 18     STA $0018 = #$A8
 07:A1C1:C8        INY
 07:A1C2:B1 06     LDA ($06),Y @ $8018 = #$AC
 07:A1C4:85 19     STA $0019 = #$DC
 07:A1C6:A0 07     LDY #$07
 07:A1C8:B1 18     LDA ($18),Y @ $DCA9 = #$4C
 07:A1CA:85 14     STA $0014 = #$00
 07:A1CC:86 15     STX $0015 = #$00
 07:A1CE:A5 14     LDA $0014 = #$00
 07:A1D0:29 40     AND #$40
 07:A1D2:D0 03     BNE $A1D7
 07:A1D4:4C E0 A1  JMP $A1E0
 07:A1D7:A9 01     LDA #$01
 07:A1D9:85 18     STA $0018 = #$A8
 07:A1DB:86 19     STX $0019 = #$DC
 07:A1DD:4C E4 A1  JMP $A1E4
 07:A1E0:86 18     STX $0018 = #$A8
 07:A1E2:86 19     STX $0019 = #$DC
 07:A1E4:A5 18     LDA $0018 = #$A8
 07:A1E6:A0 F1     LDY #$F1
 07:A1E8:91 06     STA ($06),Y @ $8018 = #$AC
 07:A1EA:A0 FC     LDY #$FC
 07:A1EC:B1 06     LDA ($06),Y @ $8018 = #$AC
 07:A1EE:85 18     STA $0018 = #$A8
 07:A1F0:C8        INY
 07:A1F1:B1 06     LDA ($06),Y @ $8018 = #$AC
 07:A1F3:85 19     STA $0019 = #$DC
 07:A1F5:A9 DE     LDA #$DE
 07:A1F7:A0 07     LDY #$07
 07:A1F9:31 18     AND ($18),Y @ $DCA9 = #$4C
 07:A1FB:91 18     STA ($18),Y @ $DCA9 = #$4C
 07:A1FD:A0 FD     LDY #$FD
 07:A1FF:B1 06     LDA ($06),Y @ $8018 = #$AC
 07:A201:48        PHA
 07:A202:88        DEY
 07:A203:B1 06     LDA ($06),Y @ $8018 = #$AC
 07:A205:48        PHA
 07:A206:20 19 E4  JSR $E419
 07:A209:B4 A7     LDY $A7,X @ $00A9 = #$B4
 07:A20B:04        UNDEFINED
 07:A20C:A0 FC     LDY #$FC
 07:A20E:B1 06     LDA ($06),Y @ $8018 = #$AC
 07:A210:85 18     STA $0018 = #$A8
 07:A212:C8        INY
 07:A213:B1 06     LDA ($06),Y @ $8018 = #$AC
 07:A215:85 19     STA $0019 = #$DC
 07:A217:A1 18     LDA ($18,X) @ $0460 = #$00
 07:A219:A0 F6     LDY #$F6
 07:A21B:91 06     STA ($06),Y @ $8018 = #$AC
 07:A21D:A0 01     LDY #$01
 07:A21F:B1 18     LDA ($18),Y @ $DCA9 = #$4C
 07:A221:A0 F7     LDY #$F7
 07:A223:91 06     STA ($06),Y @ $8018 = #$AC
 07:A225:A9 0A     LDA #$0A
 07:A227:85 18     STA $0018 = #$A8
 07:A229:86 19     STX $0019 = #$DC
 07:A22B:A0 FC     LDY #$FC
 07:A22D:B1 06     LDA ($06),Y @ $8018 = #$AC
 07:A22F:85 14     STA $0014 = #$00
 07:A231:C8        INY
 07:A232:B1 06     LDA ($06),Y @ $8018 = #$AC
 07:A234:85 15     STA $0015 = #$00
 07:A236:A0 06     LDY #$06
 07:A238:B1 14     LDA ($14),Y @ $0001 = #$EE
 07:A23A:85 10     STA $0010 = #$18
 07:A23C:86 11     STX $0011 = #$05
 07:A23E:38        SEC
 07:A23F:A9 64     LDA #$64
 07:A241:E5 10     SBC $0010 = #$18
 07:A243:85 14     STA $0014 = #$00
 07:A245:8A        TXA
 07:A246:E5 11     SBC $0011 = #$05
 07:A248:85 15     STA $0015 = #$00
 07:A24A:A0 14     LDY #$14
 07:A24C:A2 18     LDX #$18
 07:A24E:A9 10     LDA #$10
 07:A250:20 BA E2  JSR $E2BA
 07:A253:18        CLC
 07:A254:A9 02     LDA #$02
 07:A256:65 10     ADC $0010 = #$18
 07:A258:85 18     STA $0018 = #$A8
 07:A25A:8A        TXA
 07:A25B:65 11     ADC $0011 = #$05
 07:A25D:85 19     STA $0019 = #$DC
 07:A25F:A5 18     LDA $0018 = #$A8
 07:A261:A0 F3     LDY #$F3
 07:A263:91 06     STA ($06),Y @ $8018 = #$AC
 07:A265:A9 22     LDA #$22
 07:A267:85 18     STA $0018 = #$A8
 07:A269:86 19     STX $0019 = #$DC
 07:A26B:38        SEC
 07:A26C:A0 FC     LDY #$FC
 07:A26E:B1 06     LDA ($06),Y @ $8018 = #$AC
 07:A270:E9 D4     SBC #$D4
 07:A272:85 14     STA $0014 = #$00
 07:A274:C8        INY
 07:A275:B1 06     LDA ($06),Y @ $8018 = #$AC
 07:A277:E9 71     SBC #$71
 07:A279:85 15     STA $0015 = #$00
 07:A27B:A0 14     LDY #$14
 07:A27D:A2 18     LDX #$18
 07:A27F:A9 10     LDA #$10
 07:A281:20 BA E2  JSR $E2BA
 07:A284:86 11     STX $0011 = #$05
 07:A286:A5 10     LDA $0010 = #$18
 07:A288:C9 01     CMP #$01
 07:A28A:D0 04     BNE $A290
 07:A28C:A5 11     LDA $0011 = #$05
 07:A28E:C9 00     CMP #$00
 07:A290:F0 03     BEQ $A295
 07:A292:4C B2 A2  JMP $A2B2
 07:A295:A9 02     LDA #$02
 07:A297:85 18     STA $0018 = #$A8
 07:A299:86 19     STX $0019 = #$DC
 07:A29B:A0 F3     LDY #$F3
 07:A29D:B1 06     LDA ($06),Y @ $8018 = #$AC
 07:A29F:85 14     STA $0014 = #$00
 07:A2A1:86 15     STX $0015 = #$00
 07:A2A3:A0 14     LDY #$14
 07:A2A5:A2 18     LDX #$18
 07:A2A7:A9 10     LDA #$10
 07:A2A9:20 BA E2  JSR $E2BA
 07:A2AC:A5 10     LDA $0010 = #$18
 07:A2AE:A0 F3     LDY #$F3
 07:A2B0:91 06     STA ($06),Y @ $8018 = #$AC
 07:A2B2:A0 FC     LDY #$FC
 07:A2B4:B1 06     LDA ($06),Y @ $8018 = #$AC
 07:A2B6:85 18     STA $0018 = #$A8
 07:A2B8:C8        INY
 07:A2B9:B1 06     LDA ($06),Y @ $8018 = #$AC
 07:A2BB:85 19     STA $0019 = #$DC
 07:A2BD:A0 02     LDY #$02
 07:A2BF:B1 18     LDA ($18),Y @ $DCA9 = #$4C
 07:A2C1:A0 FA     LDY #$FA
 07:A2C3:91 06     STA ($06),Y @ $8018 = #$AC
 07:A2C5:A0 03     LDY #$03
 07:A2C7:B1 18     LDA ($18),Y @ $DCA9 = #$4C
 07:A2C9:A0 FB     LDY #$FB
 07:A2CB:91 06     STA ($06),Y @ $8018 = #$AC
 07:A2CD:4C E8 A2  JMP $A2E8
 07:A2D0:A0 FA     LDY #$FA
 07:A2D2:B1 06     LDA ($06),Y @ $8018 = #$AC
 07:A2D4:85 18     STA $0018 = #$A8
 07:A2D6:C8        INY
 07:A2D7:B1 06     LDA ($06),Y @ $8018 = #$AC
 07:A2D9:85 19     STA $0019 = #$DC
 07:A2DB:A1 18     LDA ($18,X) @ $0460 = #$00
 07:A2DD:88        DEY
 07:A2DE:91 06     STA ($06),Y @ $8018 = #$AC
 07:A2E0:A0 01     LDY #$01
 07:A2E2:B1 18     LDA ($18),Y @ $DCA9 = #$4C
 07:A2E4:A0 FB     LDY #$FB
 07:A2E6:91 06     STA ($06),Y @ $8018 = #$AC
 07:A2E8:A0 FA     LDY #$FA
 07:A2EA:B1 06     LDA ($06),Y @ $8018 = #$AC
 07:A2EC:C8        INY
 07:A2ED:11 06     ORA ($06),Y @ $8018 = #$AC
 07:A2EF:D0 03     BNE $A2F4
 07:A2F1:4C C6 A6  JMP $A6C6
 07:A2F4:88        DEY
 07:A2F5:B1 06     LDA ($06),Y @ $8018 = #$AC
 07:A2F7:85 18     STA $0018 = #$A8
 07:A2F9:C8        INY
 07:A2FA:B1 06     LDA ($06),Y @ $8018 = #$AC
 07:A2FC:85 19     STA $0019 = #$DC
 07:A2FE:A0 03     LDY #$03
 07:A300:B1 18     LDA ($18),Y @ $DCA9 = #$4C
 07:A302:48        PHA
 07:A303:88        DEY
 07:A304:B1 18     LDA ($18),Y @ $DCA9 = #$4C
 07:A306:48        PHA
 07:A307:20 19 E4  JSR $E419
 07:A30A:B3        UNDEFINED
 07:A30B:D5 04     CMP $04,X @ $0006 = #$17
 07:A30D:A5 08     LDA $0008 = #$E1
 07:A30F:D0 03     BNE $A314
 07:A311:4C 26 A3  JMP $A326
 07:A314:A0 FA     LDY #$FA
 07:A316:B1 06     LDA ($06),Y @ $8018 = #$AC
 07:A318:85 18     STA $0018 = #$A8
 07:A31A:C8        INY
 07:A31B:B1 06     LDA ($06),Y @ $8018 = #$AC
 07:A31D:85 19     STA $0019 = #$DC
 07:A31F:98        TYA
 07:A320:A0 10     LDY #$10
 07:A322:31 18     AND ($18),Y @ $DCA9 = #$4C
 07:A324:91 18     STA ($18),Y @ $DCA9 = #$4C
 07:A326:A0 FA     LDY #$FA
 07:A328:B1 06     LDA ($06),Y @ $8018 = #$AC
 07:A32A:85 18     STA $0018 = #$A8
 07:A32C:C8        INY
 07:A32D:B1 06     LDA ($06),Y @ $8018 = #$AC
 07:A32F:85 19     STA $0019 = #$DC
 07:A331:A0 0F     LDY #$0F
 07:A333:B1 18     LDA ($18),Y @ $DCA9 = #$4C
 07:A335:85 14     STA $0014 = #$00
 07:A337:86 15     STX $0015 = #$00
 07:A339:A5 14     LDA $0014 = #$00
 07:A33B:C9 FF     CMP #$FF
 07:A33D:D0 04     BNE $A343
 07:A33F:A5 15     LDA $0015 = #$00
 07:A341:C9 00     CMP #$00
 07:A343:D0 03     BNE $A348
 07:A345:4C 51 A3  JMP $A351
 07:A348:A9 01     LDA #$01
 07:A34A:85 18     STA $0018 = #$A8
 07:A34C:86 19     STX $0019 = #$DC
 07:A34E:4C 55 A3  JMP $A355
 07:A351:86 18     STX $0018 = #$A8
 07:A353:86 19     STX $0019 = #$DC
 07:A355:A5 18     LDA $0018 = #$A8
 07:A357:D0 03     BNE $A35C
 07:A359:4C 6E A3  JMP $A36E
 07:A35C:A0 FB     LDY #$FB
 07:A35E:B1 06     LDA ($06),Y @ $8018 = #$AC
 07:A360:48        PHA
 07:A361:88        DEY
 07:A362:B1 06     LDA ($06),Y @ $8018 = #$AC
 07:A364:48        PHA
 07:A365:20 19 E4  JSR $E419
 07:A368:65 85     ADC $0085 = #$00
 07:A36A:04        UNDEFINED
 07:A36B:4C D0 A2  JMP $A2D0
 07:A36E:A0 FB     LDY #$FB
 07:A370:B1 06     LDA ($06),Y @ $8018 = #$AC
 07:A372:48        PHA
 07:A373:88        DEY
 07:A374:B1 06     LDA ($06),Y @ $8018 = #$AC
 07:A376:48        PHA
 07:A377:A0 FD     LDY #$FD
 07:A379:B1 06     LDA ($06),Y @ $8018 = #$AC
 07:A37B:48        PHA
 07:A37C:88        DEY
 07:A37D:B1 06     LDA ($06),Y @ $8018 = #$AC
 07:A37F:48        PHA
 07:A380:20 19 E4  JSR $E419
 07:A383:EC 9E 06  CPX $069E = #$00
 07:A386:A0 FB     LDY #$FB
 07:A388:B1 06     LDA ($06),Y @ $8018 = #$AC
 07:A38A:48        PHA
 07:A38B:88        DEY
 07:A38C:B1 06     LDA ($06),Y @ $8018 = #$AC
 07:A38E:48        PHA
 07:A38F:20 19 E4  JSR $E419
 07:A392:3E A0 04  ROL $04A0,X @ $04A2 = #$00
 07:A395:A0 FA     LDY #$FA
 07:A397:B1 06     LDA ($06),Y @ $8018 = #$AC
 07:A399:85 18     STA $0018 = #$A8
 07:A39B:C8        INY
 07:A39C:B1 06     LDA ($06),Y @ $8018 = #$AC
 07:A39E:85 19     STA $0019 = #$DC
 07:A3A0:A0 02     LDY #$02
 07:A3A2:B1 18     LDA ($18),Y @ $DCA9 = #$4C
 07:A3A4:A0 F8     LDY #$F8
 07:A3A6:91 06     STA ($06),Y @ $8018 = #$AC
 07:A3A8:A0 03     LDY #$03
 07:A3AA:B1 18     LDA ($18),Y @ $DCA9 = #$4C
 07:A3AC:A0 F9     LDY #$F9
 07:A3AE:91 06     STA ($06),Y @ $8018 = #$AC
 07:A3B0:4C C3 A3  JMP $A3C3
 07:A3B3:A0 F4     LDY #$F4
 07:A3B5:B1 06     LDA ($06),Y @ $8018 = #$AC
 07:A3B7:A0 F8     LDY #$F8
 07:A3B9:91 06     STA ($06),Y @ $8018 = #$AC
 07:A3BB:A0 F5     LDY #$F5
 07:A3BD:B1 06     LDA ($06),Y @ $8018 = #$AC
 07:A3BF:A0 F9     LDY #$F9
 07:A3C1:91 06     STA ($06),Y @ $8018 = #$AC
 07:A3C3:A0 F8     LDY #$F8
 07:A3C5:B1 06     LDA ($06),Y @ $8018 = #$AC
 07:A3C7:C8        INY
 07:A3C8:11 06     ORA ($06),Y @ $8018 = #$AC
 07:A3CA:D0 03     BNE $A3CF
 07:A3CC:4C C3 A6  JMP $A6C3
 07:A3CF:88        DEY
 07:A3D0:B1 06     LDA ($06),Y @ $8018 = #$AC
 07:A3D2:85 18     STA $0018 = #$A8
 07:A3D4:C8        INY
 07:A3D5:B1 06     LDA ($06),Y @ $8018 = #$AC
 07:A3D7:85 19     STA $0019 = #$DC
 07:A3D9:A1 18     LDA ($18,X) @ $0460 = #$00
 07:A3DB:A0 F4     LDY #$F4
 07:A3DD:91 06     STA ($06),Y @ $8018 = #$AC
 07:A3DF:A0 01     LDY #$01
 07:A3E1:B1 18     LDA ($18),Y @ $DCA9 = #$4C
 07:A3E3:A0 F5     LDY #$F5
 07:A3E5:91 06     STA ($06),Y @ $8018 = #$AC
 07:A3E7:A0 F1     LDY #$F1
 07:A3E9:B1 06     LDA ($06),Y @ $8018 = #$AC
 07:A3EB:85 18     STA $0018 = #$A8
 07:A3ED:86 19     STX $0019 = #$DC
 07:A3EF:A5 19     LDA $0019 = #$DC
 07:A3F1:48        PHA
 07:A3F2:A5 18     LDA $0018 = #$A8
 07:A3F4:48        PHA
 07:A3F5:A0 F9     LDY #$F9
 07:A3F7:B1 06     LDA ($06),Y @ $8018 = #$AC
 07:A3F9:48        PHA
 07:A3FA:88        DEY
 07:A3FB:B1 06     LDA ($06),Y @ $8018 = #$AC
 07:A3FD:48        PHA
 07:A3FE:20 19 E4  JSR $E419
 07:A401:D6 9D     DEC $9D,X @ $009F = #$F1
 07:A403:06 A0     ASL $00A0 = #$0C
 07:A405:F8        SED
 07:A406:B1 06     LDA ($06),Y @ $8018 = #$AC
 07:A408:85 18     STA $0018 = #$A8
 07:A40A:C8        INY
 07:A40B:B1 06     LDA ($06),Y @ $8018 = #$AC
 07:A40D:85 19     STA $0019 = #$DC
 07:A40F:A0 02     LDY #$02
 07:A411:B1 18     LDA ($18),Y @ $DCA9 = #$4C
 07:A413:85 14     STA $0014 = #$00
 07:A415:86 15     STX $0015 = #$00
 07:A417:A5 14     LDA $0014 = #$00
 07:A419:29 02     AND #$02
 07:A41B:D0 03     BNE $A420
 07:A41D:4C 58 A5  JMP $A558
 07:A420:A9 22     LDA #$22
 07:A422:85 18     STA $0018 = #$A8
 07:A424:86 19     STX $0019 = #$DC
 07:A426:A0 F8     LDY #$F8
 07:A428:B1 06     LDA ($06),Y @ $8018 = #$AC
 07:A42A:85 14     STA $0014 = #$00
 07:A42C:C8        INY
 07:A42D:B1 06     LDA ($06),Y @ $8018 = #$AC
 07:A42F:85 15     STA $0015 = #$00
 07:A431:A0 0A     LDY #$0A
 07:A433:B1 14     LDA ($14),Y @ $0001 = #$EE
 07:A435:85 10     STA $0010 = #$18
 07:A437:86 11     STX $0011 = #$05
 07:A439:A0 10     LDY #$10
 07:A43B:A2 18     LDX #$18
 07:A43D:A9 14     LDA #$14
 07:A43F:20 58 E2  JSR $E258
 07:A442:18        CLC
 07:A443:A5 14     LDA $0014 = #$00
 07:A445:69 D4     ADC #$D4
 07:A447:85 18     STA $0018 = #$A8
 07:A449:A5 15     LDA $0015 = #$00
 07:A44B:69 71     ADC #$71
 07:A44D:85 19     STA $0019 = #$DC
 07:A44F:B1 18     LDA ($18),Y @ $DCA9 = #$4C
 07:A451:48        PHA
 07:A452:A1 18     LDA ($18,X) @ $0460 = #$00
 07:A454:48        PHA
 07:A455:20 19 E4  JSR $E419
 07:A458:5F        UNDEFINED
 07:A459:C0 04     CPY #$04
 07:A45B:A2 08     LDX #$08
 07:A45D:20 76 E4  JSR $E476
 07:A460:48        PHA
 07:A461:48        PHA
 07:A462:A0 F9     LDY #$F9
 07:A464:B1 06     LDA ($06),Y @ $8018 = #$AC
 07:A466:48        PHA
 07:A467:88        DEY
 07:A468:B1 06     LDA ($06),Y @ $8018 = #$AC
 07:A46A:48        PHA
 07:A46B:20 19 E4  JSR $E419
 07:A46E:5F        UNDEFINED
 07:A46F:C0 06     CPY #$06
 07:A471:A2 18     LDX #$18
 07:A473:20 9B E4  JSR $E49B
 07:A476:A5 08     LDA $0008 = #$E1
 07:A478:25 18     AND $0018 = #$A8
 07:A47A:85 14     STA $0014 = #$00
 07:A47C:A5 09     LDA $0009 = #$00
 07:A47E:25 19     AND $0019 = #$DC
 07:A480:85 15     STA $0015 = #$00
 07:A482:A9 00     LDA #$00
 07:A484:09 00     ORA #$00
 07:A486:F0 03     BEQ $A48B
 07:A488:4C 58 A5  JMP $A558
 07:A48B:A0 F8     LDY #$F8
 07:A48D:B1 06     LDA ($06),Y @ $8018 = #$AC
 07:A48F:85 18     STA $0018 = #$A8
 07:A491:C8        INY
 07:A492:B1 06     LDA ($06),Y @ $8018 = #$AC
 07:A494:85 19     STA $0019 = #$DC
 07:A496:A0 0B     LDY #$0B
 07:A498:B1 18     LDA ($18),Y @ $DCA9 = #$4C
 07:A49A:85 14     STA $0014 = #$00
 07:A49C:86 15     STX $0015 = #$00
 07:A49E:18        CLC
 07:A49F:A9 03     LDA #$03
 07:A4A1:65 14     ADC $0014 = #$00
 07:A4A3:85 18     STA $0018 = #$A8
 07:A4A5:8A        TXA
 07:A4A6:65 15     ADC $0015 = #$00
 07:A4A8:85 19     STA $0019 = #$DC
 07:A4AA:A0 F8     LDY #$F8
 07:A4AC:B1 06     LDA ($06),Y @ $8018 = #$AC
 07:A4AE:85 14     STA $0014 = #$00
 07:A4B0:C8        INY
 07:A4B1:B1 06     LDA ($06),Y @ $8018 = #$AC
 07:A4B3:85 15     STA $0015 = #$00
 07:A4B5:A0 09     LDY #$09
 07:A4B7:B1 14     LDA ($14),Y @ $0001 = #$EE
 07:A4B9:85 10     STA $0010 = #$18
 07:A4BB:86 11     STX $0011 = #$05
 07:A4BD:A5 18     LDA $0018 = #$A8
 07:A4BF:C5 10     CMP $0010 = #$18
 07:A4C1:A5 19     LDA $0019 = #$DC
 07:A4C3:E5 11     SBC $0011 = #$05
 07:A4C5:90 03     BCC $A4CA
 07:A4C7:4C 58 A5  JMP $A558
 07:A4CA:A9 01     LDA #$01
 07:A4CC:85 18     STA $0018 = #$A8
 07:A4CE:86 19     STX $0019 = #$DC
 07:A4D0:A2 18     LDX #$18
 07:A4D2:20 76 E4  JSR $E476
 07:A4D5:48        PHA
 07:A4D6:48        PHA
 07:A4D7:A0 F9     LDY #$F9
 07:A4D9:B1 06     LDA ($06),Y @ $8018 = #$AC
 07:A4DB:48        PHA
 07:A4DC:88        DEY
 07:A4DD:B1 06     LDA ($06),Y @ $8018 = #$AC
 07:A4DF:48        PHA
 07:A4E0:20 19 E4  JSR $E419
 07:A4E3:19 C0 06  ORA $06C0,Y @ $06C1 = #$00
 07:A4E6:86 09     STX $0009 = #$00
 07:A4E8:A2 18     LDX #$18
 07:A4EA:20 9B E4  JSR $E49B
 07:A4ED:A0 08     LDY #$08
 07:A4EF:A2 18     LDX #$18
 07:A4F1:A9 14     LDA #$14
 07:A4F3:20 33 D7  JSR $D733
 07:A4F6:38        SEC
 07:A4F7:A9 33     LDA #$33
 07:A4F9:E5 14     SBC $0014 = #$00
 07:A4FB:85 18     STA $0018 = #$A8
 07:A4FD:8A        TXA
 07:A4FE:E5 15     SBC $0015 = #$00
 07:A500:85 19     STA $0019 = #$DC
 07:A502:86 19     STX $0019 = #$DC
 07:A504:A2 18     LDX #$18
 07:A506:20 76 E4  JSR $E476
 07:A509:48        PHA
 07:A50A:A9 64     LDA #$64
 07:A50C:48        PHA
 07:A50D:20 19 E4  JSR $E419
 07:A510:C5 D7     CMP $00D7 = #$0F
 07:A512:04        UNDEFINED
 07:A513:86 09     STX $0009 = #$00
 07:A515:A2 18     LDX #$18
 07:A517:20 9B E4  JSR $E49B
 07:A51A:A5 08     LDA $0008 = #$E1
 07:A51C:C5 18     CMP $0018 = #$A8
 07:A51E:A5 09     LDA $0009 = #$00
 07:A520:E5 19     SBC $0019 = #$DC
 07:A522:90 03     BCC $A527
 07:A524:4C 2E A5  JMP $A52E
 07:A527:84 18     STY $0018 = #$A8
 07:A529:86 19     STX $0019 = #$DC
 07:A52B:4C 32 A5  JMP $A532
 07:A52E:86 18     STX $0018 = #$A8
 07:A530:86 19     STX $0019 = #$DC
 07:A532:A5 18     LDA $0018 = #$A8
 07:A534:D0 03     BNE $A539
 07:A536:4C 58 A5  JMP $A558
 07:A539:A0 F9     LDY #$F9
 07:A53B:B1 06     LDA ($06),Y @ $8018 = #$AC
 07:A53D:48        PHA
 07:A53E:88        DEY
 07:A53F:B1 06     LDA ($06),Y @ $8018 = #$AC
 07:A541:48        PHA
 07:A542:A9 A6     LDA #$A6
 07:A544:48        PHA
 07:A545:A9 E2     LDA #$E2
 07:A547:48        PHA
 07:A548:8A        TXA
 07:A549:48        PHA
 07:A54A:A9 E0     LDA #$E0
 07:A54C:48        PHA
 07:A54D:8A        TXA
 07:A54E:48        PHA
 07:A54F:A9 02     LDA #$02
 07:A551:48        PHA
 07:A552:20 19 E4  JSR $E419
 07:A555:12        UNDEFINED
 07:A556:F4        UNDEFINED
 07:A557:0A        ASL
 07:A558:8A        TXA
 07:A559:48        PHA
 07:A55A:48        PHA
 07:A55B:A0 F7     LDY #$F7
 07:A55D:B1 06     LDA ($06),Y @ $8018 = #$AC
 07:A55F:48        PHA
 07:A560:88        DEY
 07:A561:B1 06     LDA ($06),Y @ $8018 = #$AC
 07:A563:48        PHA
 07:A564:20 19 E4  JSR $E419
 07:A567:5F        UNDEFINED
 07:A568:C0 06     CPY #$06
 07:A56A:A2 08     LDX #$08
 07:A56C:20 76 E4  JSR $E476
 07:A56F:48        PHA
 07:A570:48        PHA
 07:A571:A0 F9     LDY #$F9
 07:A573:B1 06     LDA ($06),Y @ $8018 = #$AC
 07:A575:48        PHA
 07:A576:88        DEY
 07:A577:B1 06     LDA ($06),Y @ $8018 = #$AC
 07:A579:48        PHA
 07:A57A:20 19 E4  JSR $E419
 07:A57D:5F        UNDEFINED
 07:A57E:C0 06     CPY #$06
 07:A580:A2 18     LDX #$18
 07:A582:20 9B E4  JSR $E49B
 07:A585:A5 08     LDA $0008 = #$E1
 07:A587:25 18     AND $0018 = #$A8
 07:A589:85 14     STA $0014 = #$00
 07:A58B:A5 09     LDA $0009 = #$00
 07:A58D:25 19     AND $0019 = #$DC
 07:A58F:85 15     STA $0015 = #$00
 07:A591:A5 14     LDA $0014 = #$00
 07:A593:05 15     ORA $0015 = #$00
 07:A595:F0 03     BEQ $A59A
 07:A597:4C 24 A6  JMP $A624
 07:A59A:A0 F9     LDY #$F9
 07:A59C:B1 06     LDA ($06),Y @ $8018 = #$AC
 07:A59E:48        PHA
 07:A59F:88        DEY
 07:A5A0:B1 06     LDA ($06),Y @ $8018 = #$AC
 07:A5A2:48        PHA
 07:A5A3:88        DEY
 07:A5A4:B1 06     LDA ($06),Y @ $8018 = #$AC
 07:A5A6:48        PHA
 07:A5A7:88        DEY
 07:A5A8:B1 06     LDA ($06),Y @ $8018 = #$AC
 07:A5AA:48        PHA
 07:A5AB:A9 B9     LDA #$B9
 07:A5AD:48        PHA
 07:A5AE:A9 98     LDA #$98
 07:A5B0:48        PHA
 07:A5B1:8A        TXA
 07:A5B2:48        PHA
 07:A5B3:A9 E0     LDA #$E0
 07:A5B5:48        PHA
 07:A5B6:8A        TXA
 07:A5B7:48        PHA
 07:A5B8:A9 02     LDA #$02
 07:A5BA:48        PHA
 07:A5BB:20 19 E4  JSR $E419
 07:A5BE:12        UNDEFINED
 07:A5BF:F4        UNDEFINED
 07:A5C0:0C        UNDEFINED
 07:A5C1:A0 F8     LDY #$F8
 07:A5C3:B1 06     LDA ($06),Y @ $8018 = #$AC
 07:A5C5:85 18     STA $0018 = #$A8
 07:A5C7:C8        INY
 07:A5C8:B1 06     LDA ($06),Y @ $8018 = #$AC
 07:A5CA:85 19     STA $0019 = #$DC
 07:A5CC:A0 09     LDY #$09
 07:A5CE:B1 18     LDA ($18),Y @ $DCA9 = #$4C
 07:A5D0:85 14     STA $0014 = #$00
 07:A5D2:86 15     STX $0015 = #$00
 07:A5D4:18        CLC
 07:A5D5:A9 64     LDA #$64
 07:A5D7:65 14     ADC $0014 = #$00
 07:A5D9:85 18     STA $0018 = #$A8
 07:A5DB:8A        TXA
 07:A5DC:65 15     ADC $0015 = #$00
 07:A5DE:85 19     STA $0019 = #$DC
 07:A5E0:38        SEC
 07:A5E1:A5 18     LDA $0018 = #$A8
 07:A5E3:E5 08     SBC $0008 = #$E1
 07:A5E5:85 14     STA $0014 = #$00
 07:A5E7:A5 19     LDA $0019 = #$DC
 07:A5E9:E5 09     SBC $0009 = #$00
 07:A5EB:85 15     STA $0015 = #$00
 07:A5ED:86 15     STX $0015 = #$00
 07:A5EF:A2 14     LDX #$14
 07:A5F1:20 76 E4  JSR $E476
 07:A5F4:48        PHA
 07:A5F5:A9 64     LDA #$64
 07:A5F7:48        PHA
 07:A5F8:20 19 E4  JSR $E419
 07:A5FB:C5 D7     CMP $00D7 = #$0F
 07:A5FD:04        UNDEFINED
 07:A5FE:86 09     STX $0009 = #$00
 07:A600:A2 14     LDX #$14
 07:A602:20 9B E4  JSR $E49B
 07:A605:A5 08     LDA $0008 = #$E1
 07:A607:C5 14     CMP $0014 = #$00
 07:A609:A5 09     LDA $0009 = #$00
 07:A60B:E5 15     SBC $0015 = #$00
 07:A60D:90 03     BCC $A612
 07:A60F:4C 19 A6  JMP $A619
 07:A612:84 18     STY $0018 = #$A8
 07:A614:86 19     STX $0019 = #$DC
 07:A616:4C 1D A6  JMP $A61D
 07:A619:86 18     STX $0018 = #$A8
 07:A61B:86 19     STX $0019 = #$DC
 07:A61D:A5 18     LDA $0018 = #$A8
 07:A61F:D0 03     BNE $A624
 07:A621:4C 27 A6  JMP $A627
 07:A624:4C B3 A3  JMP $A3B3
 07:A627:A0 F3     LDY #$F3
 07:A629:B1 06     LDA ($06),Y @ $8018 = #$AC
 07:A62B:85 18     STA $0018 = #$A8
 07:A62D:86 19     STX $0019 = #$DC
 07:A62F:A5 19     LDA $0019 = #$DC
 07:A631:48        PHA
 07:A632:A5 18     LDA $0018 = #$A8
 07:A634:48        PHA
 07:A635:20 19 E4  JSR $E419
 07:A638:C5 D7     CMP $00D7 = #$0F
 07:A63A:04        UNDEFINED
 07:A63B:86 09     STX $0009 = #$00
 07:A63D:A5 09     LDA $0009 = #$00
 07:A63F:48        PHA
 07:A640:A5 08     LDA $0008 = #$E1
 07:A642:48        PHA
 07:A643:18        CLC
 07:A644:A9 08     LDA #$08
 07:A646:A0 F8     LDY #$F8
 07:A648:71 06     ADC ($06),Y @ $8018 = #$AC
 07:A64A:85 18     STA $0018 = #$A8
 07:A64C:8A        TXA
 07:A64D:C8        INY
 07:A64E:71 06     ADC ($06),Y @ $8018 = #$AC
 07:A650:85 19     STA $0019 = #$DC
 07:A652:A5 19     LDA $0019 = #$DC
 07:A654:48        PHA
 07:A655:A5 18     LDA $0018 = #$A8
 07:A657:48        PHA
 07:A658:20 19 E4  JSR $E419
 07:A65B:3B        UNDEFINED
 07:A65C:D8        CLD
 07:A65D:06 A0     ASL $00A0 = #$0C
 07:A65F:FA        UNDEFINED
 07:A660:B1 06     LDA ($06),Y @ $8018 = #$AC
 07:A662:85 18     STA $0018 = #$A8
 07:A664:C8        INY
 07:A665:B1 06     LDA ($06),Y @ $8018 = #$AC
 07:A667:85 19     STA $0019 = #$DC
 07:A669:A0 02     LDY #$02
 07:A66B:B1 18     LDA ($18),Y @ $DCA9 = #$4C
 07:A66D:A0 F8     LDY #$F8
 07:A66F:D1 06     CMP ($06),Y @ $8018 = #$AC
 07:A671:D0 08     BNE $A67B
 07:A673:A0 03     LDY #$03
 07:A675:B1 18     LDA ($18),Y @ $DCA9 = #$4C
 07:A677:A0 F9     LDY #$F9
 07:A679:D1 06     CMP ($06),Y @ $8018 = #$AC
 07:A67B:D0 03     BNE $A680
 07:A67D:4C C0 A6  JMP $A6C0
 07:A680:A0 F2     LDY #$F2
 07:A682:B1 06     LDA ($06),Y @ $8018 = #$AC
 07:A684:85 18     STA $0018 = #$A8
 07:A686:86 19     STX $0019 = #$DC
 07:A688:A0 F8     LDY #$F8
 07:A68A:B1 06     LDA ($06),Y @ $8018 = #$AC
 07:A68C:85 14     STA $0014 = #$00
 07:A68E:C8        INY
 07:A68F:B1 06     LDA ($06),Y @ $8018 = #$AC
 07:A691:85 15     STA $0015 = #$00
 07:A693:A0 08     LDY #$08
 07:A695:B1 14     LDA ($14),Y @ $0001 = #$EE
 07:A697:85 10     STA $0010 = #$18
 07:A699:86 11     STX $0011 = #$05
 07:A69B:A5 10     LDA $0010 = #$18
 07:A69D:C5 18     CMP $0018 = #$A8
 07:A69F:A5 11     LDA $0011 = #$05
 07:A6A1:E5 19     SBC $0019 = #$DC
 07:A6A3:90 03     BCC $A6A8
 07:A6A5:4C C0 A6  JMP $A6C0
 07:A6A8:A0 F9     LDY #$F9
 07:A6AA:B1 06     LDA ($06),Y @ $8018 = #$AC
 07:A6AC:48        PHA
 07:A6AD:88        DEY
 07:A6AE:B1 06     LDA ($06),Y @ $8018 = #$AC
 07:A6B0:48        PHA
 07:A6B1:A0 FB     LDY #$FB
 07:A6B3:B1 06     LDA ($06),Y @ $8018 = #$AC
 07:A6B5:48        PHA
 07:A6B6:88        DEY
 07:A6B7:B1 06     LDA ($06),Y @ $8018 = #$AC
 07:A6B9:48        PHA
 07:A6BA:20 19 E4  JSR $E419
 07:A6BD:ED 84 06  SBC $0684 = #$F8
 07:A6C0:4C B3 A3  JMP $A3B3
 07:A6C3:4C D0 A2  JMP $A2D0
 07:A6C6:4C 88 A1  JMP $A188
 07:A6C9:60        RTS -----------------------------------------
 07:A6CA:20 7A E3  JSR $E37A
 07:A6CD:00        BRK
 07:A6CE:E8        INX
 07:A6CF:FF        UNDEFINED
 07:A6D0:AD 4C 78  LDA $784C = #$B9
 07:A6D3:A0 E8     LDY #$E8
 07:A6D5:91 06     STA ($06),Y @ $8018 = #$AC
 07:A6D7:A9 01     LDA #$01
 07:A6D9:2D 4D 78  AND $784D = #$00
 07:A6DC:C8        INY
 07:A6DD:91 06     STA ($06),Y @ $8018 = #$AC
 07:A6DF:8A        TXA
 07:A6E0:48        PHA
 07:A6E1:A9 16     LDA #$16
 07:A6E3:48        PHA
 07:A6E4:18        CLC
 07:A6E5:A9 EA     LDA #$EA
 07:A6E7:65 06     ADC $0006 = #$17
 07:A6E9:85 18     STA $0018 = #$A8
 07:A6EB:8A        TXA
 07:A6EC:65 07     ADC $0007 = #$80
 07:A6EE:85 19     STA $0019 = #$DC
 07:A6F0:A5 19     LDA $0019 = #$DC
 07:A6F2:48        PHA
 07:A6F3:A5 18     LDA $0018 = #$A8
 07:A6F5:48        PHA
 07:A6F6:A9 16     LDA #$16
 07:A6F8:85 18     STA $0018 = #$A8
 07:A6FA:86 19     STX $0019 = #$DC
 07:A6FC:88        DEY
 07:A6FD:B1 06     LDA ($06),Y @ $8018 = #$AC
 07:A6FF:85 14     STA $0014 = #$00
 07:A701:C8        INY
 07:A702:B1 06     LDA ($06),Y @ $8018 = #$AC
 07:A704:85 15     STA $0015 = #$00
 07:A706:A0 14     LDY #$14
 07:A708:A2 18     LDX #$18
 07:A70A:A9 10     LDA #$10
 07:A70C:20 58 E2  JSR $E258
 07:A70F:18        CLC
 07:A710:A5 10     LDA $0010 = #$18
 07:A712:69 1C     ADC #$1C
 07:A714:85 18     STA $0018 = #$A8
 07:A716:A5 11     LDA $0011 = #$05
 07:A718:69 A0     ADC #$A0
 07:A71A:85 19     STA $0019 = #$DC
 07:A71C:A5 19     LDA $0019 = #$DC
 07:A71E:48        PHA
 07:A71F:A5 18     LDA $0018 = #$A8
 07:A721:48        PHA
 07:A722:8A        TXA
 07:A723:48        PHA
 07:A724:A9 FB     LDA #$FB
 07:A726:48        PHA
 07:A727:8A        TXA
 07:A728:48        PHA
 07:A729:A9 02     LDA #$02
 07:A72B:48        PHA
 07:A72C:20 19 E4  JSR $E419
 07:A72F:FE DC 0C  INC $0CDC,X @ $0CDE = #$00
 07:A732:A0 EA     LDY #$EA
 07:A734:B1 06     LDA ($06),Y @ $8018 = #$AC
 07:A736:8D 47 78  STA $7847 = #$BE
 07:A739:C8        INY
 07:A73A:B1 06     LDA ($06),Y @ $8018 = #$AC
 07:A73C:8D 48 78  STA $7848 = #$FF
 07:A73F:18        CLC
 07:A740:A9 EC     LDA #$EC
 07:A742:65 06     ADC $0006 = #$17
 07:A744:85 18     STA $0018 = #$A8
 07:A746:8A        TXA
 07:A747:65 07     ADC $0007 = #$80
 07:A749:85 19     STA $0019 = #$DC
 07:A74B:AD 05 60  LDA $6005 ; Scenario
 07:A74E:85 14     STA $0014 = #$00
 07:A750:86 15     STX $0015 = #$00
 07:A752:18        CLC
 07:A753:A5 14     LDA $0014 = #$00
 07:A755:65 18     ADC $0018 = #$A8
 07:A757:85 10     STA $0010 = #$18
 07:A759:A5 15     LDA $0015 = #$00
 07:A75B:65 19     ADC $0019 = #$DC
 07:A75D:85 11     STA $0011 = #$05
 07:A75F:A1 10     LDA ($10,X) @ $0538 = #$00
 07:A761:8D 49 78  STA $7849 = #$14
 07:A764:A0 F2     LDY #$F2
 07:A766:B1 06     LDA ($06),Y @ $8018 = #$AC
 07:A768:8D 4A 78  STA $784A = #$CE
 07:A76B:C8        INY
 07:A76C:B1 06     LDA ($06),Y @ $8018 = #$AC
 07:A76E:8D 4B 78  STA $784B = #$00
 07:A771:18        CLC
 07:A772:A9 F4     LDA #$F4
 07:A774:65 06     ADC $0006 = #$17
 07:A776:85 18     STA $0018 = #$A8
 07:A778:8A        TXA
 07:A779:65 07     ADC $0007 = #$80
 07:A77B:85 19     STA $0019 = #$DC
 07:A77D:A9 01     LDA #$01
 07:A77F:85 14     STA $0014 = #$00
 07:A781:86 15     STX $0015 = #$00
 07:A783:AD 05 60  LDA $6005 ; Scenario
 07:A786:85 10     STA $0010 = #$18
 07:A788:86 11     STX $0011 = #$05
 07:A78A:A0 10     LDY #$10
 07:A78C:A2 14     LDX #$14
 07:A78E:A9 0C     LDA #$0C
 07:A790:20 0E D7  JSR $D70E
 07:A793:18        CLC
 07:A794:A5 0C     LDA $000C = #$E5
 07:A796:65 18     ADC $0018 = #$A8
 07:A798:85 14     STA $0014 = #$00
 07:A79A:A5 0D     LDA $000D = #$05
 07:A79C:65 19     ADC $0019 = #$DC
 07:A79E:85 15     STA $0015 = #$00
 07:A7A0:A1 14     LDA ($14,X) @ $0000 = #$E6
 07:A7A2:8D 4C 78  STA $784C = #$B9
 07:A7A5:B1 14     LDA ($14),Y @ $0001 = #$EE
 07:A7A7:8D 4D 78  STA $784D = #$00
 07:A7AA:60        RTS -----------------------------------------
 07:A7AB:B1 02     LDA ($02),Y @ $05DC = #$80
 07:A7AD:99 08 00  STA $0008,Y @ $0009 = #$00
 07:A7B0:88        DEY
 07:A7B1:D0 F8     BNE $A7AB
 07:A7B3:60        RTS -----------------------------------------
 07:A7B4:A0 03     LDY #$03
 07:A7B6:20 AB A7  JSR $A7AB
 07:A7B9:A0 1E     LDY #$1E
 07:A7BB:B1 0A     LDA ($0A),Y @ $BDD1 = #$FF
 07:A7BD:C9 FF     CMP #$FF
 07:A7BF:F0 1D     BEQ $A7DE
 07:A7C1:A0 07     LDY #$07
 07:A7C3:B1 0A     LDA ($0A),Y @ $BDD1 = #$FF
 07:A7C5:29 08     AND #$08
 07:A7C7:D0 09     BNE $A7D2
 07:A7C9:B1 0A     LDA ($0A),Y @ $BDD1 = #$FF
 07:A7CB:09 08     ORA #$08
 07:A7CD:91 0A     STA ($0A),Y @ $BDD1 = #$FF
 07:A7CF:4C DE A7  JMP $A7DE
 07:A7D2:B1 0A     LDA ($0A),Y @ $BDD1 = #$FF
 07:A7D4:29 F7     AND #$F7
 07:A7D6:91 0A     STA ($0A),Y @ $BDD1 = #$FF
 07:A7D8:A0 1E     LDY #$1E
 07:A7DA:A9 FF     LDA #$FF
 07:A7DC:91 0A     STA ($0A),Y @ $BDD1 = #$FF
 07:A7DE:60        RTS -----------------------------------------
----------------------------------------------------------------
Strings

A7E0 1B 43 31 "\nMaster %s,\n"
A7F0 "%s of\nProvince %2d has become\na free general"
----------------------------------------------------------------
A81C - Table?
00 1F00
01 1000
----------------------------------------------------------------
Function $AC00
AC00 JMP $0000
----------------------------------------------------
     00 01 02 03 04 05 06 07 08 09 0A 0B 0C 0D 0E 0F
AC00          20 D1 E4 FE FF A5 20 79 D8 19 AC 8E FD
AC10 AB 8E E0 00 62 E9 12 F4 06 8E 0F A5 8E F4 00 62
AC20 E9 12 F4 06 6B 6D DE FE FF B3 DE FF FF B3 8E 65
AC30 A5 8E F4 00 62 E9 12 F4 0E 61 6B 6D A0 FE FF B3
AC40 A0 FF FF B3 E9 2B B1 0A CF 
----------------------------------------------------
     00 01 02 03 04 05 06 07 08 09 0A 0B 0C 0D 0E 0F
AC40                            20 D1 E4 FE FF 8E FD
AC50 AB 8E E0 00 62 E9 12 F4 06 8E 0F A5 8E F4 00 62
AC60 E9 12 F4 06 6A 6C DE FE FF B3 DE FF FF B3 8E 65
AC70 A5 8E F4 00 62 E9 12 F4 0E 62 6A 6C A0 FE FF B3
AC80 A0 FF FF B3 E9 2B B1 0A CF 

Function $AC49

AC4E 8E FD AB
AC51 8E E0 00
AC54 62
AC55 E9 12 F4 06 / Call $F412 -> E0:ABFD

AC59 8E 0F A5
AC5C 8E F4 00
AC5F 62
AC60 E9 12 F4 06 / Call $F412 -> F4:A50F

AC64 6A
AC65 6C
AC66 DE FE FF
AC69 B3
AC6A DE FF FF
AC6D B3
AC6E 8E 65 A5
AC71 8E F4 00
AC74 62
AC75 E9 12 F4 0E / Call $F412 -> F4:A565

AC79 62
AC7A 6A
AC7B 6C
AC7C A0 FE FF
AC7F B3
AC80 A0 FF FF
AC83 B3
AC84 E9 2B B1 0A / Call $B12B

AC88 CF
----------------------------------------------------
     00 01 02 03 04 05 06 07 08 09 0A 0B 0C 0D 0E 0F
AC80                            20 D1 E4 00 00 66 62
AC90 E9 C9 D3 04 62 3C E9 2D C1 04 B3 E9 4A C4 02 67
ACA0 62 E9 C9 D3 04 63 3C E9 2D C1 04 B3 E9 4A C4 02
ACB0 CF 
----------------------------------------------------
     00 01 02 03 04 05 06 07 08 09 0A 0B 0C 0D 0E 0F
ACB0    20 D1 E4 FF FF A0 0B 00 D5 FF FF 08 00 D4 AC
ACC0 D0 AC 0A AD D4 AC 06 AD D4 AC D4 AC D4 AC 0E AD
ACD0 40 A2 FF FF A0 11 00 B3 A0 FF FF 53 B5 B4 BB 8C
ACE0 A6 BB BB D3 B3 A0 11 00 B3 A0 FF FF 53 B5 B4 BB
ACF0 8C 9A BB BB D3 B3 61 61 A0 0F 00 B3 A0 0D 00 B3
AD00 67 E9 E6 EE 0E CF 42 D6 D1 AC 41 D6 D1 AC 43 D6
AD10 D1 AC 
----------------------------------------------------
     00 01 02 03 04 05 06 07 08 09 0A 0B 0C 0D 0E 0F
AD10       20 D1 E4 00 00 0C A6 F9 7B C0 D7 2B AD 0C
AD20 A6 0B 7C C0 D7 2B AD 40 D6 2C AD 41 CF 

Function $AD12 (00 00)
Args:
<0C> General

AD17 0C
AD18 A6 F9 7B    / $7BF9
AD1B C0
AD1C D7 2B AD

AD1F 0C
AD20 A6 0B 7C    / $7C0B
AD23 C0
AD24 D7 2B AD

if (A && B)
	AD27 40
	AD28 D6 2C AD
else
	AD2B 41
	
AD2C CF
----------------------------------------------------
     00 01 02 03 04 05 06 07 08 09 0A 0B 0C 0D 0E 0F
AD20                                        20 D1 E4
AD30 FB FF 0C 7C B0 8B 64 B8 A2 FF FF A0 FF FF 8B 64
AD40 C0 D8 4E AD 89 82 A2 FD FF 89 83 D6 71 AD A0 FF
AD50 FF 5A B8 8F 77 A2 FD FF A0 FF FF 5A BA A2 FF FF
AD60 A0 FF FF D8 6E AD A0 FF FF 8F 77 D6 71 AD 8A 81
AD70 00 A2 FE FF A0 11 00 B3 A0 13 00 5D B5 B4 BB 8C
AD80 F4 7D BB D3 8B 20 DA D8 8F AD 89 6C D6 91 AD 89
AD90 2C A2 FC FF A2 FB FF 8E EE 00 DE FB FF B3 DE FD
ADA0 FF B3 61 62 A0 0F 00 B3 A0 0D 00 B3 68 E9 E6 EE
ADB0 10 CF 
----------------------------------------------------
     00 01 02 03 04 05 06 07 08 09 0A 0B 0C 0D 0E 0F
ADB0       20 D1 E4 F8 FF 41 A9 64 7F 0C 8F 12 D3 54
ADC0 BE A2 FF FF 0C 8F 12 D3 5F DA A2 FE FF A5 60 7F
ADD0 D7 26 AE A0 FF FF B3 A0 FE FF 5D B5 B4 BB 8C 58
ADE0 7D BB D3 51 C0 D8 26 AE 8D 10 A0 FF FF B3 A0 FE
ADF0 FF 5D B5 B4 BB 8C F4 7D BB B4 B3 D3 DB D4 8E 80
AE00 00 A0 FF FF B3 A0 FE FF 5D B5 B4 BB 8C F4 7D BB
AE10 B4 B3 D3 DB D4 40 A9 64 7F A0 FE FF B3 A0 FF FF
AE20 B3 E9 D5 AE 04 CF 3C 8E 2B A8 8E F4 00 62 E9 12
AE30 F4 08 A2 FD FF A5 60 7F D7 51 AE A0 FF FF B3 A0
AE40 FE FF 5D B5 B4 BB 8C F4 7D BB D3 8B 20 DA D8 51
AE50 AE A0 FE FF B3 A0 FF FF B3 E9 D5 AE 04 A0 FF FF
AE60 A2 F9 FF A0 FE FF A2 F8 FF DE FE FF B3 DE FF FF
AE70 B3 E9 BC AE 04 3C E9 B3 D5 02 D8 81 AE 40 D6 8E
AE80 AE 3C E9 12 AD 02 D8 8D AE 41 D6 8E AE 42 A2 FA
AE90 FF A0 FA FF B3 A0 FE FF B3 A0 FF FF B3 A0 FD FF
AEA0 B3 E9 B1 AC 08 A0 F8 FF B3 A0 F9 FF B3 A0 FE FF
AEB0 D0 B3 A0 FF FF B3 3C E9 2D AD 0A CF 

Function $ADB2 (F8 FF) -> General <00> was on burning tile

     00 01 02 03 04 05 06 07 08 09 0A 0B 0C 0D 0E 0F
ADB0       20 D1 E4 F8 FF 41 A9 64 7F 0C 8F 12 D3 54
ADC0 BE A2 FF FF 0C 8F 12 D3 5F DA A2 FE FF A5 60 7F
ADD0 D7 26 AE A0 FF FF B3 A0 FE FF 5D B5 B4 BB 8C 58
ADE0 7D BB D3 51 C0 D8 26 AE 8D 10 A0 FF FF B3 A0 FE
ADF0 FF 5D B5 B4 BB 8C F4 7D BB B4 B3 D3 DB D4 8E 80
AE00 00 A0 FF FF B3 A0 FE FF 5D B5 B4 BB 8C F4 7D BB
AE10 B4 B3 D3 DB D4 40 A9 64 7F A0 FE FF B3 A0 FF FF
AE20 B3 E9 D5 AE 04 CF 3C 8E 2B A8 8E F4 00 62 E9 12
AE30 F4 08 A2 FD FF A5 60 7F D7 51 AE A0 FF FF B3 A0
AE40 FE FF 5D B5 B4 BB 8C F4 7D BB D3 8B 20 DA D8 51
AE50 AE A0 FE FF B3 A0 FF FF B3 E9 D5 AE 04 A0 FF FF
AE60 A2 F9 FF A0 FE FF A2 F8 FF DE FE FF B3 DE FF FF
AE70 B3 E9 BC AE 04 3C E9 B3 D5 02 D8 81 AE 40 D6 8E
AE80 AE 3C E9 12 AD 02 D8 8D AE 41 D6 8E AE 42 A2 FA
AE90 FF A0 FA FF B3 A0 FE FF B3 A0 FF FF B3 A0 FD FF
AEA0 B3 E9 B1 AC 08 A0 F8 FF B3 A0 F9 FF B3 A0 FE FF
AEB0 D0 B3 A0 FF FF B3 3C E9 2D AD 0A CF 
----------------------------------------------------
     00 01 02 03 04 05 06 07 08 09 0A 0B 0C 0D 0E 0F
AEB0                                     20 D1 E4 00
AEC0 00 3D 0C D3 51 DA B3 0D D3 D2 B4 BB 73 D4 3C 0C
AED0 D3 D2 73 D4 CF 

Function $AEBC (00 00)
                                          STACK
AEC1 3D -> pointer to col value           (pointer to col)
AEC2 0C -> pointer to row vaue
AEC3 D3 -> row value
AEC4 51
AEC5 DA 
AEC6 B3 -> odd row                        (is row odd) (pointer to col)
AEC7 0D 
AEC8 D3 -> col value
AEC9 D2 ->
AECA B4 
AECB BB 
AECC 73 -> 
AECD D4 -> COL = 2*COL + 3 (+1 if row is odd)

AECE 3C -> pointer to row
AECF 0C 
AED0 D3 -> row
AED1 D2 -> 2*row value
AED2 73 -> 
AED3 D4 -> ROW = 2*ROW + 3
AED4 CF
----------------------------------------------------
     00 01 02 03 04 05 06 07 08 09 0A 0B 0C 0D 0E 0F
AED0                20 D1 E4 FD FF A0 0B 00 A2 FE FF
AEE0 A0 0D 00 A2 FD FF A0 0B 00 B3 A0 0D 00 5D B5 B4
AEF0 BB 8C 58 7D BB D3 A2 FF FF DE 0D 00 B3 DE 0B 00
AF00 B3 E9 BC AE 04 8E EE 00 A0 FF FF D2 D2 8C CE BB
AF10 BB B3 A0 FF FF D2 D2 8C B2 BB BB B3 62 62 A0 0D
AF20 00 B3 A0 0B 00 B3 68 E9 E6 EE 10 A0 FE FF B3 A0
AF30 FD FF 5D B5 B4 BB 8C F4 7D BB D3 8B 20 DA D8 78
AF40 AF A5 64 7F D7 63 AF 8E EE 00 8E EC BB 8E EA BB
AF50 61 62 A0 0D 00 D0 B3 A0 0B 00 B3 68 E9 E6 EE 10
AF60 D6 78 AF 8E AD 00 8D 4A 61 61 A0 0D 00 B3 A0 0B
AF70 00 D0 B3 67 E9 E6 EE 0E 40 A9 64 7F CF 

Function $AED5 (FD FF)

AEDA A0 0B 00
AEDD A2 FE FF

AEE0 A0 0D 00
AEE3 A2 FD FF

AEE6 A0 0B 00
AEE9 B3
AEEA A0 0D 00
AEED 5D
AEEE B5
AEEF B4
AEF0 BB
AEF1 8C 58 7D    /$7D58 ; Mobility table?
AEF4 BB
AEF5 D3
AEF6 A2 FF FF    / Terrain type of tile

AEF9 DE 0D 00
AEFC B3
AEFD DE 0B 00
AF00 B3
AF01 E9 BC AE 04 / Call $AEBC

AF05 8E EE 00
AF08 A0 FF FF
AF0B D2
AF0C D2
AF0D 8C CE BB    / $BBCE
AF10 BB
AF11 B3
AF12 A0 FF FF
AF15 D2
AF16 D2
AF17 8C B2 BB    / $BBB2
AF1A BB
AF1B B3
AF1C 62
AF1D 62
AF1E A0 0D 00
AF21 B3
AF22 A0 0B 00
AF25 B3
AF26 68
AF27 E9 E6 EE 10 / Call $EEE6 (print graphic)

AF2B A0 FE FF
AF2E B3
AF2F A0 FD FF
AF32 5D
AF33 B5
AF34 B4
AF35 BB
AF36 8C F4 7D .. /$7DF4
AF39 BB
AF3A D3
AF3B 8B 20
AF3D DA
AF3E D8 78 AF

If tile was burning
	AF41 A5 64 7F    /$7F64
	AF44 D7 63 AF
	
	If (?)
		AF47 8E EE 00
		AF4A 8E EC BB
		AF4D 8E EA BB
		AF50 61
		AF51 62
		AF52 A0 0D 00
		AF55 D0
		AF56 B3
		AF57 A0 0B 00
		AF5A B3
		AF5B 68
		AF5C E9 E6 EE 10 / Call $EEE6 -> Print graphic
		AF60 D6 78 AF
	Else
		AF63 8E AD 00
		AF66 8D 4A
		AF68 61
		AF69 61
		AF6A A0 0D 00
		AF6D B3
		AF6E A0 0B 00
		AF71 D0
		AF72 B3
		AF73 67
		AF74 E9 E6 EE 0E / Call $EEE6 -> Print graphic

AF78 40
AF79 A9 64 7F    / $7F64

AF7C CF
----------------------------------------------------
     00 01 02 03 04 05 06 07 08 09 0A 0B 0C 0D 0E 0F
AF70                                        20 D1 E4
AF80 00 00 0C A9 8A 7C D8 8D AF 64 D6 8E AF 60 60 60
AF90 60 8D 12 E9 E6 EE 0A CF 

Function $AF7D (00 00)

AF82 0C
AF83 A9 8A 7C    / $7C8A
AF86 D8 8D AF

if
	AF89 64
	AF8A D6 8E AF
else
	AF8D 60

AF8E 60
AF8F 60
AF90 60
AF91 8D 12
AF93 E9 E6 EE 0A / Call $EEE6 -> Sysop 0x12 (Set nametable to 0, scroll?)

AF97 CF
----------------------------------------------------
     00 01 02 03 04 05 06 07 08 09 0A 0B 0C 0D 0E 0F
AF90                         20 D1 E4 00 00 63 8E E0
AFA0 E0 8E E0 E0 A0 0B 00 B3 A0 0D 00 58 BD B4 BB B3
AFB0 A0 0F 00 90 00 20 B3 8D 19 E9 E6 EE 0C CF 

Function $AF98 (00 00)

AF9D 63
AF9E 8E E0 E0
AFA1 8E E0 E0
AFA4 A0 0B 00
AFA7 B3
AFA8 A0 0D 00
AFAB 58
AFAC BD
AFAD B4
AFAE BB
AFAF B3
AFB0 A0 0F 00
AFB3 90 00 20
AFB6 B3
AFB7 8D 19
AFB9 E9 E6 EE 0C / Call $EEE6 -> Sysop 0x19
AFBD CF
----------------------------------------------------
     00 01 02 03 04 05 06 07 08 09 0A 0B 0C 0D 0E 0F
AFB0                                           20 D1
AFC0 E4 00 00 A0 0B 00 B3 AA 30 7F AA 2E 7F E9 98 AF
AFD0 06 CF 

Function $AFBE (00 00)

AFC3 A0 0B 00
AFC6 B3
AFC7 AA 30 7F    / $7F30
AFCA AA 2E 7F    / $7F2E
AFCD E9 98 AF 06 / Call $AF98
AFD1 CF
----------------------------------------------------
     00 01 02 03 04 05 06 07 08 09 0A 0B 0C 0D 0E 0F
AFD0       20 D1 E4 00 00 DE 0D 00 B3 DE 0B 00 B3 E9
AFE0 BC AE 04 A0 0B 00 53 BD A8 2E 7F A0 0D 00 53 BD
AFF0 8F FB A8 30 7F CF 

Function $AFD2

AFD7 DE 0D 00    / ptr to y-pos var
AFDA B3
AFDB DE 0B 00    / ptr to x-pos var 
AFDE B3
AFDF E9 BC AE 04 / Call $AEBC

AFE3 A0 0B 00
AFE6 53
AFE7 BD
AFE8 A8 2E 7F .. / $7F2E 
AFEB A0 0D 00
AFEE 53
AFEF BD
AFF0 8F FB
AFF2 A8 30 7F .. / $7F30
AFF5 CF
----------------------------------------------------
     00 01 02 03 04 05 06 07 08 09 0A 0B 0C 0D 0E 0F
AFF0                   20 D1 E4 FE FF A5 1A 7D A2 FF
B000 FF A5 1B 7D A2 FE FF A0 FE FF B3 A0 FF FF B3 E9
B010 D2 AF 04 CF 

Function $AFF6

AFFB A5 1A 7D .. / $7D1A (x-pos of current general)
AFFE A2 FF FF 
B001 A5 1B 7D .. / $7D1B (y-pos of current general)
B004 A2 FE FF

B007 A0 FE FF
B00A B3
B00B A0 FF FF
B00E B3
B00F E9 D2 AF 04 / Call $AFD2
B013 CF
----------------------------------------------------
     00 01 02 03 04 05 06 07 08 09 0A 0B 0C 0D 0E 0F
B010             20 D1 E4 00 00 A0 0B 00 D8 26 B0 AC
B020 F6 AF 61 D6 27 B0 60 E9 BE AF 02 CF 

Function $B014

B019 A0 0B 00
B01C D8 26 B0

if
	B01F AC F6 AF .. / Call $AFF6
	B022 61
	B023 D6 27 B0
else
	B026 60

B027 E9 BE AF 02 / Call $AFBE
B02B CF
----------------------------------------------------
     00 01 02 03 04 05 06 07 08 09 0A 0B 0C 0D 0E 0F
B020                                     20 D1 E4 FF
B030 FF 8E EE BB E9 4A C4 02 AC 5E CC A2 FF FF 8E FD
B040 AB 8E E0 00 62 E9 12 F4 06 A0 FF FF CF 
----------------------------------------------------
     00 01 02 03 04 05 06 07 08 09 0A 0B 0C 0D 0E 0F
B040                                        20 D1 E4
B050 F9 FF 40 A2 FB FF 8A F5 7B 2B D6 A2 B0 0B 74 D6
B060 8F B0 A0 0B 00 D8 89 B0 0A 8F 12 D3 54 BE A2 FA
B070 FF 0A 8F 12 D3 5F DA A2 F9 FF A0 F9 FF B3 A0 FA
B080 FF B3 E9 D5 AE 04 D6 8E B0 3A E9 B2 AD 02 0A B0
B090 2A 0A D7 62 B0 A0 FB FF D0 A2 FB FF D1 0B 79 2B
B0A0 8F F7 A0 FB FF 54 C6 D7 5D B0 CF 
----------------------------------------------------
     00 01 02 03 04 05 06 07 08 09 0A 0B 0C 0D 0E 0F
B0A0                                  20 D1 E4 FF FF
B0B0 60 E9 14 B0 02 66 65 E9 DB B9 04 62 8D 14 8D 10
B0C0 8E 6F AB 8E E0 00 62 E9 12 F4 0C 8E 02 BC E9 4A
B0D0 C4 02 AC 5E CC D8 01 B1 AC C0 B1 8E FD AB 8E E0
B0E0 00 62 E9 12 F4 06 8E FD AB 8E E0 00 62 E9 12 F4
B0F0 06 61 E9 4D B0 02 AC 05 C8 60 E9 4D B0 02 D6 1A
B100 B1 AC C0 B1 8E FD AB 8E E0 00 62 E9 12 F4 06 8E
B110 FD AB 8E E0 00 62 E9 12 F4 06 8E F2 BB 8D 10 8D
B120 10 E9 81 D6 06 61 E9 14 B0 02 CF 
----------------------------------------------------
     00 01 02 03 04 05 06 07 08 09 0A 0B 0C 0D 0E 0F
B120                                  20 D1 E4 00 00
B130 A5 20 79 D0 A9 20 79 A0 13 00 52 C0 D8 46 B1 A0
B140 13 00 D0 D6 49 B1 A0 13 00 B3 A0 0D 00 B3 A0 0B
B150 00 B3 8E FE AA 8E E0 00 62 E9 12 F4 0C A0 11 00
B160 B3 A0 0F 00 B3 A0 0D 00 B3 A0 0B 00 B3 E9 8A CE
B170 08 8E F4 00 A0 13 00 D2 D2 8C 0F BC BB B0 B3 A0
B180 13 00 D2 D2 8C 0D BC BB B0 B3 A0 11 00 B3 A0 0F
B190 00 B3 A0 0D 00 B3 A0 0B 00 B3 68 E9 E6 EE 10 A0
B1A0 0B 00 D0 A8 90 7C A0 0D 00 D0 B3 A0 0B 00 D0 B3
B1B0 E9 1D C4 04 CF 

Function $B12B

B130 A5 20 79 .. / $7920
B133 D0
B134 A9 20 79

B137 A0 13 00
B13A 52
B13B C0
B13C D8 46 B1

B13F A0 13 00
B142 D0
B143 D6 49 B1

B146 A0 13 00

B149 B3
B14A A0 0D 00
B14D B3
B14E A0 0B 00
B151 B3

     00 01 02 03 04 05 06 07 08 09 0A 0B 0C 0D 0E 0F
B150 00 B3 8E FE AA 8E E0 00 62 E9 12 F4 0C A0 11 00
B160 B3 A0 0F 00 B3 A0 0D 00 B3 A0 0B 00 B3 E9 8A CE
B170 08 8E F4 00 A0 13 00 D2 D2 8C 0F BC BB B0 B3 A0
B180 13 00 D2 D2 8C 0D BC BB B0 B3 A0 11 00 B3 A0 0F
B190 00 B3 A0 0D 00 B3 A0 0B 00 B3 68 E9 E6 EE 10 A0
B1A0 0B 00 D0 A8 90 7C A0 0D 00 D0 B3 A0 0B 00 D0 B3
B1B0 E9 1D C4 04 CF 
----------------------------------------------------
     00 01 02 03 04 05 06 07 08 09 0A 0B 0C 0D 0E 0F
B1B0                20 D1 E4 00 00 61 E9 53 D1 02 CF

Function $B1B5

B1BA 61
B1BB E9 53 D1 02 / Call $D153 -> Wait 1*(Wait) frames for response
B1BF CF
----------------------------------------------------
     00 01 02 03 04 05 06 07 08 09 0A 0B 0C 0D 0E 0F
B1C0 20 D1 E4 00 00 8D 1C 61 E9 46 D6 04 CF 

Function $B1C0

B1C5 8D 1C
B1C7 61
B1C8 E9 46 D6 04 / Call $D646
B1CC CF
----------------------------------------------------
     00 01 02 03 04 05 06 07 08 09 0A 0B 0C 0D 0E 0F
B1C0                                        20 D1 E4
B1D0 00 00 A0 0B 00 A9 0B 7D A0 0D 00 A9 F4 7B CF 

Function $B1CD

B1D2 A0 0B 00
B1D5 A9 0B 7D .. / $7D0B
B1D8 A0 0D 00
B1DB A9 F4 7B .. / $7BF4
B1DE CF
----------------------------------------------------
     00 01 02 03 04 05 06 07 08 09 0A 0B 0C 0D 0E 0F
B1D0                                              20
B1E0 D1 E4 FC FF A0 0D 00 B3 A0 0B 00 54 BD B4 DB A2
B1F0 FD FF 40 D6 1C B2 A0 FC FF 59 B5 8C F9 7B BB D6
B200 12 B2 A0 FD FF B3 0B 8F 12 D3 B4 C0 D8 11 B2 0B
B210 CF 0B B0 2B 0B D7 02 B2 A0 FC FF D0 A2 FC FF A0
B220 FC FF 54 C6 D7 F6 B1 40 CF 

Function $B1DF (FC FF) -> Returns the general on tile <00>/<02>

B1E4 A0 0D 00
B1E7 B3
B1E8 A0 0B 00
B1EB 54
B1EC BD
B1ED B4
B1EE DB
B1EF A2 FD FF .. / Compresed tile ID

B1F2 40
B1F3 D6 1C B2

Loop (FC=0, FC<6, FC++)
	B1F6 A0 FC FF
	B1F9 59
	B1FA B5
	B1FB 8C F9 7B    / $7BF9
	B1FE BB
	B1FF D6 12 B2
	
	Loop through generals? on map:
		B202 A0 FD FF
		B205 B3
		B206 0B
		B207 8F 12
		B209 D3
		B20A B4
		B20B C0
		B20C D8 11 B2
		
		If
			B20F 0B
			B210 CF
		
		B211 0B
	
	Bounds check:
		B212 B0
		B213 2B
		B214 0B
		B215 D7 02 B2
	
	B218 A0 FC FF
	B21B D0
	
Bounds check:
	B21C A2 FC FF
	B21F A0 FC FF
	B222 54
	B223 C6
	B224 D7 F6 B1
	
B227 40
B228 CF
----------------------------------------------------
     00 01 02 03 04 05 06 07 08 09 0A 0B 0C 0D 0E 0F
B220                            20 D1 E4 00 00 66 61
B230 E9 C9 D3 04 A0 0B 00 53 C0 D8 43 B2 8E 92 BC E9
B240 4A C4 02 A0 0B 00 52 C0 D8 60 B2 A0 0B 00 D2 8C
B250 1A BC BB B0 B3 E9 4A C4 02 A0 0B 00 D0 A2 0B 00
B260 A0 0B 00 59 C0 D8 6F B2 AA 2E BC E9 4A C4 02 A0
B270 0B 00 D2 8C 1A BC BB B0 B3 8E 99 BC E9 8C C6 04
B280 6A E9 26 D1 02 A0 0D 00 D8 99 B2 8E FD AB 8E E0
B290 00 62 E9 12 F4 06 D6 BA B2 60 60 62 69 A5 20 79
B2A0 D1 D2 8C 1B 79 BB D3 77 B3 A5 20 79 D1 D2 8C 1A
B2B0 79 BB D3 D0 B3 67 E9 E6 EE 0E CF 
----------------------------------------------------
     00 01 02 03 04 05 06 07 08 09 0A 0B 0C 0D 0E 0F
B2B0                                  20 D1 E4 F4 FF
B2C0 40 A2 FA FF A0 0B 00 59 B5 8C F5 7B BB B0 28 A0
B2D0 0B 00 51 C0 D8 DB B2 40 D6 DC B2 42 59 B5 8C F5
B2E0 7B BB B0 26 A0 0B 00 51 C0 D8 F0 B2 42 D6 F1 B2
B2F0 40 59 B5 8C F5 7B BB B0 27 06 8C D4 71 BC 8B 22
B300 B8 18 BB 7E D3 A2 FF FF 07 8C D4 71 BC 8B 22 B8
B310 18 BB 7E D3 A2 FE FF 08 79 D3 B3 06 8C D4 71 BC
B320 8B 22 B8 B4 C0 D8 2D B3 89 32 D6 6A B3 A0 FE FF
B330 B3 A0 FF FF B4 C8 D8 6D B3 08 76 D3 A2 FD FF 06
B340 76 D3 A2 FC FF 61 08 B0 B3 E9 19 C0 04 A2 FB FF
B350 A0 FB FF 53 B8 B3 A0 FC FF 53 B8 B3 A0 FD FF 53
B360 B8 B4 BB B4 BB B3 89 64 B4 BC A2 FA FF A0 FA FF
B370 B3 8D 64 E9 C5 D7 02 B4 C6 D8 80 B3 41 D6 81 B3
B380 40 CF 
----------------------------------------------------
     00 01 02 03 04 05 06 07 08 09 0A 0B 0C 0D 0E 0F
B380       20 D1 E4 00 00 A0 0F 00 B3 A0 0B 00 B4 C0
B390 D8 A5 B3 A0 11 00 B3 A0 0D 00 B4 C8 D8 A3 B3 44
B3A0 D6 A4 B3 41 CF A0 0F 00 B3 A0 0B 00 B4 C8 D8 DD
B3B0 B3 A0 0B 00 51 DA D7 CB B3 A0 11 00 B3 A0 0D 00
B3C0 B4 C8 D8 C9 B3 43 D6 CA B3 40 CF A0 11 00 B3 A0
B3D0 0D 00 B4 C6 D8 DB B3 40 D6 DC B3 43 CF A0 0B 00
B3E0 51 DA D7 F7 B3 A0 11 00 B3 A0 0D 00 B4 C8 D8 F5
B3F0 B3 45 D6 F6 B3 42 CF A0 11 00 B3 A0 0D 00 B4 C6
B400 D8 07 B4 42 D6 08 B4 45 CF 
----------------------------------------------------
     00 01 02 03 04 05 06 07 08 09 0A 0B 0C 0D 0E 0F
B400                            20 D1 E4 FC FF 60 8E
B410 F6 BA 8E E0 00 62 E9 12 F4 08 8A BF 7B D6 37 B4
B420 A0 0B 00 B3 0A 8F 1E D3 B4 C0 D8 35 B4 0A 8F 1E
B430 B3 8A FF 00 D4 0B 72 2B 0B B0 2A D7 20 B4 CF 
----------------------------------------------------
     00 01 02 03 04 05 06 07 08 09 0A 0B 0C 0D 0E 0F
B430                                              20
B440 D1 E4 FE FF 0D 8C D4 71 BC 8B 22 B8 A2 FF FF 0C
B450 8C D4 71 BC 8B 22 B8 A2 FE FF A0 FE FF B3 41 B4
B460 BD CC B3 0D 7A B4 B3 B0 DA B1 A0 FF FF B3 41 B4
B470 BD CC B3 0C 7A B4 B3 B0 DA B1 A0 FE FF B3 0D 8F
B480 1E D3 B4 C0 D8 8F B4 0D 8F 1E B3 8A FF 00 D4 A0
B490 FF FF B3 0C 8F 1E D3 B4 C0 D8 A4 B4 0C 8F 1E B3
B4A0 8A FF 00 D4 CF 
----------------------------------------------------
     00 01 02 03 04 05 06 07 08 09 0A 0B 0C 0D 0E 0F
B4A0                20 D1 E4 FA FF 6F 0C 73 B4 B3 D3
B4B0 DA D4 0C 75 D3 8B 1E B8 B3 62 E9 C5 D7 02 73 B4
B4C0 BC B3 0C 73 B4 B3 D3 DB D4 A0 0D 00 59 B5 8C F5
B4D0 7B BB 29 09 76 B0 D7 E2 B4 09 76 B3 0C B1 3C 40
B4E0 B1 CF 3C E9 B3 D5 02 D8 F7 B4 09 76 B0 2B 09 76
B4F0 B3 0C B1 3C 0B B1 CF 09 76 B0 B3 8E 89 BA 8E E0
B500 00 62 E9 12 F4 08 2B 3B 0C B1 3C 40 B1 CF 
----------------------------------------------------
     00 01 02 03 04 05 06 07 08 09 0A 0B 0C 0D 0E 0F
B500                                           20 D1
B510 E4 FE FF 0C 8F 12 D3 54 BE A2 FF FF 0C 8F 12 D3
B520 5F DA A2 FE FF 8D 20 A0 FF FF B3 A0 FE FF 5D B5
B530 B4 BB 8C F4 7D BB B4 B3 D3 DA D4 0C 8F 12 B3 8A
B540 FF 00 D4 0C 8F 11 B3 40 D4 CF 
----------------------------------------------------
     00 01 02 03 04 05 06 07 08 09 0A 0B 0C 0D 0E 0F
B540                               20 D1 E4 FE FF 0C
B550 8F 12 D3 54 BE A2 FF FF 0C 8F 12 D3 5F DA A2 FE
B560 FF 3C E9 0E B5 02 A0 FE FF B3 A0 FF FF B3 E9 D5
B570 AE 04 CF 
----------------------------------------------------
     00 01 02 03 04 05 06 07 08 09 0A 0B 0C 0D 0E 0F
B570          20 D1 E4 FE FF 6A E9 C5 D7 02 A2 FF FF
B580 40 D6 B6 B5 A0 FE FF B3 A5 25 7C D2 D2 B4 BB 8C
B590 9C BC BB D3 B3 A0 FF FF B4 C6 D8 B2 B5 A5 25 7C
B5A0 B3 A0 FE FF B4 C1 D8 B2 B5 A0 FE FF A9 25 7C D6
B5B0 C1 B5 A0 FE FF D0 A2 FE FF A0 FE FF 54 C6 D7 84
B5C0 B5 CF 
----------------------------------------------------
     00 01 02 03 04 05 06 07 08 09 0A 0B 0C 0D 0E 0F
B5C0       20 D1 E4 00 00 A0 0B 00 B3 A0 0D 00 5D B5
B5D0 B4 BB 8C F4 7D BB D3 5F DA D8 E1 B5 89 14 D6 E3
B5E0 B5 89 32 B3 8D 64 E9 C5 D7 02 B4 C6 D8 F3 B5 41
B5F0 D6 F4 B5 40 CF 

Function $B5C2 (00 00) -> Determines if fire spreads from tile <00>/<02>

B5C7 A0 0B 00
B5CA B3
B5CB A0 0D 00
B5CE 5D
B5CF B5
B5D0 B4
B5D1 BB
B5D2 8C F4 7D
B5D5 BB
B5D6 D3
B5D7 5F
B5D8 DA          / Check if there is a general on that tile
B5D9 D8 E1 B5

If there is a general on that tile
	B5DC 89 14
	B5DE D6 E3 B5    / 20% chance of fire spreading
Else
	B5E1 89 32       / 50% chance of fire spreading
	
B5E3 B3
B5E4 8D 64
B5E6 E9 C5 D7 02 / Call $D7C5 (RNG 00-99)
B5EA B4
B5EB C6
B5EC D8 F3 B5

if
	B5EF 41
	B5F0 D6 F4 B5
else
	B5F3 40

B5F4 CF
----------------------------------------------------
     00 01 02 03 04 05 06 07 08 09 0A 0B 0C 0D 0E 0F
B5F0                20 D1 E4 00 00 A5 0D 7D B3 A5 0E
B600 7D 5D B5 B4 BB 8C F4 7D BB D3 5C DA CF 

Function $B5F5 (00 00)

B5FA A5 0D 7D    / $7D0D
B5FD B3
B5FE A5 0E 7D    / $7D0E
B601 5D
B602 B5
B603 B4
B604 BB
B605 8C F4 7D    / $7DF4
B608 BB
B609 D3
B60A 5C
B60B DA
B60C CF 
----------------------------------------------------
     00 01 02 03 04 05 06 07 08 09 0A 0B 0C 0D 0E 0F
B600                                        20 D1 E4
B610 FE FF A0 0D 00 B3 A0 0B 00 B3 E9 C2 B5 04 D8 5A
B620 B6 A0 0D 00 B3 A0 0B 00 B3 E9 DF B1 04 2B 8E DF
B630 00 A0 0B 00 B3 A0 0D 00 5D B5 B4 BB 8C F4 7D BB
B640 B4 B3 D3 DA D4 A0 0D 00 B3 A0 0B 00 B3 E9 D5 AE
B650 04 0B D8 5A B6 3B E9 B2 AD 02 CF 

Function $B60D -> Check if fire burns out on tile <00>/<02> (No wind)

B612 A0 0D 00
B615 B3
B616 A0 0B 00
B619 B3
B61A E9 C2 B5 04 / Call $B5C2 -> Check if fire spreads
B61E D8 5A B6

If fire spreads
	B621 A0 0D 00
	B624 B3
	B625 A0 0B 00
	B628 B3
	B629 E9 DF B1 04 / Call $B1DF -> Check what general is on the burning tile
	B62D 2B

	B52E 8E DF 00
	B631 A0 0B 00
	B634 B3
	B635 A0 0D 00
	B638 5D
	B639 B5
	B63A B4
	B63B BB
	B63C 8C F4 7D
	B63F BB
	B640 B4
	B641 B3
	B642 D3
	B643 DA
	B644 D4          / Tile is no longer on fire
	
	B645 A0 0D 00
	B648 B3
	B649 A0 0B 00
	B64C B3
	B64D E9 D5 AE 04 / Call $AED5
	
	B651 0B
	B652 D8 5A B6
	
	If there was a general on that tile
		B655 3B
		B656 E9 B2 AD 02 / Call $ADB2

B65A CF
----------------------------------------------------
     00 01 02 03 04 05 06 07 08 09 0A 0B 0C 0D 0E 0F
B650                                  20 D1 E4 FC FF
B660 40 D6 CA B6 40 D6 BB B6 A0 FD FF B3 A0 FC FF 5D
B670 B5 B4 BB 8C F4 7D BB D3 8B 20 DA D8 B7 B6 A0 FC
B680 FF B3 A0 FD FF B3 E9 DF B1 04 2B 8E DF 00 A0 FD
B690 FF B3 A0 FC FF 5D B5 B4 BB 8C F4 7D BB B4 B3 D3
B6A0 DA D4 A0 FC FF B3 A0 FD FF B3 E9 D5 AE 04 0B D8
B6B0 B7 B6 3B E9 B2 AD 02 A0 FD FF D0 A2 FD FF A0 FD
B6C0 FF 5D C6 D7 68 B6 A0 FC FF D0 A2 FC FF A0 FC FF
B6D0 5C C6 D7 64 B6 CF 

Function $B65B (FC FF) -> Rain extinguishes fire

B660 40
B661 D6 CA B6

Loop:
	B664 40
	B665 D6 BB B6
	
	Loop:
		B668 A0 FD FF
		B66B B3
		B66C A0 FC FF
		B66F 5D
		B670 B5
		B671 B4
		B672 BB
		B673 8C F4 7D
		B676 BB
		B677 D3
		B678 8B 20
		B67A DA
		B67B D8 B7 B6
		
		If tile is on fire:
			B67E A0 FC FF
			B681 B3
			B682 A0 FD FF
			B685 B3
			B686 E9 DF B1 04 / Call $B1DF
			B68A 2B
			
			B68B 8E DF 00
			B68E A0 FD FF
			B691 B3
			B692 A0 FC FF
			B695 5D
			B696 B5
			B697 B4
			B698 BB
			B699 8C F4 7D
			B69C BB
			B69D B4
			B69E B3
			B69F D3
			B6A0 DA
			B6A1 D4          / No longer burning
			
			B6A2 A0 FC FF
			B6A5 B3
			B6A6 A0 FD FF
			B6A9 B3
			B6AA E9 D5 AE 04 / Call $AED5
			
			B6AE 0B
			B6AF D8 B7 B6
			
			If
				B6B2 3B
				B6B3 E9 B2 AD 02 / Call $ADB2
		
		B6B7 A0 FD FF
		B6BA D0
		B6BB A2 FD FF
	
	Bounds check:
		B6BB

Bounds check:
	B6CA

     00 01 02 03 04 05 06 07 08 09 0A 0B 0C 0D 0E 0F
B6A0 DA D4 A0 FC FF B3 A0 FD FF B3 E9 D5 AE 04 0B D8
B6B0 B7 B6 3B E9 B2 AD 02 A0 FD FF D0 A2 FD FF A0 FD
B6C0 FF 5D C6 D7 68 B6 A0 FC FF D0 A2 FC FF A0 FC FF
B6D0 5C C6 D7 64 B6 CF 
----------------------------------------------------
     00 01 02 03 04 05 06 07 08 09 0A 0B 0C 0D 0E 0F
B6D0                   20 D1 E4 00 00 A0 0F 00 B3 89
B6E0 64 B4 BC B7 26 B7 0D 0B 00 B7 01 B7 19 64 00 00
B6F0 00 B7 02 CF 

Function $B6D6 (00 00)
Args:
+0B  ?
+0D  ?
+0F  ?

B6DB A0 0F 00
B6DE B3
B6DF 89 64
B6E1 B4
B6E2 BC
B6E3 B7 26
B6E5 B7 0D 
     0B 00
B6E9 B7 01
B6EA B7 19 
     64 00 00 00
B6F1 B7 02
B6F3 CF

----------------------------------------------------
     00 01 02 03 04 05 06 07 08 09 0A 0B 0C 0D 0E 0F
B6F0             20 D1 E4 00 00 A0 0B 00 D2 8C 19 7C
B700 BB B3 8D 1E A0 0B 00 D2 8C 19 7C BB B0 B7 26 B7
B710 14 E9 D6 B6 06 B7 27 B1 A0 0B 00 D2 D2 8C 1D 7C
B720 BB B3 8D 1E A0 0B 00 D2 D2 8C 1D 7C BB B7 16 B7
B730 14 E9 D6 B6 06 B7 17 A0 0B 00 D2 D2 8C 1D 7C BB
B740 B7 16 B7 19 01 00 00 00 B7 08 D8 73 B7 A5 0B 7D
B750 8C FF 00 C0 D8 73 B7 A0 0B 00 D7 61 B7 40 D6 62
B760 B7 44 B3 A0 0B 00 D7 6D B7 41 D6 6E B7 40 B3 E9
B770 CD B1 04 CF 

Function $B6F4 (00 00)
Args:
+0B  ?

B6F9 A0 0B 00
B6FC D2
B6FD 8C 19 7C    / $7C19
B700 BB
B701 B3
B702 8D 1E
B704 A0 0B 00
B707 D2
B708 8C 19 7C
B70B BB
B70C B0
B70D B7 26
B70F B7 14
B711 E9 D6 B6 06 / Call $B6D6

     00 01 02 03 04 05 06 07 08 09 0A 0B 0C 0D 0E 0F
B700 BB B3 8D 1E A0 0B 00 D2 8C 19 7C BB B0 B7 26 B7
B710 14 E9 D6 B6 06 B7 27 B1 A0 0B 00 D2 D2 8C 1D 7C
B720 BB B3 8D 1E A0 0B 00 D2 D2 8C 1D 7C BB B7 16 B7
B730 14 E9 D6 B6 06 B7 17 A0 0B 00 D2 D2 8C 1D 7C BB
B740 B7 16 B7 19 01 00 00 00 B7 08 D8 73 B7 A5 0B 7D
B750 8C FF 00 C0 D8 73 B7 A0 0B 00 D7 61 B7 40 D6 62
B760 B7 44 B3 A0 0B 00 D7 6D B7 41 D6 6E B7 40 B3 E9
B770 CD B1 04 CF 
----------------------------------------------------
     00 01 02 03 04 05 06 07 08 09 0A 0B 0C 0D 0E 0F
B770             20 D1 E4 00 00 A5 0D 7D B3 A5 0E 7D
B780 5D B5 B4 BB 8C F4 7D BB D3 8B 20 DA D8 94 B7 60
B790 E9 F4 B6 02 CF 

Function $B774 (00 00)

B779 A5 0D 7D    / $7D0D
B77C B3
B77D A5 0E 7D    / $7D0E
B780 5D
B781 B5
B782 B4
B783 BB
B784 8C F4 7D    / $7DF4
B787 BB
B788 D3
B789 8B 20
B78B DA
B78C D8 94 B7
B78F	60
B790	E9 F4 B6 02 / Call $B6F4
B794 CF
----------------------------------------------------
     00 01 02 03 04 05 06 07 08 09 0A 0B 0C 0D 0E 0F
B790                20 D1 E4 FC FF 61 B7 0C 0B 00 B7
B7A0 19 1E 00 00 00 B7 02 B7 27 B3 E9 6C F3 04 B7 26
B7B0 B7 0E FC FF A0 0F 00 D2 D2 8C 1D 7C BB B7 16 B7
B7C0 14 B7 0C FC FF B7 15 B7 0A D8 DA B7 A0 0F 00 D2
B7D0 D2 8C 1D 7C BB B7 16 D6 DE B7 B7 0C FC FF B7 14
B7E0 A0 0F 00 D2 D2 8C 1D 7C BB B7 15 B3 B7 16 B7 04
B7F0 B7 17 A0 0F 00 D2 D2 8C 1D 7C BB B7 16 B7 19 00
B800 00 00 00 B7 06 CF 
----------------------------------------------------
     00 01 02 03 04 05 06 07 08 09 0A 0B 0C 0D 0E 0F
B800                   20 D1 E4 00 00 8E AA A5 8E F4
B810 00 62 E9 12 F4 06 61 A0 0B 00 59 B5 8C F5 7B BB
B820 B0 B0 B3 E9 2D C1 04 B3 8E AC BC E9 8C C6 04 8E
B830 B2 BC E9 4A C4 02 61 E9 53 D1 02 8E FD AB 8E E0
B840 00 62 E9 12 F4 06 CF 
----------------------------------------------------
     00 01 02 03 04 05 06 07 08 09 0A 0B 0C 0D 0E 0F
B840                      20 D1 E4 FA FF 42 A2 FB FF
B850 40 A2 FA FF D6 DF B8 60 A0 FB FF B3 8E 1A A3 8E
B860 F4 00 62 E9 12 F4 0A B7 0E FC FF A0 FB FF D7 8F
B870 B8 60 A4 F7 7B 72 B0 B3 8E 67 A8 8E F4 00 62 E9
B880 12 F4 0A B7 1A B7 0C FC FF B7 03 B7 0E FC FF A0
B890 FB FF 51 BE B3 B7 0F FC FF E9 95 B7 06 D8 CE B8
B8A0 A5 0B 7D 8C FF 00 C0 D8 CE B8 A0 FB FF D7 B4 B8
B8B0 40 D6 B5 B8 44 B3 A0 FB FF D7 C0 B8 41 D6 C1 B8
B8C0 40 B3 E9 CD B1 04 A0 FB FF B3 E9 06 B8 02 42 CD
B8D0 A0 FB FF BC A2 FB FF A0 FA FF D0 A2 FA FF D1 A0
B8E0 FA FF 52 C6 D7 57 B8 CF 
----------------------------------------------------
     00 01 02 03 04 05 06 07 08 09 0A 0B 0C 0D 0E 0F
B8E0                         20 D1 E4 FC FF A4 F7 7B
B8F0 2B A5 F4 7B 8C FF 00 C0 D8 02 B9 A5 1C 7D D1 A9
B900 1C 7D A5 1C 7D 52 BE 2A 3A E9 C5 D7 02 1A BB B3
B910 0B 8F 14 D3 B3 E9 4C F3 04 B3 0B 8F 14 B4 B3 D3
B920 BC D4 3A E9 C5 D7 02 1A BB B3 0B 8F 15 D3 B3 E9
B930 4C F3 04 B3 0B 8F 15 B4 B3 D3 BC D4 3A E9 C5 D7
B940 02 1A BB B3 0B 8F 16 D3 B3 E9 4C F3 04 B3 0B 8F
B950 16 B4 B3 D3 BC D4 CF 
----------------------------------------------------
     00 01 02 03 04 05 06 07 08 09 0A 0B 0C 0D 0E 0F
B950                      20 D1 E4 FF FF 0C 78 D3 B3
B960 89 64 B4 BC B3 E9 C5 D7 02 A2 FF FF A0 FF FF B3
B970 8D 64 E9 C5 D7 02 7A B4 C6 CF 
----------------------------------------------------
     00 01 02 03 04 05 06 07 08 09 0A 0B 0C 0D 0E 0F
B970                               20 D1 E4 FB FF 40
B980 2B A0 0B 00 51 DA 51 C0 D8 9A B9 A0 0B 00 51 BE
B990 D2 8C 27 7C BB B0 2B D6 D9 B9 40 D6 CE B9 A0 FB
B9A0 FF D2 B3 A0 0B 00 51 BE 5C B5 B4 BB 8C 2D 7C BB
B9B0 B0 2A 0A D8 CA B9 A0 FB FF D2 B3 A0 0B 00 51 BE
B9C0 5C B5 B4 BB 8C 45 7C D6 94 B9 A0 FB FF D0 A2 FB
B9D0 FF A0 FB FF 56 C6 D7 9E B9 0B CF 

Function $B97A (FB FF)

B97F 40
B980 2B

B981 A0 0B 00
B984 51
B985 DA
B986 51
B987 C0
B988 D8 9A B9

If
	B98B A0 0B 00
	B98E 51
	B98F BE
	B990 D2
	B991 8C 27 7C
	B994 BB
	B995 B0
	B996 2B
	B998 D6 D9 B9
Else
	B99A 40
	B99B D6 CE B9
	
	Loop:
	B99E A0 FB FF
	B9A1 D2
	B9A2 B3
	B9A3 A0 0B 00
	B9A6 51
	B9A7 BE
	B9A8 5C
	B9A9 B5
	B9AA B4
	B9AB BB
	B9AC 8C 2D 7C
	B9AE 
	
	Bounds check:
	B9CE
	
B9D9

     00 01 02 03 04 05 06 07 08 09 0A 0B 0C 0D 0E 0F
B990 D2 8C 27 7C BB B0 2B D6 D9 B9 40 D6 CE B9 A0 FB
B9A0 FF D2 B3 A0 0B 00 51 BE 5C B5 B4 BB 8C 2D 7C BB
B9B0 B0 2A 0A D8 CA B9 A0 FB FF D2 B3 A0 0B 00 51 BE
B9C0 5C B5 B4 BB 8C 45 7C D6 94 B9 A0 FB FF D0 A2 FB
B9D0 FF A0 FB FF 56 C6 D7 9E B9 0B CF 
----------------------------------------------------
     00 01 02 03 04 05 06 07 08 09 0A 0B 0C 0D 0E 0F
B9D0                                  20 D1 E4 00 00
B9E0 8E FD AB 8E E0 00 62 E9 12 F4 06 60 6C 8D 16 A0
B9F0 0D 00 B3 A0 0B 00 B3 E9 2B B1 0A 60 60 E9 C9 D3
BA00 04 60 AA F2 7B E9 CC C2 04 B3 8E CB BC E9 8C C6
BA10 04 8E CF BC E9 8C C6 02 60 65 E9 C9 D3 04 A4 F2
BA20 7B 8C F4 73 BC 8B 19 B8 D0 B3 8E D5 BC E9 8C C6
BA30 04 8E E6 A5 8E F4 00 62 E9 12 F4 06 A5 26 7C B3
BA40 8E 7B A6 8E F4 00 62 E9 12 F4 08 8E C0 A6 8E F4
BA50 00 62 E9 12 F4 06 CF 

Function $B9DB (00 00)

B9E0 8E FD AB
B9E3 8E E0 00
B9E6 62
B9E7 E9 12 F4 06 / Call $F412 -> E0:ABFD

     00 01 02 03 04 05 06 07 08 09 0A 0B 0C 0D 0E 0F
B9E0 8E FD AB 8E E0 00 62 E9 12 F4 06 60 6C 8D 16 A0
B9F0 0D 00 B3 A0 0B 00 B3 E9 2B B1 0A 60 60 E9 C9 D3
BA00 04 60 AA F2 7B E9 CC C2 04 B3 8E CB BC E9 8C C6
BA10 04 8E CF BC E9 8C C6 02 60 65 E9 C9 D3 04 A4 F2
BA20 7B 8C F4 73 BC 8B 19 B8 D0 B3 8E D5 BC E9 8C C6
BA30 04 8E E6 A5 8E F4 00 62 E9 12 F4 06 A5 26 7C B3
BA40 8E 7B A6 8E F4 00 62 E9 12 F4 08 8E C0 A6 8E F4
BA50 00 62 E9 12 F4 06 CF 
----------------------------------------------------
     00 01 02 03 04 05 06 07 08 09 0A 0B 0C 0D 0E 0F
BA50                      20 D1 E4 00 00 A0 0D 00 B3
BA60 A0 0B 00 B3 E9 DB B9 04 8D 14 E9 43 D1 02 AC C0
BA70 B1 8E FD AB 8E E0 00 62 E9 12 F4 06 8E DA BC 8D
BA80 10 8D 10 E9 81 D6 06 CF 

Function $BA57 (00 00)
Args
+0B  ?
+0D  ?

BA5C A0 0D 00    /
BA5F B3
BA60 A0 0B 00    /
BA63 B3
BA64 E9 DB B9 04 / Call $B9DB

     00 01 02 03 04 05 06 07 08 09 0A 0B 0C 0D 0E 0F
BA50                      20 D1 E4 00 00 A0 0D 00 B3
BA60 A0 0B 00 B3 E9 DB B9 04 8D 14 E9 43 D1 02 AC C0
BA70 B1 8E FD AB 8E E0 00 62 E9 12 F4 06 8E DA BC 8D
BA80 10 8D 10 E9 81 D6 06 CF 
----------------------------------------------------
     00 01 02 03 04 05 06 07 08 09 0A 0B 0C 0D 0E 0F
BA80                         20 D1 E4 FB FF A5 1C 7D
BA90 53 BA 51 C0 D8 9F BA 67 E9 C5 D7 02 A9 26 7C 68
BAA0 65 E9 57 BA 04 8A 19 7C 85 FB 40 D6 03 BB A0 FF
BAB0 FF B3 E9 7A B9 02 85 FD 81 FD D7 CD BA A0 FF FF
BAC0 51 C0 D8 FF BA 81 FB 8F 44 B0 D8 FF BA A0 FF FF
BAD0 D9 02 00 01 00 DD BA 03 00 DD BA F1 BA A0 FF FF
BAE0 51 BE 83 FB BB 8F 12 D3 B3 A5 1C 7D B4 C6 D7 FF
BAF0 BA 43 A9 09 7D 8E EA 00 62 62 E9 E6 EE 06 CF A0
BB00 FF FF D0 A2 FF FF A0 FF FF 54 C6 D7 AE BA CF 

BA88 (FB FF)

BA8D A5 1C 7D .. / $7D1C (Day)
BA90 53
BA91 BA          / UMOD 3
BA92 51
BA93 C0
BA94 D8 9F BA

if (day%3 == 1)
	BA97 67
	BA98 E9 C5 D7 02 / Call $D7C5 (RNG 00-06)
	BA9C A9 26 7C    / $7C26 (wind direction) -> Set random wind direction

BA9F 68
BAA0 65
BAA1 E9 57 BA 04 / Call $BA57

BAA5 8A 19 7C    / $7C19
BAA8 85 FB

BAAA 40
BAAB D6 03 BB

Loop:
BAAE A0 FF FF
BAB1 B3
BAB2 E9 7A B9 02 / Call $B97A

Bounds check:
BB03

     00 01 02 03 04 05 06 07 08 09 0A 0B 0C 0D 0E 0F
BAA0 65 E9 57 BA 04 8A 19 7C 85 FB 40 D6 03 BB A0 FF
BAB0 FF B3 E9 7A B9 02 85 FD 81 FD D7 CD BA A0 FF FF
BAC0 51 C0 D8 FF BA 81 FB 8F 44 B0 D8 FF BA A0 FF FF
BAD0 D9 02 00 01 00 DD BA 03 00 DD BA F1 BA A0 FF FF
BAE0 51 BE 83 FB BB 8F 12 D3 B3 A5 1C 7D B4 C6 D7 FF
BAF0 BA 43 A9 09 7D 8E EA 00 62 62 E9 E6 EE 06 CF A0
BB00 FF FF D0 A2 FF FF A0 FF FF 54 C6 D7 AE BA CF 
----------------------------------------------------
     00 01 02 03 04 05 06 07 08 09 0A 0B 0C 0D 0E 0F
BB00                                              20
BB10 D1 E4 FC FF 8A 00 7D 2B 8A 65 7F 2A 60 0A 1B BC
BB20 B3 3B E9 95 F3 06 8A FF 00 A9 09 7D 8A FF 00 A9
BB30 0B 7D 41 A9 1C 7D 6C 8E 1E 7D A5 5E 7F 5C B5 8C
BB40 C0 B9 BB B3 8E F4 00 62 E9 FE DC 0A CF 

Function $BB0F (FC FF)

BB14 8A 00 7D    / $7D00
BB17 2B

BB18 8A 65 7F    / $7F65
BB1B 2A

BB1C 60
BB1D 0A
BB1E 1B
BB1F BC
BB20 B3
BB21 3B
BB22 E9 95 F3 06 / Call $F395 -> Wipe range

BB26 8A FF 00
BB29 A9 09 7D    / $7D09 (Process)

BB2C 8A FF 00
BB2F A9 0B 7D    / $7D0B

BB32 41
BB33 A9 1C 7D    / $7D1C

BB36 6C
BB37 8E 1E 7D
BB3A A5 5E 7F    / $7F5E
BB3D 5C
BB3E B5
BB3F 8C C0 B9    / $B9C0
BB42 BB
BB43 B3
BB44 8E F4 00
BB47 62
BB49 E9 FE DC 0A / Call $DCFE (Retrieve data from page F4)

BB4C CF          / Return
----------------------------------------------------
     00 01 02 03 04 05 06 07 08 09 0A 0B 0C 0D 0E 0F
BB40                                        20 D1 E4
BB50 FF FF A0 0F 00 D8 5C BB 41 D6 5D BB 40 A2 FF FF
BB60 8E AA A5 8E F4 00 62 E9 12 F4 06 A0 0D 00 D2 B3
BB70 A0 FF FF D2 D2 B4 BB 8C EA BC BB B0 B3 61 3C E9
BB80 2D C1 04 B3 8E 34 BD E9 8C C6 06 AC B5 B1 8E FD
BB90 AB 8E E0 00 62 E9 12 F4 06 CF

Function $BB4D (FF FF)
Args:
+0F

BB52 A0 0F 00
BB55 D8 5C BB

if
	BB58 41
	BB59 D6 5D BB
else
	BB5C 40

BB5D A2 FF FF

BB60 8E AA A5
BB63 8E F4 00
BB66 62
BB67 E9 12 F4 06 / Call $F412 -> F4:A5AA

BB6B A0 0D 00
BB6E D2
BB6F B3
BB70 A0 FF FF
BB73 D2
BB74 D2
BB75 B4
BB76 BB
BB77 8C EA BC
BB7A BB
BB7B B0
BB7C B3
BB7D 61
BB7E 3C
BB7F E9 2D C1 04 / Call $C12D -> Get name of general?
BB83 B3
BB84 8E 34 BD    / $BD34 "%s\nwas\n%s\n"
BB87 E9 8C C6 06 / Call $C68C -> Print

BB8B AC B5 B1    / Call $B1B5 Wait 1*(wait) frames for response

BB8E 8E FD AB
BB91 8E E0 00
BB94 62
BB95 E9 12 F4 06 / Call $F412 -> E0:ABFD

BB99 CF
----------------------------------------------------
$BCEA String pointer table
00 BCF2 "captured"
01 BCFB "captured\nby the\nenemy"
02 BD11 "eliminated"
03 BD1C "eliminated\nby the\nenemy"

BD34 "%s\nwas\n%s\n"