Page E8
ROM: 0x10010-0x1200F
----------------------------------------------------
Function $8000
8000 JMP $829F
----------------------------------------------------
     00 01 02 03 04 05 06 07 08 09 0A 0B 0C 0D 0E 0F
8000          20 D1 E4 00 00 A0 0D 00 A9 09 7D A0 0B
8010 00 B3 62 62 E9 E6 EE 06 CF 

Function $8003 (00 00) -> Run Process <02> on Page <00>
Args:
+0B  Page #
+0D  Process #

8008 A0 0D 00
800B A9 09 7D    / $7D09 (Process #)

800E A0 0B 00
8011 B3
8012 62
8013 62
8014 E9 E6 EE 06 / Call $EEE6 -> Run page on Bank 2

8018 CF
----------------------------------------------------
     00 01 02 03 04 05 06 07 08 09 0A 0B 0C 0D 0E 0F
8010                            20 D1 E4 00 00 0C 8C
8020 F4 73 BC 8B 19 B8 D0 B3 A0 0D 00 B3 A0 0F 00 5D
8030 B5 B4 BB 8C 90 7E BB D3 B4 C1 D7 57 80 A0 0D 00
8040 B3 A0 0F 00 5D B5 B4 BB 8C F4 7D BB D3 8B 2F DA
8050 D7 57 80 40 D6 58 80 41 CF 

Function $8019 (00 00)
Args
<0C> Province
+0D  Col? (Entry in $7E90)
+0F  Row? (Entry in $7E90)

801E 0C
801F 8C F4 73    / $73F4
8022 BC
8023 8B 19
8025 B8          / Province ID
8026 D0
8027 B3          / Province ID + 1
8028 A0 0D 00
802B B3
802C A0 0F 00
802F 5D
8030 B5
8031 B4
8032 BB
8033 8C 90 7E    / $7E90
8036 BB
8037 D3
8038 B4
8039 C1         
803A D7 57 80

803D A0 0D 00
8040 B3
8041 A0 0F 00
8044 5D
8045 B5
8046 B4
B047 BB
B048 8C F4 7D    / $7DF4
B04B BB
B04C D3
B04D 8B 2F
B04F DA
B050 D7 57 80

if (!A && !B)
{
	B053 40          / Return 0
	B054 D6 58 80
}
else
{
	8057 41       .. / Return 1
}
	
8058 CF
----------------------------------------------------
     00 01 02 03 04 05 06 07 08 09 0A 0B 0C 0D 0E 0F
8050                            20 D1 E4 FF FF A0 0F
8060 00 51 DA 51 C0 D8 90 80 A0 0F 00 51 C0 D8 7E 80
8070 A5 5E 7F 51 DA 51 C0 D8 8A 80 43 D6 8D 80 A5 5E
8080 7F 51 C8 D8 8A 80 41 D6 8D 80 A0 0F 00 A2 0F 00
8090 A0 0F 00 B3 41 B4 BD B3 A0 0B 00 B3 A0 0D 00 5D
80A0 B5 B4 BB 8C F4 7D BB B4 B3 D3 DB D4 CF 

Function $8059 (FF FF)

805E A0 0F 00
8061 51
8062 DA
8063 51
8064 C0
8065 D8 90 80

8068 A0 0F 00
806B 51
806C C0
806D D8 7E 80

8070 A5 5E 7F    / $7F5E
8073 51
8074 DA
8075 51
8076 C0
8077 D8 8A 80

807A 43
807B D6 8D 80

807E A5 5E 7F
808

8090

     00 01 02 03 04 05 06 07 08 09 0A 0B 0C 0D 0E 0F
8070 A5 5E 7F 51 DA 51 C0 D8 8A 80 43 D6 8D 80 A5 5E
8080 7F 51 C8 D8 8A 80 41 D6 8D 80 A0 0F 00 A2 0F 00
8090 A0 0F 00 B3 41 B4 BD B3 A0 0B 00 B3 A0 0D 00 5D
80A0 B5 B4 BB 8C F4 7D BB B4 B3 D3 DB D4 CF 
----------------------------------------------------
     00 01 02 03 04 05 06 07 08 09 0A 0B 0C 0D 0E 0F
80A0                                        20 D1 E4
80B0 00 00 A4 2C 7D 8F 11 D3 56 C6 D8 C8 80 61 A4 2C
80C0 7D 8F 11 B4 B3 D3 BB D4 A0 0B 00 D8 1B 81 62 A5
80D0 20 79 D1 D2 8C 1B 79 BB D3 75 B3 A5 20 79 D1 D2
80E0 8C 1A 79 BB D3 73 B3 8E 6F AB 8E E0 00 62 E9 12
80F0 F4 0C A4 2C 7D 8F 11 D3 B3 8E 74 9A E9 8C C6 04
8100 61 E9 53 D1 02 8E FD AB 8E E0 00 62 E9 12 F4 06
8110 8E FD AB 8E E0 00 62 E9 12 F4 06 41 A9 1D 7D CF

Function $80AD

80B2 A4 2C 7D
80B5 8F 11
80B7 D3
80B8 56
80B9 C6
80BA D8 C8 80

	80BD 61
	80BE A4 2C 7D
	80C1 8F 11
	80C3 B4
	80C4 B3
	80C5 D3
	80C6 BB
	80C7 D4

80C8

80D3 


     00 01 02 03 04 05 06 07 08 09 0A 0B 0C 0D 0E 0F
80B0 00 00 A4 2C 7D 8F 11 D3 56 C6 D8 C8 80 61 A4 2C
80C0 7D 8F 11 B4 B3 D3 BB D4 A0 0B 00 D8 1B 81 62 A5
80D0 20 79 D1 D2 8C 1B 79 BB D3 75 B3 A5 20 79 D1 D2
80E0 8C 1A 79 BB D3 73 B3 8E 6F AB 8E E0 00 62 E9 12
80F0 F4 0C A4 2C 7D 8F 11 D3 B3 8E 74 9A E9 8C C6 04
8100 61 E9 53 D1 02 8E FD AB 8E E0 00 62 E9 12 F4 06
8110 8E FD AB 8E E0 00 62 E9 12 F4 06 41 A9 1D 7D CF
----------------------------------------------------
     00 01 02 03 04 05 06 07 08 09 0A 0B 0C 0D 0E 0F
8120 20 D1 E4 FC FF D6 EF 81 0C A8 2C 7D 0C B0 A8 2E
8130 7D 3C E9 AF 99 02 0C 8F 12 D3 54 BE A9 1A 7D 0C
8140 8F 12 D3 5F DA A9 1B 7D 8E 49 AC 8E EE 00 62 E9
8150 12 F4 06 3C 8E 89 AC 8E EE 00 62 E9 12 F4 08 61
8160 8E 14 B0 8E EE 00 62 E9 12 F4 08 61 66 61 60 60
8170 60 66 8E 95 9A E9 1F D4 10 2B 0B D5 01 00 08 00
8180 EF 81 92 81 EF 81 A9 81 A9 81 A9 81 A9 81 A9 81
8190 9B 81 8E AB B0 8E EE 00 D6 EA 81 61 E9 AD 80 02
81A0 A4 2E 7D 2C D6 C0 81 41 CF 0B D1 2B 0B D2 8C 8A
81B0 9A BB D3 B3 0B D2 8C 89 9A BB D3 B3 E9 03 80 04
81C0 60 8E 14 B0 8E EE 00 62 E9 12 F4 08 A5 1D 7D D8
81D0 E0 81 AC 04 85 D7 A7 81 A4 2E 7D 2C 40 A9 1D 7D
81E0 0C D7 EF 81 8E FD AB 8E E0 00 62 E9 12 F4 06 0C
81F0 D7 28 81 40 CF 

Function $8120 (FC FF) -> Run human control for each general in list?

8125 D6 EF 81

Loop:
	8128 0C
	8129 A8 2C 7D .. / $7D2C (Set as current general)
	
	812C 0C
	812D B0
	812E A8 2E 7D .. / $7D2E (Next general)
	
	8131 3C
	8132 E9 AF 99 02 / Call $99AF
	
	8136 0C
	8137 8F 12
	8139 D3          / Tile #
	813A 54
	813B BE
	813C A9 1A 7D .. / $7D1A (x-pos)
	813F 0C 
	8140 8F 12
	8142 D3
	8143 5F
	8144 DA
	8145 A9 1B 7D .. / $7D1B (y-pos)
	8148 8E 49 AC
	814B 8E EE 00
	814E 62
	814F E9 12 F4 06 / Call $F412 -> EE:AC49
	
	...
	
Bounds check:
	81EF 0C
	81F0 D7 28 81
	
	81F3 40
	81F4 CF

     00 01 02 03 04 05 06 07 08 09 0A 0B 0C 0D 0E 0F
8140 8F 12 D3 5F DA A9 1B 7D 8E 49 AC 8E EE 00 62 E9
8150 12 F4 06 3C 8E 89 AC 8E EE 00 62 E9 12 F4 08 61
8160 8E 14 B0 8E EE 00 62 E9 12 F4 08 61 66 61 60 60
8170 60 66 8E 95 9A E9 1F D4 10 2B 0B D5 01 00 08 00
8180 EF 81 92 81 EF 81 A9 81 A9 81 A9 81 A9 81 A9 81
8190 9B 81 8E AB B0 8E EE 00 D6 EA 81 61 E9 AD 80 02
81A0 A4 2E 7D 2C D6 C0 81 41 CF 0B D1 2B 0B D2 8C 8A
81B0 9A BB D3 B3 0B D2 8C 89 9A BB D3 B3 E9 03 80 04
81C0 60 8E 14 B0 8E EE 00 62 E9 12 F4 08 A5 1D 7D D8
81D0 E0 81 AC 04 85 D7 A7 81 A4 2E 7D 2C 40 A9 1D 7D
81E0 0C D7 EF 81 8E FD AB 8E E0 00 62 E9 12 F4 06 0C
81F0 D7 28 81 40 CF 
----------------------------------------------------
     00 01 02 03 04 05 06 07 08 09 0A 0B 0C 0D 0E 0F
81F0                20 D1 E4 00 00 0C 8F 10 D3 8B 10
8200 DA CF 

Function $81F5 (00 00)

81FA 0C
81FB 8F 10
81FD D3
81FE 8B 10
8200 DA
8201 CF

----------------------------------------------------
     00 01 02 03 04 05 06 07 08 09 0A 0B 0C 0D 0E 0F
8200       20 D1 E4 FB FF 8A F5 7B 2B D6 94 82 8E 88
8210 BA 8E EE 00 62 E9 12 F4 06 40 A2 FB FF 0B 2A D6
8220 6C 82 3A E9 41 92 02 D8 3E 82 0A 78 D3 D7 3E 82
8230 0A 74 B0 B3 E9 20 81 02 D8 5F 82 D6 74 82 A0 FB
8240 FF A9 33 7F 8E E9 00 62 62 E9 E6 EE 06 60 8E 14
8250 B0 8E EE 00 62 E9 12 F4 08 A5 34 7F D7 74 82 A0
8260 FB FF D0 A2 FB FF D1 0A 79 2A 8F F7 A0 FB FF 54
8270 C6 D7 22 82 A5 0B 7D 8C FF 00 C0 D8 81 82 AC BF
8280 88 A5 0B 7D 8C FF 00 C1 D8 8D 82 40 CF A5 1C 7D
8290 D0 A9 1C 7D A5 1C 7D 8B 1F C6 D7 0E 82 41 CF 

Function $8202 (FB FF) -> Main battle loop?

8207 8A F5 7B .. / $7BF5 (Army)
820A 2B
820B D6 94 82

Loop for every day of the battle:

	820E 8E 88 BA
	8211 8E EE 00
	8214 62
	8215 E9 12 F4 06 / Call $F412 -> EE::BA88
	
	8219 40
	821A A2 FB FF
	821D 0B
	821E 2A
	821F D6 6C 82
	

	8222 3A
	8223 E9 41 92 02 / Call $9241 -> Check if army has human-controlled commander
	8227 D8 3E 82

	822A 0A
	822B 78
	822C D3          / Check if army has flag set? (
	822D D7 3E 82 

	8230 0A
	8231 74
	8232 B0
	8233 B3
	8234 E9 20 81 02 / Call $8120
	8238 D8 5F 82
	
	823B D6 74 82


	823E A0 FB FF 
	8241 A9 33 7F .. / $7F33 (Current general #)
	8244 8E E9 00
	8247 62
	8248 62
	8249 E9 E6 EE 06 / Call $E6EE -> Sysop 0x02 (Run Page E9) [CPU Turn]

	824D 60
	824E 8E 14 B0
	8251 8E EE 00
	8254 62
	8255 E9 12 F4 08 / Call $F412 -> EE:B014
	8259 A5 34 7F .. / $7F34
	825C D7 74 82

	if end of day:
	825F A0 FB FF
	8262 D0
	8263 A2 FB FF
	8266 D1 
	8267 0A
	8268 79
	8269 2A
	826A 8F F7

	826C A0 FB FF
	826F 54
	8270 C6
	8271 D7 22 82

	8274 A5 0B 7D .. / $7D0B
	8277 8C FF 00
	827A C0
	827B D8 81 82

	827E AC BF 88 .. / Call $88BF

	8281 A5 0B 7D .. / $7D0B
	8284 8C FF 00
	8287 C1
	8288 D8 8D 82

		828B 40
		828C CF

	828D A5 1C 7D .. / $7D1C (Day)
	8290 D0
	8291 A9 1C 7D .. / Go to next day

	8294 A5 1C 7D ..
	8297 8B 1F       / 31
	8299 C6 
	829A D7 0E 82

829D 41
829E CF
----------------------------------------------------
     00 01 02 03 04 05 06 07 08 09 0A 0B 0C 0D 0E 0F
8290                                              20
82A0 D1 E4 00 00 8E 9E 9A E9 4A C4 02 8E 96 9A 65 E9
82B0 E6 EE 04 8E 0F BB 8E EE 00 62 E9 12 F4 06 8A FF
82C0 00 A9 08 7D 60 8E EC 00 E9 03 80 04 AA F2 7B E9
82D0 F5 81 02 D7 DE 82 63 8E EB 00 E9 03 80 04 A5 0B
82E0 7D 8C FF 00 C0 D8 F5 82 AC 02 82 D8 F5 82 62 8E
82F0 EA 00 D6 F9 82 62 8E EB 00 E9 03 80 04 8E E8 B8
8300 8E EE 00 62 E9 12 F4 06 8E FD AB 8E E0 00 62 E9
8310 12 F4 06 CF 

Function $829F -> Main page function

82A4 8E 9E 9A    / $9A9E -> 1B 43 30 "\C0"
82A7 E9 4A C4 02 / Call $C44A -> Print

82AB 8E 96 9A
82AE 65
82AF E9 E6 EE 04 / Call $EEE6 -> Perform CHR bankswitch

82B3 8E 0F BB
82B6 8E EE 00
82B9 62
82BA E9 12 F4 06 / Call $F412 -> EE:BB0F (Wipe temp data, retrieve Page F4 data?)

82BE 8A FF 00
82C1 A9 08 7D    / $7D08

82C4 60
82C5 8E EC 00
82C8 E9 03 80 04 / Call $8003 -> Run Process 0 on Page EC

     00 01 02 03 04 05 06 07 08 09 0A 0B 0C 0D 0E 0F
82C0 00 A9 08 7D 60 8E EC 00 E9 03 80 04 AA F2 7B E9
82D0 F5 81 02 D7 DE 82 63 8E EB 00 E9 03 80 04 A5 0B
82E0 7D 8C FF 00 C0 D8 F5 82 AC 02 82 D8 F5 82 62 8E
82F0 EA 00 D6 F9 82 62 8E EB 00 E9 03 80 04 8E E8 B8
8300 8E EE 00 62 E9 12 F4 06 8E FD AB 8E E0 00 62 E9
8310 12 F4 06 CF 
----------------------------------------------------
     00 01 02 03 04 05 06 07 08 09 0A 0B 0C 0D 0E 0F
8310             20 D1 E4 FD FF 0C 7C B0 8B 64 C6 D8
8320 37 83 A5 63 7F D8 30 83 41 A9 62 7F 40 A9 63 7F
8330 3C E9 61 87 02 41 CF A0 0D 00 D8 41 83 45 D6 43
8340 83 89 1E A2 FF FF A0 FF FF B3 0C 7C B0 B3 E9 A8
8350 D7 04 B3 E9 C5 D7 02 85 FD 3C E9 4D C3 02 B3 87
8360 FD E9 A8 D7 04 B3 3C E9 20 90 04 87 FD 0C 7C B4
8370 B3 B0 BC B1 3C 8E B2 AD 8E EE 00 62 E9 12 F4 08
8380 40 CF 

Function $8314 (FD FF)

8319 0C
831A 7C
831B B0
831C 8B 64
831E C6
831F D8 37 83

8322	A5 63 7F    / $7F63
8325	D8 30 83

8328	   41
8329	   A9 62 7F	   / $7F62
832C	   40
832D	   A9 63 7F    / $7F63

8330	3C
8331	E9 61 87 02
8335	41
8336	CF

8337 A0 0D 00
833A D8 41 83

if
833D	45
833E	D6 43 83   ( 5%)

else
8341	89 1E    / (30%)

8343 A2 FF FF

8346 A0 FF FF
8349 B3
834A 0C
834B 7C
834C B0
834D B3
834E E9 A8 D7 04 / Call $D7A8 (Find % of soldiers)
8352 B3
8353 E9 C5 D7 02 / Call $D7C5 (Random number)
8357 85 FD

8359 3C
835A E9 4D C3 02 / Call $C34D
835E B3
835F 87 FD
8361 E9 A8 D7 04 / Call $D7A8
8365 B3
8366 3C
8367 E9 20 90 04 / Call $9020

836B 87 FD
836D 0C
836E 7C
836F B4
8370 B3
8371 B0
8372 BC
8373 B1

8374 3C
8375 8E B2 AD
8378 8E EE 00
837B 62
837C E9 12 F4 08

8380 40
8381 CF

     00 01 02 03 04 05 06 07 08 09 0A 0B 0C 0D 0E 0F
8370 B3 B0 BC B1 3C 8E B2 AD 8E EE 00 62 E9 12 F4 08
8380 40 CF 
----------------------------------------------------
     00 01 02 03 04 05 06 07 08 09 0A 0B 0C 0D 0E 0F
8380       20 D1 E4 F0 FF 8E FD AB 8E E0 00 62 E9 12
8390 F4 06 A0 11 00 B3 A0 0F 00 B3 A0 0D 00 B3 A0 0B
83A0 00 B3 E9 75 8B 08 A0 0D 00 B3 A0 0B 00 B3 E9 57
83B0 98 04 2B A0 11 00 B3 A0 0F 00 B3 E9 57 98 04 2A
83C0 3A E9 25 92 02 D8 D6 83 3B E9 25 92 02 D7 D6 83
83D0 A5 44 78 D6 D7 83 41 25 8D 7F A0 0F 00 B3 A0 11
83E0 00 5D B5 B4 BB 8C F4 7D BB B4 B3 D3 DA D4 A0 0B
83F0 00 B3 A0 0D 00 5D B5 B4 BB 8C 58 7D BB D3 A2 F1
8400 FF 3B E9 1E 91 02 29 3A E9 1E 91 02 28 0B 74 D3
8410 8B 59 C8 D8 1A 84 40 D6 29 84 3A 35 A0 F1 FF B3
8420 38 39 E9 55 91 0A CB 53 B5 27 3B E9 4D C3 02 B3
8430 37 0B 7C B0 B3 E9 4C F3 04 B3 E9 A8 D7 04 26 36
8440 3B E9 20 90 04 0B 7C B0 17 C6 D8 62 84 41 A9 0C
8450 7D 60 61 3A 3B E9 B8 8C 08 60 3A 3B E9 5B 8D 06
8460 41 CF 37 0B 7C B4 B3 B0 BC B1 3B 8E B2 AD 8E EE
8470 00 62 E9 12 F4 08 40 CF 

Function $8382 (F0 FF)

8387 8E FD AB
838A 8E E0 00
838D 62
838E E9 12 F4 06 / Call $F412

8392 A0 11 00
8395 B3
8396 A0 0F 00
8399 B3
839A A0 0D 00
839D B3
839E A0 0B 00
83A1 B3
83A2 E9 75 8B 08 / Call $8B75

83A6 A0 0D 00
83A9 B3
83AA A0 0B 00
83AD B3
83AE E9 57 98 04 / Call $9857
83B2 2B

83B3 A0 11 00
83B6 B3
83B7 A0 0F 00
83BA B3
83BB E9 57 98 04 / Call $9857
83BF 2A

83C0 3A
83C1 E9 25 92 02 / Call $9225
83C5 D8 D6 83

83C8 3B
83C9 E9 25 92 02
83CD D7 D6 83

83D0 A5 44 78
83D3 D6 D7 83

83D6 41

83D7 25

83D8 8D 7F

     00 01 02 03 04 05 06 07 08 09 0A 0B 0C 0D 0E 0F
83D0 A5 44 78 D6 D7 83 41 25 8D 7F A0 0F 00 B3 A0 11
83E0 00 5D B5 B4 BB 8C F4 7D BB B4 B3 D3 DA D4 A0 0B
83F0 00 B3 A0 0D 00 5D B5 B4 BB 8C 58 7D BB D3 A2 F1
8400 FF 3B E9 1E 91 02 29 3A E9 1E 91 02 28 0B 74 D3
8410 8B 59 C8 D8 1A 84 40 D6 29 84 3A 35 A0 F1 FF B3
8420 38 39 E9 55 91 0A CB 53 B5 27 3B E9 4D C3 02 B3
8430 37 0B 7C B0 B3 E9 4C F3 04 B3 E9 A8 D7 04 26 36
8440 3B E9 20 90 04 0B 7C B0 17 C6 D8 62 84 41 A9 0C
8450 7D 60 61 3A 3B E9 B8 8C 08 60 3A 3B E9 5B 8D 06
8460 41 CF 37 0B 7C B4 B3 B0 BC B1 3B 8E B2 AD 8E EE
8470 00 62 E9 12 F4 08 40 CF 
----------------------------------------------------
     00 01 02 03 04 05 06 07 08 09 0A 0B 0C 0D 0E 0F
8470                         20 D1 E4 FA FF 40 D6 F8
8480 84 A0 FB FF B3 A0 0B 00 53 B5 B4 BB 8C A2 9A BB
8490 D3 A2 FA FF A0 0D 00 A2 FD FF A0 0F 00 A2 FC FF
84A0 A0 FA FF B3 DE FC FF B3 DE FD FF B3 E9 FF 95 06
84B0 D8 F4 84 A0 FC FF B3 A0 FD FF B3 A0 0F 00 B3 A0
84C0 0D 00 B3 E9 4F 92 08 D8 F4 84 A0 FC FF B3 A0 FD
84D0 FF B3 E9 57 98 04 2B 0B 1F C1 D8 F4 84 A0 FC FF
84E0 B3 A0 FD FF B3 A0 0F 00 B3 A0 0D 00 B3 E9 82 83
84F0 08 D7 03 85 A0 FB FF D0 A2 FB FF A0 FB FF 53 C6
8500 D7 81 84 CF 
----------------------------------------------------
     00 01 02 03 04 05 06 07 08 09 0A 0B 0C 0D 0E 0F
8500             20 D1 E4 00 00 A5 0B 7D 8C FF 00 C0
8510 D8 2E 85 AA 2C 7D E9 E0 87 02 8E F5 B5 8E EE 00
8520 62 E9 12 F4 06 D8 2E 85 63 61 E9 E2 8B 04 A5 0B
8530 7D 8C FF 00 C1 CF 

Function $8504 (00 00)

8509 A5 0B 7D    / $7D0B
850C 8C FF 00
850F C0
8510 D8 2E 85

8513 AA 2C 7D    / $7D2C (General taking turn)
8516 E9 E0 87 02 / $87E0
851A 8E F5 B5
851D 8E EE 00
8520 62
8521 E9 12 F4 06 / Call $F412 -> EE:B5F5
8525 D8 2E 85

	8528 63
	8529 61
	852A E9 E2 8B 04 / Call $8BE2

852E A5 0B 7D
8531 8C FF 00
8534 C1
8535 CF
----------------------------------------------------
     00 01 02 03 04 05 06 07 08 09 0A 0B 0C 0D 0E 0F
8530                   20 D1 E4 F8 FF A0 0F 00 D2 D2
8540 8C B4 9A BB D6 06 86 A0 0B 00 A2 FB FF A0 0D 00
8550 A2 FA FF 0B D3 D1 B3 DE FA FF B3 DE FB FF B3 E9
8560 FF 95 06 D8 04 86 A0 FB FF B3 A0 FA FF 5D B5 B4
8570 BB 8C F4 7D BB D3 8B 20 DA D7 04 86 A0 FB FF B3
8580 A0 FA FF 5D B5 B4 BB 8C 58 7D BB D3 56 C0 D7 04
8590 86 A0 FB FF B3 A0 FA FF 5D B5 B4 BB 8C 58 7D BB
85A0 D3 A2 FD FF A0 FD FF B3 E9 67 90 02 A2 FC FF A0
85B0 FB FF B3 A0 FA FF 5D B5 B4 BB 8C F4 7D BB D3 5F
85C0 DA D8 D7 85 A0 FA FF B3 A0 FB FF B3 A0 FC FF B3
85D0 E9 8F 90 06 A2 FC FF A0 FC FF B3 8D 64 E9 C5 D7
85E0 02 B4 C6 D8 EA 85 41 D6 EB 85 40 D8 04 86 8D 40
85F0 A0 FB FF B3 A0 FA FF 5D B5 B4 BB 8C F4 7D BB B4
8600 B3 D3 DB D4 0B D0 2B 0B D3 D7 47 85 CF 

Function $8536 (F8 FF)

853B A0 0F 00
853E D2
853F D2
8540 8C B4 9A
8543 BB
8544 D6 06 86

Loop
	8547

Bounds check:
	8606

     00 01 02 03 04 05 06 07 08 09 0A 0B 0C 0D 0E 0F
8540 8C B4 9A BB D6 06 86 A0 0B 00 A2 FB FF A0 0D 00
8550 A2 FA FF 0B D3 D1 B3 DE FA FF B3 DE FB FF B3 E9
8560 FF 95 06 D8 04 86 A0 FB FF B3 A0 FA FF 5D B5 B4
8570 BB 8C F4 7D BB D3 8B 20 DA D7 04 86 A0 FB FF B3
8580 A0 FA FF 5D B5 B4 BB 8C 58 7D BB D3 56 C0 D7 04
8590 86 A0 FB FF B3 A0 FA FF 5D B5 B4 BB 8C 58 7D BB
85A0 D3 A2 FD FF A0 FD FF B3 E9 67 90 02 A2 FC FF A0
85B0 FB FF B3 A0 FA FF 5D B5 B4 BB 8C F4 7D BB D3 5F
85C0 DA D8 D7 85 A0 FA FF B3 A0 FB FF B3 A0 FC FF B3
85D0 E9 8F 90 06 A2 FC FF A0 FC FF B3 8D 64 E9 C5 D7
85E0 02 B4 C6 D8 EA 85 41 D6 EB 85 40 D8 04 86 8D 40
85F0 A0 FB FF B3 A0 FA FF 5D B5 B4 BB 8C F4 7D BB B4
8600 B3 D3 DB D4 0B D0 2B 0B D3 D7 47 85 CF 
----------------------------------------------------
     00 01 02 03 04 05 06 07 08 09 0A 0B 0C 0D 0E 0F
8600                                        20 D1 E4
8610 FC FF 40 D6 CC 86 40 D6 BD 86 A0 FF FF B3 A0 FE
8620 FF 5D B5 B4 BB 8C F4 7D BB D3 8B 20 DA D8 46 86
8630 A0 FE FF B3 A0 FF FF B3 8E 0D B6 8E EE 00 62 E9
8640 12 F4 0A D6 B9 86 A0 FF FF B3 A0 FE FF 5D B5 B4
8650 BB 8C F4 7D BB D3 8B 40 DA D8 B9 86 8D 20 A0 FF
8660 FF B3 A0 FE FF 5D B5 B4 BB 8C F4 7D BB B4 B3 D3
8670 DB D4 8E BF 00 A0 FF FF B3 A0 FE FF 5D B5 B4 BB
8680 8C F4 7D BB B4 B3 D3 DA D4 A0 FE FF B3 A0 FF FF
8690 B3 8E D5 AE 8E EE 00 62 E9 12 F4 0A A0 FE FF B3
86A0 A0 FF FF B3 E9 57 98 04 2A 0A D8 B9 86 3A 8E B2
86B0 AD 8E EE 00 62 E9 12 F4 08 A0 FF FF D0 A2 FF FF
86C0 A0 FF FF 5D C6 D7 1A 86 A0 FE FF D0 A2 FE FF A0
86D0 FE FF 5C C6 D7 16 86 CF 
----------------------------------------------------
     00 01 02 03 04 05 06 07 08 09 0A 0B 0C 0D 0E 0F
86D0                         20 D1 E4 FE FF A5 25 7C
86E0 53 C0 D8 F3 86 8E 5B B6 8E EE 00 62 E9 12 F4 06
86F0 D6 60 87 40 D6 52 87 40 D6 43 87 A0 FF FF B3 A0
8700 FE FF 5D B5 B4 BB 8C F4 7D BB D3 8B 20 DA D8 3F
8710 87 A5 26 7C 56 C0 D8 2F 87 A0 FE FF B3 A0 FF FF
8720 B3 8E 0D B6 8E EE 00 62 E9 12 F4 0A D6 3F 87 A5
8730 26 7C B3 A0 FE FF B3 A0 FF FF B3 E9 36 85 06 A0
8740 FF FF D0 A2 FF FF A0 FF FF 5D C6 D7 FB 86 A0 FE
8750 FF D0 A2 FE FF A0 FE FF 5C C6 D7 F7 86 AC 0D 86
8760 CF 

Function $86D8 (FE FF) -> Update fire

86DD A5 25 7C    / $7C25 (Weather)
86E0 53
86E1 C0
86E2 D8 F3 86

If it's raining
	86E5 8E 5B B6
	86E8 8E EE 00
	86EB 62
	86EC E9 12 F4 06 / Call $F412 -> EE:B65B (Rain extinguishes fire)
	86F0 D6 60 87
Else
	86F3 40
	86F4 D6 52 87
	
	Outer loop:
		86F7 40
		86F8 D6 43 87
		
		Inner loop:
			86FB A0 FF FF    / Col #
			86FE B3
			86FF A0 FE FF    / Row #
			8702 5D
			8703 B5
			8704 B4
			8705 BB
			8706 8C F4 7D
			8709 BB
			870A D3          / Get data for current tile
			870B 8B 20
			870D DA
			870E D8 3F 87
			
			If tile is on fire:
				8711 A5 26 7C    / $7C26 (wind direction) 0=up-right 1=up 2=up-left 3=down-right 4=down 5=down-left 6=no wind
				8714 56
				8715 C0
				8716 D8 2F 87
			
				If there is no wind
					8719 A0 FE FF
					871C B3
					871D A0 FF FF
					8720 B3
					8721 8E 0D B6
					8724 8E EE 00
					8727 62
					8728 E9 12 F4 0A / Call $F412 -> EE:B60D (check if fire burns out: no wind)
					872C D6 3F 87
				Else
					872F A5 26 7C    / Wind direction
					8732 B3
					8733 A0 FE FF
					8736 B3
					8737 A0 FF FF
					873A B3
					873B E9 36 85 06 / Call $8536 (fire spreads: + wind)
			
			873F A0 FF FF
			8742 D0
		
		Bounds check:
			8743 A2 FF FF
			8746 A0 FF FF
			8749 5D
			874A C6
			874B D7 FB 86
			
		874E A0 FE FF
		8751 D0
	
	Bounds check:
		8752 A2 FE FF
		8755 A0 FE FF
		8758 5C
		8759 C6
		875A D7 F7 86
		
	875D AC 0D 86    / Call $860D
	
8760 CF          / Return
----------------------------------------------------
     00 01 02 03 04 05 06 07 08 09 0A 0B 0C 0D 0E 0F
8760    20 D1 E4 FB FF 41 A9 62 7F 3C 8E 2B A8 8E F4
8770 00 62 E9 12 F4 08 A2 FF FF A0 FF FF 53 DA D8 85
8780 87 42 D6 86 87 40 59 B5 8C F9 7B BB B0 85 FD 0C
8790 8F 13 B0 85 FB 61 61 87 FD 3C E9 B8 8C 08 0C 8F
87A0 13 B3 81 FB B1 81 FB A8 98 7C 8E AA A5 8E F4 00
87B0 62 E9 12 F4 06 61 3C E9 2D C1 04 B3 8E CC 9A E9
87C0 8C C6 04 8E D0 9A E9 4A C4 02 AC BE 8A 0C 8F 13
87D0 B3 89 FF B1 8E FD AB 8E E0 00 62 E9 12 F4 06 CF

Function $8761 (FB FF) -> General <00> burns to death

Args:
<0C> ?
Locs:
+FB  ?
+FD  ?
+FF  ?

8766 41
8767 A9 62 7F    / $7F62

876A 3C
876B 8E 2B A8
876E 8E F4 00
8771 62
8772 E9 12 F4 08 / Call $F412 -> F4:A82B 
8776 A2 FF FF

8779 A0 FF FF
877C 53
877D DA
877E D8 85 87

if
	8781 42
	8782 D6 86 87
else
	8785 40

8786 59
8787 B5
8788 8C F9 7B    / $7BF9
878B BB
878C B0
878D 85 FD       / Army that general is in

878F 0C
8790 8F 13
8792 B0
8793 85 FB       / General ID

8795 61
8796 61
8797 87 FD
8799 3C
879A E9 B8 8C 08 / Call $8CB8

879E 0C
879F 8F 13
87A1 B3
87A2 81 FB
87A4 B1

87A5 81 FB
87A7 A8 98 7C    / $7C98

87AA 8E AA A5
87AD 8E F4 00
87B0 62
87B1 E9 12 F4 06 / Call $F412 -> F4:A5AA

87B5 61
87B6 3C
87B7 E9 2D C1 04 / Call $C12D -> Get name of general?

87BB B3
87BC 8E CC 9A    / $9ACC "%s\n"
87BF E9 8C C6 04 / Call $C68C -> Print

87C3 8E D0 9A    / $9AD0 "burned to\ndeath"
87C6 E9 4A C4 02 / Call $C44A -> Print

87CA AC BE 8A    / Call $8ABE

87CD 0C
87CE 8F 13
87D0 B3
87D1 89 FF
87D3 B1

87D4 8E FD AB
87D7 8E E0 00
87DA 62
87DB E9 12 F4 06 / Call $F412 -> E0:ABFD

87DF CF
----------------------------------------------------
     00 01 02 03 04 05 06 07 08 09 0A 0B 0C 0D 0E 0F
87E0 20 D1 E4 FE FF 0C D7 EA 87 CF 0C 8F 12 D3 54 BE
87F0 A2 FF FF 0C 8F 12 D3 5F DA A2 FE FF A0 FF FF B3
8800 A0 FE FF 5D B5 B4 BB 8C F4 7D BB D3 8B 20 DA D8
8810 2C 88 0C A6 0B 7C C0 D8 26 88 61 8E F4 B6 8E EE
8820 00 62 E9 12 F4 08 60 3C E9 14 83 04 CF 

Function $87E0 (FE FF)
Args
<0C> General

87E5 0C
87E6 D7 EA 87

	87E9 CF

87EA 0C
87EB 8F 12
87ED D3
87EE 54
87EF BE
87F0 A2 FF FF

87F3 0C
87F4 8F 12
87F6 D3
87F7 5F
87F8 DA
87F9 A2 FE FF

87FC A0 FF FF
87FF B3
8800 A0 FE FF
8803 5D
8804 B5
8805 B4
8806 BB
8807 8C F4 7D    / $7DF4
880A BB
880B D3
880C 8B 20
880E DA
880F D8 2C 88

	8812 0C
	8813 A6 0B 7C    / $7C0B
	8816 C0
	8817 D8 26 88

		881A 61
		881B 8E F4 B6
		881E 8E EE 00
		8821 62
		8822 E9 12 F4 08 / Call $F412 -> EE:B6F4
	
	8826 60
	8827 3C
	8828 E9 14 83 04 / Call $8314

882C CF
----------------------------------------------------
     00 01 02 03 04 05 06 07 08 09 0A 0B 0C 0D 0E 0F
8820                                        20 D1 E4
8830 FA FF A0 0B 00 59 B5 8C F5 7B BB 2B A0 0B 00 51
8840 DA 51 C0 D7 4C 88 0B 74 B0 D7 4D 88 CF 0B 74 B0
8850 B0 D6 B9 88 0A B0 29 0A 72 D3 54 DA D7 B8 88 0A
8860 73 D3 8C F0 00 DA D7 B8 88 0A 78 D3 8B 31 C8 D7
8870 B8 88 3A 8E 57 B9 8E EE 00 62 E9 12 F4 08 D8 B8
8880 88 8E AA A5 8E F4 00 62 E9 12 F4 06 3A E9 E5 8D
8890 02 6A E9 C5 D7 02 8F 5A B3 A0 0B 00 D7 A3 88 42
88A0 D6 A4 88 40 59 B5 8C F5 7B BB B0 8C D4 71 BC 8B
88B0 22 B8 B3 3A E9 85 8D 06 09 2A 0A D7 54 88 CF 

Function $882D (FA FF)
Args:
+0B  ?
Locs:
<0A> Current general
<0B> ?

8832 A0 0B 00
8835 59
8836 B5
8837 8C F5 7B    / $7BF5
883A BB
883B 2B

883C A0 0B 00
883F 51
8840 DA
8841 51
8842 C0
8843 D7 4C 88

8846 0B
8847 74
8848 B0
8849 D7 4D 88

	884C CF

884D 0B
884E 74
884F B0
8850 B0
8851 D6 B9 88

	8854 0A
	8855 B0
	8856 29
	8857 0A
	8858 72
	8859 D3
	885A 54
	885B DA
	885C D7 B8 88

	885F 0A
	8860 73
	8861 D3
	8862 8C F0 00
	8865 DA
	8866 D7 B8 88

	8869 0A
	886A 78
	886B D3
	886C 8B 31
	886E C8
	886F D7 B8 88

	8872 3A
	8873 8E 57 B9
	8876 8E EE 00
	8879 62
	887A E9 12 F4 08 / Call $F412 -> EE:B957
	887E D8 B8 88

		8881 8E AA A5
		8884 8E F4 00
		8887 62
		8888 E9 12 F4 06 / Call $F412 -> F4:A5AA
		888C 3A
		888D E9 E5 8D 02 / Call $8DE5 -> General switches sides
		8891 6A
		8892 E9 C5 D7 02 / Call $D7C5 -> RNG 00-09
		8896 8F 5A       / RNG 90-100
		8898 B3
		8899 A0 0B 00
		889C D7 A3 88

			889F 42
			88A0 D6 A4 88

			88A3 40
			
		88A4 59
		88A5 B5
		88A6 8C F5 7B    / $7BF5
		88A9 BB
		88AA B0          / Nation
		88AB 8C D4 71    / $71D4
		88AE BC          /
		88AF 8B 22
		88B1 B8          / Nation ID
		88B2 B3 
		88B3 3A
		88B4 E9 85 8D 06 / Call $8D85

	88B8 09

88B9 2A
88BA 0A
88BB D7 54 88

88BE CF
----------------------------------------------------
     00 01 02 03 04 05 06 07 08 09 0A 0B 0C 0D 0E 0F
88B0                                              20
88C0 D1 E4 FE FF 40 D6 4B 89 A0 FF FF B3 E9 2D 88 02
88D0 A0 FF FF 51 C0 D8 DC 88 41 D6 DE 88 89 20 A2 FE
88E0 FF A0 FF FF 51 DA 51 C0 D8 47 89 A0 FE FF B3 A5
88F0 5F 7C B4 DA D7 47 89 A0 FF FF 59 B5 8C F9 7B BB
8900 B0 D8 47 89 A0 FF FF 59 B5 8C F9 7B BB B0 B3 E9
8910 25 92 02 D7 47 89 8D 64 E9 C5 D7 02 8B 1E C6 D8
8920 26 89 41 D6 27 89 40 D8 47 89 A0 FF FF B3 8E BB
8930 B2 8E EE 00 62 E9 12 F4 08 D8 47 89 A0 FE FF CD
8940 A5 5F 7C DB A9 5F 7C A0 FF FF D0 A2 FF FF A0 FF
8950 FF 54 C6 D7 C8 88 8E 47 B8 8E EE 00 62 E9 12 F4
8960 06 8D 64 E9 C5 D7 02 8B 28 C6 D8 71 89 41 D6 72
8970 89 40 D8 80 89 8E 73 B5 8E EE 00 62 E9 12 F4 06
8980 AC D8 86 8E 74 B7 8E EE 00 62 E9 12 F4 06 CF 

Function $88BF (FE FF)

88C4 40
88C5 D6 4B 89

88C8 A0 FF FF
88CB B3
88CC E9 2D 88 02 / Call $882D

88D0 A0 FF FF
88D3 51
88D4 C0
88D5 D8 DC 88

88D8 41
88D9 D6 DE 88

88DC 89 20

88DE A2 FE FF

88E1 A0 FF FF
88E4 51
88E5 DA
88E6 51
88E7 C0
88E8 D7 47 89

88EB A0 FE FF
88EE B3
88EF A5 5F 7C

...

8947

894B A2 FF FF
894E A0 FF FF
8951 54
8952 C6
8953 D7 C8 88

     00 01 02 03 04 05 06 07 08 09 0A 0B 0C 0D 0E 0F
88E0 FF A0 FF FF 51 DA 51 C0 D8 47 89 A0 FE FF B3 A5
88F0 5F 7C B4 DA D7 47 89 A0 FF FF 59 B5 8C F9 7B BB
8900 B0 D8 47 89 A0 FF FF 59 B5 8C F9 7B BB B0 B3 E9
8910 25 92 02 D7 47 89 8D 64 E9 C5 D7 02 8B 1E C6 D8
8920 26 89 41 D6 27 89 40 D8 47 89 A0 FF FF B3 8E BB
8930 B2 8E EE 00 62 E9 12 F4 08 D8 47 89 A0 FE FF CD
8940 A5 5F 7C DB A9 5F 7C A0 FF FF D0 A2 FF FF A0 FF
8950 FF 54 C6 D7 C8 88 8E 47 B8 8E EE 00 62 E9 12 F4
8960 06 8D 64 E9 C5 D7 02 8B 28 C6 D8 71 89 41 D6 72
8970 89 40 D8 80 89 8E 73 B5 8E EE 00 62 E9 12 F4 06
8980 AC D8 86 8E 74 B7 8E EE 00 62 E9 12 F4 06 CF 
----------------------------------------------------
     00 01 02 03 04 05 06 07 08 09 0A 0B 0C 0D 0E 0F
8980                                              20
8990 D1 E4 FD FF 3C E9 6C 99 02 A2 FF FF 3D E9 6C 99
89A0 02 A2 FE FF A0 FF FF 51 DA D8 B6 89 A0 FE FF 51
89B0 DA 51 C0 D8 B8 89 40 CF A0 FF FF 51 C0 D8 C4 89
89C0 42 D6 C5 89 48 A2 FD FF A0 FD FF B3 A5 5F 7C B4
89D0 DA D8 D6 89 40 CF 41 CF 

Function $898F (FD FF)

8994 3C
8995 E9 6C 99 02 / Call $996C

     00 01 02 03 04 05 06 07 08 09 0A 0B 0C 0D 0E 0F
8980                                              20
8990 D1 E4 FD FF 3C E9 6C 99 02 A2 FF FF 3D E9 6C 99
89A0 02 A2 FE FF A0 FF FF 51 DA D8 B6 89 A0 FE FF 51
89B0 DA 51 C0 D8 B8 89 40 CF A0 FF FF 51 C0 D8 C4 89
89C0 42 D6 C5 89 48 A2 FD FF A0 FD FF B3 A5 5F 7C B4
89D0 DA D8 D6 89 40 CF 41 CF 
----------------------------------------------------
     00 01 02 03 04 05 06 07 08 09 0A 0B 0C 0D 0E 0F
89D0                         20 D1 E4 F7 FF A0 0F 00
89E0 D8 BD 8A 8E FD AB 8E E0 00 62 E9 12 F4 06 A0 0B
89F0 00 51 C0 D8 FA 89 48 D6 FB 89 42 A2 FF FF A0 0B
8A00 00 59 B5 8C F9 7B BB D6 5B 8A 81 FB 8F 12 D3 54
8A10 BE A2 FE FF 81 FB 8F 12 D3 5F DA A2 FD FF 8E F0
8A20 00 A0 FE FF B3 A0 FD FF 5D B5 B4 BB 8C F4 7D BB
8A30 B4 B3 D3 DA D4 A3 FF FF A0 FE FF B3 A0 FD FF 5D
8A40 B5 B4 BB 8C F4 7D BB B4 B3 D3 DB D4 87 FB 8E B2
8A50 AD 8E EE 00 62 E9 12 F4 08 81 FB B0 85 FB 81 FB
8A60 D7 0A 8A 8E AA A5 8E F4 00 62 E9 12 F4 06 61 A0
8A70 0B 00 59 B5 8C F5 7B BB B0 85 F9 B0 B3 E9 2D C1
8A80 04 B3 8E E0 9A E9 8C C6 04 8E E6 9A E9 4A C4 02
8A90 61 A0 0D 00 59 B5 8C F5 7B BB B0 85 F7 B0 B3 E9
8AA0 2D C1 04 B3 8E F9 9A E9 8C C6 04 AC BE 8A 87 F7
8AB0 87 F9 8E 3F B4 8E EE 00 62 E9 12 F4 0A CF 
----------------------------------------------------
     00 01 02 03 04 05 06 07 08 09 0A 0B 0C 0D 0E 0F
8AB0                                           20 D1
8AC0 E4 00 00 61 E9 53 D1 02 CF 

Function $8ABE (00 00)

8AC3 61
8AC4 E9 53 D1 02 / Call $D153
8AC8 CF
----------------------------------------------------
     00 01 02 03 04 05 06 07 08 09 0A 0B 0C 0D 0E 0F
8AC0                            20 D1 E4 FB FF A5 1A
8AD0 7D A2 FE FF A5 1B 7D A2 FD FF DE FD FF B3 DE FE
8AE0 FF B3 8E BC AE 8E EE 00 62 E9 12 F4 0A 40 D6 43
8AF0 8B A0 FE FF 53 BD A2 FC FF A0 FD FF 53 BD 8F FB
8B00 A2 FB FF 8E E0 00 60 A0 FB FF B3 A0 FC FF B3 A0
8B10 FF FF 8F 20 B3 69 E9 E6 EE 0C A0 FF FF 51 DA D8
8B20 29 8B A0 FE FF D1 D6 2D 8B A0 FE FF D0 A2 FE FF
8B30 A0 FF FF 51 C0 D8 3F 8B A0 FD FF D0 A2 FD FF A0
8B40 FF FF D0 A2 FF FF A0 FF FF 54 C6 D7 F1 8A CF 
----------------------------------------------------
     00 01 02 03 04 05 06 07 08 09 0A 0B 0C 0D 0E 0F
8B40                                              20
8B50 D1 E4 FE FF AC C9 8A 6E E9 E6 EE 02 40 2B 61 63
8B60 E9 83 D2 04 64 8D 20 E9 46 D6 04 0B D0 2B 0B 55
8B70 C2 D7 5E 8B CF 
----------------------------------------------------
     00 01 02 03 04 05 06 07 08 09 0A 0B 0C 0D 0E 0F
8B70                20 D1 E4 FD FF 60 8E 14 B0 8E EE
8B80 00 62 E9 12 F4 08 40 D6 CA 8B 41 A2 FD FF 40 D6
8B90 BB 8B A0 FD FF D8 A4 8B A0 0B 00 A9 1A 7D A0 0D
8BA0 00 D6 AD 8B A0 0F 00 A9 1A 7D A0 11 00 A9 1B 7D
8BB0 AC 4F 8B 40 A2 FD FF A0 FE FF D0 A2 FE FF A0 FE
8BC0 FF 52 C6 D7 92 8B A0 FF FF D0 A2 FF FF A0 FF FF
8BD0 52 C6 D7 8A 8B A0 0B 00 A9 1A 7D A0 0D 00 A9 1B
8BE0 7D CF 
----------------------------------------------------
     00 01 02 03 04 05 06 07 08 09 0A 0B 0C 0D 0E 0F
8BE0       20 D1 E4 00 00 A0 0B 00 A9 0B 7D A0 0D 00
8BF0 A9 F4 7B CF 

Function $8BE2 (00 00)

8BE7 A0 0B 00
8BEA A9 0B 7D    / $7D0B

8BED A0 0D 00
8BF0 A9 F4 7B    / $7BF4

8BF3 CF
----------------------------------------------------
     00 01 02 03 04 05 06 07 08 09 0A 0B 0C 0D 0E 0F
8BF0             20 D1 E4 FA FF 3C E9 6C 99 02 59 B5
8C00 8C F5 7B BB 29 0C B0 2B 3C 09 74 B0 B3 8E C7 BA
8C10 8E E0 00 62 E9 12 F4 0A 2A 0C A6 2C 7D C0 D8 25
8C20 8C 40 A8 2C 7D 0C A6 2E 7D C0 D8 31 8C 0B A8 2E
8C30 7D 0B D7 75 8C 0A D7 71 8C 09 74 B3 40 B1 A0 0D
8C40 00 51 C0 D8 56 8C A5 0B 7D 8C FF 00 C0 D8 56 8C
8C50 62 61 E9 E2 8B 04 A0 0D 00 54 C0 D8 B7 8C A5 0B
8C60 7D 8C FF 00 C0 D8 B7 8C 66 60 E9 E2 8B 04 D6 B7
8C70 8C 3A D6 B5 8C 0A D7 B1 8C 09 74 B3 0B B1 A0 0D
8C80 00 51 C0 D8 96 8C A5 0B 7D 8C FF 00 C0 D8 96 8C
8C90 61 61 E9 E2 8B 04 A0 0D 00 54 C0 D8 B4 8C A5 0B
8CA0 7D 8C FF 00 C0 D8 B4 8C 65 60 E9 E2 8B 04 D6 B4
8CB0 8C 3A 0B B1 3C 40 B1 CF 

Function $8BF4 (FA FF)

8BF9 3C
8BFA E9 6C 99 02 / Call $996C

     00 01 02 03 04 05 06 07 08 09 0A 0B 0C 0D 0E 0F
8BF0             20 D1 E4 FA FF 3C E9 6C 99 02 59 B5
8C00 8C F5 7B BB 29 0C B0 2B 3C 09 74 B0 B3 8E C7 BA
8C10 8E E0 00 62 E9 12 F4 0A 2A 0C A6 2C 7D C0 D8 25
8C20 8C 40 A8 2C 7D 0C A6 2E 7D C0 D8 31 8C 0B A8 2E
8C30 7D 0B D7 75 8C 0A D7 71 8C 09 74 B3 40 B1 A0 0D
8C40 00 51 C0 D8 56 8C A5 0B 7D 8C FF 00 C0 D8 56 8C
8C50 62 61 E9 E2 8B 04 A0 0D 00 54 C0 D8 B7 8C A5 0B
8C60 7D 8C FF 00 C0 D8 B7 8C 66 60 E9 E2 8B 04 D6 B7
8C70 8C 3A D6 B5 8C 0A D7 B1 8C 09 74 B3 0B B1 A0 0D
8C80 00 51 C0 D8 96 8C A5 0B 7D 8C FF 00 C0 D8 96 8C
8C90 61 61 E9 E2 8B 04 A0 0D 00 54 C0 D8 B4 8C A5 0B
8CA0 7D 8C FF 00 C0 D8 B4 8C 65 60 E9 E2 8B 04 D6 B4
8CB0 8C 3A 0B B1 3C 40 B1 CF 
----------------------------------------------------
     00 01 02 03 04 05 06 07 08 09 0A 0B 0C 0D 0E 0F
8CB0                         20 D1 E4 FE FF A0 0F 00
8CC0 D8 D4 8C 0C 8F 10 B3 89 64 D4 0C 7C B3 40 B1 0C
8CD0 7E B3 40 B1 3C 8E 2B A8 8E F4 00 62 E9 12 F4 08
8CE0 A2 FF FF 3D E9 6C 99 02 A2 FE FF A0 FF FF B3 3C
8CF0 E9 F4 8B 04 A0 11 00 D8 10 8D 3C E9 B3 D5 02 D8
8D00 2D 8D 8E 80 00 3C E9 A3 D8 02 77 B4 B3 D3 DB D4
8D10 A0 FE FF B3 3C 8E A5 B4 8E EE 00 62 E9 12 F4 0A
8D20 3C 8E 4A B5 8E EE 00 62 E9 12 F4 08 CF 3C E9 A3
8D30 D8 02 74 B0 1C C0 D8 42 8D 3C E9 A3 D8 02 74 B3
8D40 40 B1 3C 8E AB AA 8E E0 00 62 E9 12 F4 08 3C 8E
8D50 4A B5 8E EE 00 62 E9 12 F4 08 CF 

Function $8CB8 (FE FF)

8CBD A0 0F 00
8CC0 D8 D4 8C

	8CC3 0C
	8CC4 8F 10
	8CC6 B3
	8CC7 89 64
	8CC9 D4          / Set # of soldiers to add to 100

	8CCA 0C
	8CCB 7C
	8CCC B3
	8CCD 40
	8CCE B1          / Set soldiers to 0

	8CCF 0C
	8CD0 7E
	8CD1 B3
	8CD2 40
	8CD1 B1          / Set ? to 0

8CD4 3C
8CD5 8E 2B A8
8CD8 8E F4 00
8CDB 62
8CDC E9 12 F4 08
8CE0 A2 FF FF

8CE3 3D
8CE4 E9 6C 99 02 / Call $996C
8CE8 A2 FE FF

8CEB A0 FF FF
8CEE B3
8CEF 3C
8CF0 E9 F4 8B 04 / Call $8BF4

     00 01 02 03 04 05 06 07 08 09 0A 0B 0C 0D 0E 0F
8CE0 A2 FF FF 3D E9 6C 99 02 A2 FE FF A0 FF FF B3 3C
8CF0 E9 F4 8B 04 A0 11 00 D8 10 8D 3C E9 B3 D5 02 D8
8D00 2D 8D 8E 80 00 3C E9 A3 D8 02 77 B4 B3 D3 DB D4
8D10 A0 FE FF B3 3C 8E A5 B4 8E EE 00 62 E9 12 F4 0A
8D20 3C 8E 4A B5 8E EE 00 62 E9 12 F4 08 CF 3C E9 A3
8D30 D8 02 74 B0 1C C0 D8 42 8D 3C E9 A3 D8 02 74 B3
8D40 40 B1 3C 8E AB AA 8E E0 00 62 E9 12 F4 08 3C 8E
8D50 4A B5 8E EE 00 62 E9 12 F4 08 CF 
----------------------------------------------------
     00 01 02 03 04 05 06 07 08 09 0A 0B 0C 0D 0E 0F
8D50                                  20 D1 E4 FF FF
8D60 3D E9 25 92 02 D8 6C 8D 40 D6 6D 8D 41 A2 FF FF
8D70 A0 0F 00 B3 A0 FF FF B3 3C 8E 4D BB 8E EE 00 62
8D80 E9 12 F4 0C CF 

Function $8D5B (FF FF)
Args
<0C>
<0D> General
+0F  ?

8D60 3D
8D61 E9 25 92 02 / Call $9225 -> Check if general is player-controlled
8D65 D8 6C 8D

	8D68 40
	8D69 D6 6D 8D

	8D6C 41

8D6D A2 FF FF

8D70 A0 0F 00
8D73 B3
8D74 A0 FF FF
8D77 B3
8D78 3C
8D79 8E 4D BB
8D7C 8E EE 00
8D7F 62
8D80 E9 12 F4 0C / Call $F412 -> EE:BB4D
8D84 CF
----------------------------------------------------
     00 01 02 03 04 05 06 07 08 09 0A 0B 0C 0D 0E 0F
8D80                20 D1 E4 00 00 0C 77 B3 A0 0D 00
8D90 D4 0C 79 B3 41 D4 0C 78 B3 A0 0F 00 D4 3C 8E E2
8DA0 A6 8E E0 00 62 E9 12 F4 08 CF 

Function $8D85 (00 00) -> General <00> switches to nation <02>. <04> = new Loyalty
Args:
<0C> General
+0D  Nation ID
+0F  Loyalty

8D8A 0C
8D8B 77
8D8C B3
8D8D A0 0D 00
8D90 D4          / Change nation

8D91 0C
8D92 79
8D93 B3
8D94 41
8D95 D4          / Set serv to 1

8D96 0C
8D97 78
8D98 B3
8D99 A0 0F 00
8D9C D4          / Set loyalty

8D9D 3C
8D9E 8E E2 A6
8DA1 8E E0 00
8DA4 62
8DA5 E9 12 F4 08 / Call $F412 -> E0:A6E2 (Clear general's status flags)

8DA9 CF
----------------------------------------------------
     00 01 02 03 04 05 06 07 08 09 0A 0B 0C 0D 0E 0F
8DA0                               20 D1 E4 FC FF A0
8DB0 0D 00 53 DA D8 BD 8D 8A 07 7C D6 C0 8D 8A F5 7B
8DC0 2B 0B 74 B0 B3 8E 89 BA 8E E0 00 62 E9 12 F4 08
8DD0 2A 3A 0C B1 3C 40 B1 0C 77 B3 0B B0 8C D4 71 BC
8DE0 8B 22 B8 D4 CF 

Function $8DAA (FC FF) -> General <00> joins army <02>?
Args:
<0C>
+0D  ?

8DAF A0 0D 00
8DB2 53
8DB3 DA
8DB4 D8 BD 8D

if
	8DB7 8A 07 7C    / $7C07 (Attacking army?)
	8DBA D7 C0 8D
else
	8DBD 8A F5 7B    / $7BF5 (Defending army?)
	
8DC0 2B

8DC1 0B
8DC2 74
8DC3 B0
8DC4 B3
8DC5 8E 89 BA
8DC8 8E E0 00
8DCB 62
8DCC E9 12 F4 08 / Call $F412 -> E0:BA89 (find last entry in list)
8DD0 2A

8DD1 3A
8DD2 0C
8DD3 B1 / Append entry to list

8DD4 3C
8DD5 40
8DD6 B1

8DD7 0C
8DD8 77
8DD9 B3
8DDA 0B
8DDB B0
8DDC 8C D4 71
8DDF BC
8DE0 8B 22
8DE2 B8
8DE3 D4

8DE4 CF
----------------------------------------------------
     00 01 02 03 04 05 06 07 08 09 0A 0B 0C 0D 0E 0F
8DE0                20 D1 E4 FD FF 3C E9 A3 D8 02 74
8DF0 B0 1C C0 D8 FF 8D 3C E9 A3 D8 02 74 B3 40 B1 0C
8E00 8F 12 D3 54 BE A2 FF FF 0C 8F 12 D3 5F DA A2 FE
8E10 FF A0 FF FF B3 A0 FE FF 5D B5 B4 BB 8C F4 7D BB
8E20 D3 5F DA A2 FD FF A0 FD FF B3 3C E9 F4 8B 04 A0
8E30 FD FF B3 3C E9 AA 8D 04 A0 FD FF 53 DA D8 44 8E
8E40 44 D6 45 8E 41 A2 FD FF 8E F0 00 A0 FF FF B3 A0
8E50 FE FF 5D B5 B4 BB 8C F4 7D BB B4 B3 D3 DA D4 A3
8E60 FD FF A0 FF FF B3 A0 FE FF 5D B5 B4 BB 8C F4 7D
8E70 BB B4 B3 D3 DB D4 63 60 E9 C9 D3 04 61 3C E9 2D
8E80 C1 04 B3 8E 04 9B E9 8C C6 04 8E 08 9B E9 4A C4
8E90 02 8E FD AB 8E E0 00 62 E9 12 F4 06 3C 8E B2 AD
8EA0 8E EE 00 62 E9 12 F4 08 AC BE 8A CF 

Function $8DE5 (FD FF) -> General <00> switches sides
Args:
<0C> General
Locs:
+FD  ?
+FE  ?
+FF  ?

8DEA 3C
8DEB E9 A3 D8 02 / Call $D8A3 -> General's nation
8DEF 74
8DF0 B0          / Nation - Advisor
8DF1 1C
8DF2 C0          / Check if general is its nation's advisor
8DF3 D8 FF 8D

If the general is its nation's advisor
{
	8DF6 3C
	8DF7 E9 A3 D8 02
	8DFB 74
	8DFC B3
	8DFD 40
	8DFE B1          / Remove general as advisor
}

8DFF 0C
8E00 8F 12
8E02 D3
8E03 54
8E04 BE
8E05 A2 FF FF

8E08 0C
8E09 8F 12
8E0B D3
8E0C 5F
8E0D DA
8E0E A2 FE FF

8E11 A0 FF FF
8E14 B3
8E15 A0 FE FF
8E18 5D
8E19 B5
8E1A B4
8E1B BB
8E1C 8C F7 7D    / $7DF7
8E1F BB
8E20 D3
8E21 5F
8E22 DA
8E23 A2 FD FF

8E26 A0 FD FF
8E29 B3
8E2A 3C
8E2B E9 F4 8B 04 / Call $8BF4

8E2F A0 FD FF
8E32 B3
8E33 3C
8E34 E9 AA 8D 04 / Call $8DAA -> General joins army

8E38 A0 FD FF
8E3B 53
8E3C DA
8E3D D8 44 8E

	8E40 44
	8E41 D6 45 8E

	8E44 41

8E45 A2 FD FF

8E48 8E F0 00
8E4B A0 FF FF
8E4E B3
8E4F A0 FE FF
8E52 5D
8E53 B5
8E54 B4
8E55 BB
8E56 8C F4 7D    / $7DF4
8E59 BB
8E5A B4
8E5B B3
8E5C D3
8E5D DA
8E55 D4
8E56 A3 FD FF
8E59 A0 FF FF
8E5C D3
8E5D DA
8E5E D4
8E5F A3 FD FF
8E62 A0 FF FF
8E65 B3
8E66 A0 FE FF
8E69 5D
8E6A B5
8E6B B4
8E6C BB
8E6D 8C F4 7D    / $7DF4
8E70 BB
8E71 B4
8E72 B3
8E73 D3
8E74 DB
8E75 D4

8E76 63
8E77 60
8E78 E9 C9 D3 04 / Call $D3C9

8E7C 61
8E7D 3C
8E7E E9 2D C1 04 / Call $C12D -> Get name of general
8E82 B3
8E83 8E 04 9B    / $9B04 "%s\n"
8E86 E9 8C C6 04 / Call $C68C -> Print
8E8A 8E 08 9B    / $9B08 "switched\nsides\W"
8E8D E9 4A C4 02 / Call $C44A -> Print

8E91 8E FD AB
8E94 8E E0 00
8E97 62
8E98 E9 12 F4 06 / Call $F412 -> E0:ABFD

8E9C 3C
8E9D 8E B2 AD
8EA0 8E EE 00
8EA3 62
8EA4 E9 12 F4 08 / Call $F412 -> EE:ADB2

8EA8 AC BE 8A    / Call $8ABE

8EAB CF          / Return
----------------------------------------------------
     00 01 02 03 04 05 06 07 08 09 0A 0B 0C 0D 0E 0F
8EA0                                     20 D1 E4 F9
8EB0 FF 8A E1 7B 85 F9 8E 2A B3 8E F0 00 62 E9 12 F4
8EC0 06 40 A2 FF FF 40 D6 31 8F A0 FD FF 8C FF 78 BB
8ED0 D3 B3 AA F2 7B 8E CD A8 8E E0 00 62 E9 12 F4 0A
8EE0 A2 FE FF 8C FF 00 C1 D8 2D 8F A0 FE FF 8B 19 B5
8EF0 8C F4 73 BB 85 FB 87 FB E9 BA D8 02 D7 03 8F 41
8F00 D6 04 8F 40 D7 1B 8F 81 FB 72 B0 B3 E9 A3 D8 02
8F10 B3 3C E9 A3 D8 02 B4 C0 D8 2D 8F 81 F9 72 85 F9
8F20 8F FE B3 81 FB B1 A0 FF FF D0 A2 FF FF A0 FD FF
8F30 D0 A2 FD FF A0 FD FF 56 C6 D7 C9 8E 87 F9 40 B1
8F40 A0 FF FF A9 5F 7F A0 FF FF 50 C0 CF 
----------------------------------------------------
     00 01 02 03 04 05 06 07 08 09 0A 0B 0C 0D 0E 0F
8F40                                     20 D1 E4 00
8F50 00 62 A5 20 79 D1 D2 8C 1B 79 BB D3 75 B3 A5 20
8F60 79 D1 D2 8C 1A 79 BB D3 73 B3 8E 6F AB 8E E0 00
8F70 62 E9 12 F4 0C 3C 8E 19 9B E9 8C C6 04 8E FD AB
8F80 8E E0 00 62 E9 12 F4 06 CF 

Function $8F4C (00 00)

8F51 62
8F52 A5 20 79
8F55 D1
8F56 D2
8F57 8C 1B 79
8F5A BB
8F5B D3
8F5C 75
8F5D B3
8F5E A5 20 79
8F61 D1
8F62 D2
8F63 8C 1A 79
8F66 BB
8F67 D3

     00 01 02 03 04 05 06 07 08 09 0A 0B 0C 0D 0E 0F
8F60 79 D1 D2 8C 1A 79 BB D3 73 B3 8E 6F AB 8E E0 00
8F70 62 E9 12 F4 0C 3C 8E 19 9B E9 8C C6 04 8E FD AB
8F80 8E E0 00 62 E9 12 F4 06 CF 
----------------------------------------------------
     00 01 02 03 04 05 06 07 08 09 0A 0B 0C 0D 0E 0F
8F80                            20 D1 E4 FE FF 0C 72
8F90 D6 A6 8F 0B 73 D3 5F DA D8 9F 8F 40 D6 A0 8F 41
8FA0 D8 A5 8F 41 CF 0B B0 2B 0B D7 93 8F 40 CF 

Function $8F89 (FE FF)

8F8E 0C
8F8F 72
8F90 D6 A6 8F

8F93 0B
8F94 73
8F95 D3
8F96 5F
8F97 

8FA6

     00 01 02 03 04 05 06 07 08 09 0A 0B 0C 0D 0E 0F
8F80                            20 D1 E4 FE FF 0C 72
8F90 D6 A6 8F 0B 73 D3 5F DA D8 9F 8F 40 D6 A0 8F 41
8FA0 D8 A5 8F 41 CF 0B B0 2B 0B D7 93 8F 40 CF 
----------------------------------------------------
     00 01 02 03 04 05 06 07 08 09 0A 0B 0C 0D 0E 0F
8FA0                                           20 D1
8FB0 E4 FC FF 40 A2 FE FF 40 D6 11 90 A0 0F 00 A2 FD
8FC0 FF A0 11 00 A2 FC FF A0 FF FF B3 DE FC FF B3 DE
8FD0 FD FF B3 E9 FF 95 06 D8 0D 90 A0 FD FF B3 A0 FC
8FE0 FF 5D B5 B4 BB 8C F4 7D BB D3 5F DA D8 0D 90 A0
8FF0 FC FF B3 A0 FD FF B3 A0 0D 00 B3 A0 0B 00 B3 E9
9000 1E 9A 08 D7 0D 90 A0 FE FF D0 A2 FE FF A0 FF FF
9010 D0 A2 FF FF A0 FF FF 56 C6 D7 BB 8F A0 FE FF CF
----------------------------------------------------
     00 01 02 03 04 05 06 07 08 09 0A 0B 0C 0D 0E 0F
9020 20 D1 E4 00 00 3D 0C 7E B0 B3 E9 4C F3 04 B3 0C
9030 7E B4 B3 B0 BC B1 CF 

Function $9020 (00 00)

9025 3D
9026 0C
9027 7E
9028 B0
9029 B3
902A E9 4C F3 04 / Call $F34C -> Get smaller

902E B3
902F 0C
9030 7E
9031 B4
9032 B3
9033 B0
9034 BC
9035 B1

9036 CF
----------------------------------------------------
     00 01 02 03 04 05 06 07 08 09 0A 0B 0C 0D 0E 0F
9030                      20 D1 E4 FE FF 3D 0C 7C B0
9040 B3 E9 A8 D7 04 2B 3C E9 4D C3 02 B3 0C 7C B0 B3
9050 3B E9 4C F3 04 B3 E9 A8 D7 04 B3 3C E9 20 90 04
9060 CF 
----------------------------------------------------
     00 01 02 03 04 05 06 07 08 09 0A 0B 0C 0D 0E 0F
9060    20 D1 E4 00 00 CF 
----------------------------------------------------
     00 01 02 03 04 05 06 07 08 09 0A 0B 0C 0D 0E 0F
9060                      20 D1 E4 FF FF A0 0B 00 8C
9070 1E 9B BB D3 B3 A0 0B 00 54 C0 D8 81 90 40 D6 86
9080 90 6A E9 C5 D7 02 B4 BB A2 FF FF A0 FF FF CF 
----------------------------------------------------
     00 01 02 03 04 05 06 07 08 09 0A 0B 0C 0D 0E 0F
9080                                              20
9090 D1 E4 F9 FF A0 0F 00 B3 A0 0D 00 B3 E9 57 98 04
90A0 2A 0A D8 AB 90 A4 2C 7D D7 C1 90 A0 0D 00 B3 A0
90B0 0F 00 5D B5 B4 BB 8C 58 7D BB D3 B3 E9 67 90 02
90C0 CF A4 2C 7D 74 D3 A2 FA FF 0A 74 D3 A2 FB FF A0
90D0 FB FF B3 A0 FA FF B4 C6 D8 DF 90 40 D6 E8 90 A0
90E0 FB FF B3 A0 FA FF B4 BC A2 F9 FF A0 F9 FF B3 E9
90F0 C5 D7 02 51 BE B3 A0 0B 00 B3 A0 FB FF B3 89 65
9100 B4 BC B4 B5 8B 64 B8 B4 BB 2B A0 0B 00 D7 16 91
9110 A0 0B 00 D6 1D 91 8D 64 3B E9 4C F3 04 CF 
----------------------------------------------------
     00 01 02 03 04 05 06 07 08 09 0A 0B 0C 0D 0E 0F
9110                                           20 D1
9120 E4 F8 FF 40 2B 0C D8 53 91 0C 8F 10 D3 2A 3C E9
9130 4D C3 02 29 0C 75 D3 28 61 3C E9 5F C0 04 8C A3
9140 00 C0 D8 4B 91 89 14 CD 08 BB 28 08 53 B5 1A BB
9150 19 BB 2B 0B CF 
----------------------------------------------------
     00 01 02 03 04 05 06 07 08 09 0A 0B 0C 0D 0E 0F
9150                20 D1 E4 FB FF 81 13 7C B0 2A A4
9160 2A 7D D8 94 91 A4 2A 7D 8F 12 D3 A2 FB FF 81 13
9170 A6 2A 7D C0 D8 94 91 A0 FB FF 54 BE B3 A0 FB FF
9180 5F DA 5D B5 B4 BB 8C 58 7D BB D3 56 C0 D8 94 91
9190 47 A2 0F 00 A0 0F 00 D2 8C 25 9B BB B0 B3 8E 2C
91A0 01 E9 C5 D7 02 B3 3A E9 4C F3 04 B3 0C 1D BC B4
91B0 BC 5A B5 B4 B6 1F B6 2B 0B 50 C5 D8 C9 91 8D 1E
91C0 E9 C5 D7 02 D0 CB D6 CA 91 0B CF 
----------------------------------------------------
     00 01 02 03 04 05 06 07 08 09 0A 0B 0C 0D 0E 0F
91C0                                  20 D1 E4 00 00
91D0 8E F0 00 A0 0F 00 B3 A0 11 00 5D B5 B4 BB 8C F4
91E0 7D BB B4 B3 D3 DA D4 A0 0B 00 B3 A0 0D 00 5D B5
91F0 B4 BB 8C F4 7D BB D3 5F DA B3 A0 0F 00 B3 A0 11
9200 00 5D B5 B4 BB 8C F4 7D BB B4 B3 D3 DB D4 8D 20
9210 A0 0B 00 B3 A0 0D 00 5D B5 B4 BB 8C F4 7D BB B4
9220 B3 D3 DA D4 CF 

Function $91CB (00 00)

91D0 8E F0 00
91D3 A0 0F 00
91D6 B3
91D7 A0 11 00
91DA 5D
91DB B5
91DC B4
91DD BB
91DE 8C F4 7D    / $7DF4

     00 01 02 03 04 05 06 07 08 09 0A 0B 0C 0D 0E 0F
91C0                                  20 D1 E4 00 00
91D0 8E F0 00 A0 0F 00 B3 A0 11 00 5D B5 B4 BB 8C F4
91E0 7D BB B4 B3 D3 DA D4 A0 0B 00 B3 A0 0D 00 5D B5
91F0 B4 BB 8C F4 7D BB D3 5F DA B3 A0 0F 00 B3 A0 11
9200 00 5D B5 B4 BB 8C F4 7D BB B4 B3 D3 DB D4 8D 20
9210 A0 0B 00 B3 A0 0D 00 5D B5 B4 BB 8C F4 7D BB B4
9220 B3 D3 DA D4 CF 
----------------------------------------------------
     00 01 02 03 04 05 06 07 08 09 0A 0B 0C 0D 0E 0F
9220                20 D1 E4 00 00 0C D8 3B 92 3C E9
9230 A3 D8 02 B3 E9 E2 D4 02 D7 3F 92 40 D6 40 92 41
9240 CF 

Function $9225 (00 00) -> Checks if general <00> is player-controlled

922A 0C
922B D8 3B 92

922E 3C
922F E9 A3 D8 02 / Call $D8A3 -> Get general's nation
9233 B3
9234 E9 E2 D4 02 / Call $D4E2 -> Check if player controlled
9238 D7 3F 92

if
	923B 40
	923C D6 40 92
else
	923F 41

9240 CF	
----------------------------------------------------
     00 01 02 03 04 05 06 07 08 09 0A 0B 0C 0D 0E 0F
9240    20 D1 E4 00 00 0C 74 B0 B3 E9 25 92 02 CF 

Function $9241 Check if army is controlled by a human player

9246 0C
9247 74
9248 B0
9249 B3
924A E9 25 92 02 .. 
924E CF

----------------------------------------------------
     00 01 02 03 04 05 06 07 08 09 0A 0B 0C 0D 0E 0F
9240                                              20
9250 D1 E4 00 00 A0 0F 00 B3 A0 11 00 5D B5 B4 BB 8C
9260 58 7D BB D3 51 C0 D8 95 92 A0 0F 00 B3 A0 11 00
9270 5D B5 B4 BB 8C F4 7D BB D3 5F DA D8 95 92 A0 11
9280 00 B3 A0 0F 00 B3 A0 0D 00 B3 A0 0B 00 B3 E9 1E
9290 9A 08 D8 99 92 40 D6 9A 92 41 CF 

Function $924F - Check if terrain is surpasasable?
Args:
+0B - current x-pos of active general
+0D - current y-pos of active general
+0F - target x-pos
+11 - target y-pos

9254 A0 0F 00
9257 B3
9258 A0 11 00
925B 5D
925C B5
925D B4
925E BB
925F 8C 58 7D  / Index tile data for target x,y
9262 BB
9263 D3
9264 51
9265 C0
9266 D8 95 92

9269 A0 0F 00
926C B3 
926D A0 11 00
9270 5D
9271 B5
9272 B4
9273 BB
9274 8C F4 7D  / Index tile data for target x,y (?)
9277 BB
9278 D3
9279 5F
927A DA
927B D8 95 92
	
IF TARGET TILE IS (?) AND (?)
927E A0 11 00
9281 B3
9282 A0 0F 00
9285 B3
9286 A0 0D 00
9289 B3
928A A0 0B 00
928D B3
928E E9 1E 9A 08
9292 D8 99 92	

if
	9295 40
	9296 D6 9A 92 ; return false
else
	9299 41       ; return true

929A CF
----------------------------------------------------
     00 01 02 03 04 05 06 07 08 09 0A 0B 0C 0D 0E 0F
9290                                  20 D1 E4 FE FF
92A0 3C E9 6C 99 02 A2 FF FF 3D E9 6C 99 02 A2 FE FF
92B0 A0 FE FF B3 A0 FF FF B4 C0 D8 BE 92 40 CF A0 FF
92C0 FF 51 DA 51 C0 D8 E6 92 A0 FE FF 51 DA 51 C0 D8
92D0 E6 92 A5 5E 7F D8 E4 92 A5 5E 7F 53 C0 D7 E4 92
92E0 40 D6 E5 92 41 CF A0 FF FF 51 DA D7 F9 92 3D 3C
92F0 E9 FB 92 04 D8 F9 92 40 CF 41 CF 
----------------------------------------------------
     00 01 02 03 04 05 06 07 08 09 0A 0B 0C 0D 0E 0F
92F0                                  20 D1 E4 FD FF
9300 3C E9 6C 99 02 A2 FF FF 3D E9 6C 99 02 A2 FE FF
9310 40 D6 33 93 A0 FE FF B3 A0 FD FF B3 A0 FF FF 53
9320 B5 B4 BB 8C 1E 7D BB D3 B4 C0 D8 2F 93 41 CF A0
9330 FD FF D0 A2 FD FF A0 FD FF 53 C6 D7 14 93 40 CF
----------------------------------------------------
     00 01 02 03 04 05 06 07 08 09 0A 0B 0C 0D 0E 0F
9340 20 D1 E4 FE FF 0C 8F 12 D3 54 BE A2 FF FF 0C 8F
9350 12 D3 5F DA A2 FE FF 0C 8F 12 B3 A0 0F 00 B3 A0
9360 0D 00 54 BD B4 DB D4 A0 0F 00 B3 A0 0D 00 B3 A0
9370 FE FF B3 A0 FF FF B3 E9 CB 91 08 A0 FE FF B3 A0
9380 FF FF B3 8E D5 AE 8E EE 00 62 E9 12 F4 0A 3C 8E
9390 B2 AD 8E EE 00 62 E9 12 F4 08 61 E9 26 D1 02 CF

Function $9340 (FE FF)

9345 0C
9346 8F 12
9348 D3
9349 54
934A BE
934B A2 FF FF

934E 0C
934F 8F 12
9351 D3
9352 5F
9353 DA
9354 A2 FE FF

9357 0C
9358 8F 12
935A B3
935B A0 0F 00
935E B3
935F A0 0D 00
9362 54
9363 BD
9364 B4
9365 DB
9366 D4

9367 A0 0F 00
936A B3
936B A0 0D 00
936E B3
936F A0 FE FF
9372 B3
9373 A0 FF FF
9376 B3
9377 E9 CB 91 08 / Call $91CB

     00 01 02 03 04 05 06 07 08 09 0A 0B 0C 0D 0E 0F
9370 FE FF B3 A0 FF FF B3 E9 CB 91 08 A0 FE FF B3 A0
9380 FF FF B3 8E D5 AE 8E EE 00 62 E9 12 F4 0A 3C 8E
9390 B2 AD 8E EE 00 62 E9 12 F4 08 61 E9 26 D1 02 CF
----------------------------------------------------
     00 01 02 03 04 05 06 07 08 09 0A 0B 0C 0D 0E 0F
93A0 20 D1 E4 FB FF 40 D6 D0 94 A0 0B 00 A2 FE FF A0
93B0 0D 00 A2 FD FF A0 FF FF B3 DE FD FF B3 DE FE FF
93C0 B3 E9 FF 95 06 D8 CC 94 A0 FE FF B3 A0 FD FF 5D
93D0 B5 B4 BB 8C 58 7D BB D3 56 C0 D7 CC 94 A0 FE FF
93E0 B3 A0 FD FF 5D B5 B4 BB 8C F4 7D BB D3 5F DA D8
93F0 CC 94 A0 FD FF B3 A0 FE FF B3 A0 11 00 B3 A0 0F
9400 00 B3 E9 1E 9A 08 D7 CC 94 A0 FD FF B3 A0 FE FF
9410 B3 E9 57 98 04 85 FB A4 2C 7D 74 D3 B3 81 FB 74
9420 D3 B4 C6 D8 CC 94 8D 64 E9 C5 D7 02 8B 32 C6 D8
9430 36 94 41 D6 37 94 40 D8 CC 94 A0 FD FF B3 A0 FE
9440 FF B3 8E D5 AE 8E EE 00 62 E9 12 F4 0A A0 0D 00
9450 B3 A0 0B 00 B3 A0 FD FF B3 A0 FE FF B3 E9 CB 91
9460 08 81 FB 8F 12 B3 A0 0D 00 B3 A0 0B 00 54 BD B4
9470 DB D4 A0 0B 00 B3 A0 0D 00 5D B5 B4 BB 8C F4 7D
9480 BB D3 8B 20 DA D8 93 94 61 87 FB E9 14 83 04 D8
9490 A0 94 CF 87 FB 8E B2 AD 8E EE 00 62 E9 12 F4 08
94A0 AA 2C 7D A0 0D 00 B3 A0 0B 00 B3 A0 0D 00 B3 A0
94B0 0B 00 B3 A0 FD FF B3 A0 FE FF B3 8E 82 B3 8E EE
94C0 00 62 E9 12 F4 0E B3 E9 78 84 08 CF A0 FF FF D0
94D0 A2 FF FF A0 FF FF 56 C6 D7 A9 93 CF 

Function $93A0 (FB FF)

93A5 40
93A6 D6 D0 94

93A9 A0 0B 00
93AC A2 FE FF
93AF A0 0D 00
93B2 A2 FD FF

93B5 A0 FF FF
93B8 B3
93B9 DE FD FF
93BC B3
93BD DE FE FF
93C0 B3
93C1 E9 FF 95 06 / Call $95FF (move active unit in direction)

93C5 D8 CC 94

93C8 A0 FE FF
93CB B3
93CC A0 FD FF
93CF 5D
93D0 B5
93D1 B4
93D2 BB
93D3 8C 58 7D
93D6 BB
93D7 D3
93D8 56
93D9 C0
93DA D7 CC 94

93DD A0 FE FF
93E0 B3
93E1 A0 FD FF
93E4 5D
93E5 B5
93E6 B4
93E7 BB
93E8 8C F4 7D
93EB BB
93EC D3
93ED 5F
93EE DA
93EF D8 CC 94

93F2 A0 FD FF
93F5 B3
93F6 A0 FE FF
93F9 B3
93FA A0 11 00
93FD B3
93FE A0 0F 00
9401 B3
9402 E9 1E 9A 08 / Call $9A1E
9406 D7 CC 94

9409 A0 FD FF
940C B3
940D A0 FE FF
9410 B3
9411 E9 57 98 04 / Call $9857
9415 85 FB

9417 A4 2C 7D
941A 74
941B D3
941C B3
941D 81 FB
941F 74
9420 D3
9421 B4
9422 C6
9423 D8 CC 94

9426 8D 64
9428 E9 C5 D7 02 / Call $D7C5

942C 8B 32
942E C6
942F D8 36 94

9432 41
9433 D6 37 94

9436 40

9437 D8 CC 94

943A A0 FD FF
943D B3
943E A0 FE FF
9441 B3
9442 8E D5 AE
9445 8E EE 00
9448 62
9449 E9 12 F4 0A / Call $F412 -> EE:AED5

944D A0 0D 00
9450 B3
9451 A0 0B 00
9454 B3
9455 A0 FD FF
9458 B3
9459 A0 FE FF
945C B3
945D E9 CB 91 08 / Call $91CB
9461 81 FB

9463 8F 12
9465 B3
9466 A0 0D 00
9469 B3
946A A0 0B 00
946D 54
946E BD
946F B4
9470 DB
9471 D4
9472 A0 0B 00

94CC

94D0 A2 FF FF
94D3 A0 FF FF
94D6 56
94D7 C6
94D8 D7 A9 93

94DB CF

     00 01 02 03 04 05 06 07 08 09 0A 0B 0C 0D 0E 0F
9470 DB D4 A0 0B 00 B3 A0 0D 00 5D B5 B4 BB 8C F4 7D
9480 BB D3 8B 20 DA D8 93 94 61 87 FB E9 14 83 04 D8
9490 A0 94 CF 87 FB 8E B2 AD 8E EE 00 62 E9 12 F4 08
94A0 AA 2C 7D A0 0D 00 B3 A0 0B 00 B3 A0 0D 00 B3 A0
94B0 0B 00 B3 A0 FD FF B3 A0 FE FF B3 8E 82 B3 8E EE
94C0 00 62 E9 12 F4 0E B3 E9 78 84 08 CF A0 FF FF D0
94D0 A2 FF FF A0 FF FF 56 C6 D7 A9 93 CF 
----------------------------------------------------
     00 01 02 03 04 05 06 07 08 09 0A 0B 0C 0D 0E 0F
94D0                                     20 D1 E4 F9
94E0 FF 0C 8F 12 D3 54 BE A2 FD FF A2 FF FF 0C 8F 12
94F0 D3 5F DA A2 FC FF A2 FE FF A0 FF FF B3 A0 FE FF
9500 5D B5 B4 BB 8C 58 7D BB D3 56 C0 D8 16 95 40 D6
9510 3D 95 40 D6 47 95 A0 FF FF B3 A0 FE FF 5D B5 B4
9520 BB 8C F4 7D BB D3 8B 20 DA D8 0E 95 61 A0 FE FF
9530 B3 A0 FF FF B3 E9 CA 97 06 D8 0E 95 41 A2 F9 FF
9540 A0 F9 FF D7 12 95 41 A2 FA FF A0 0D 00 B3 DE FC
9550 FF B3 DE FD FF B3 E9 FF 95 06 0C 8F 11 D3 B3 A0
9560 FC FF B3 A0 FD FF B3 8E BC A8 8E F4 00 62 E9 12
9570 F4 0C D8 77 95 40 CF A0 0F 00 D7 8D 95 61 A0 FA
9580 FF B3 8E 29 B2 8E EE 00 62 E9 12 F4 0A A0 FD FF
9590 B3 A0 FC FF 5D B5 B4 BB 8C 58 7D BB D3 8C 36 9B
95A0 BB D3 A2 FB FF A3 FB FF 0C 8F 11 B4 B3 D3 BC D4
95B0 A0 FC FF B3 A0 FD FF B3 3C E9 40 93 06 A0 F9 FF
95C0 D8 D7 95 A0 FC FF B3 A0 FD FF B3 A0 FE FF B3 A0
95D0 FF FF B3 E9 A0 93 08 60 A0 FC FF B3 A0 FD FF B3
95E0 E9 CA 97 06 D8 FA 95 3C A0 FC FF B3 A0 FD FF B3
95F0 A0 0D 00 B3 E9 78 84 08 40 CF 41 A9 1D 7D CF
----------------------------------------------------
bool f_95FF ( byte& xpos, byte& ypos, byte direction )

Attempts to move in direction from xpos, ypos.
If movement is possible, xpos & ypos are altered to reflect new position.
Value returned = success or failure.

 04:95FF:A2 00     LDX #$00
 04:9601:A0 07     LDY #$07
 04:9603:B1 02     LDA ($02),Y
 04:9605:99 08 00  STA $0008,Y
 04:9608:88        DEY
 04:9609:D0 F8     BNE $9603   / Transfer args from stack
 
 04:960B:A5 0E     LDA $000E
 04:960D:A8        TAY
 04:960E:F0 11     BEQ $9621
 04:9610:88        DEY
 04:9611:F0 1B     BEQ $962E
 04:9613:88        DEY
 04:9614:F0 26     BEQ $963C
 04:9616:88        DEY
 04:9617:F0 34     BEQ $964D
 04:9619:88        DEY
 04:961A:F0 3E     BEQ $965A
 04:961C:88        DEY
 04:961D:F0 47     BEQ $9666
 04:961F:D0 56     BNE $9677
 
Direction 0 (Down-Left)
	04:9621:B1 0A     LDA ($0A),Y
	04:9623:F0 52     BEQ $9677    ; Return false if xpos is 0 (left edge)
	04:9625:38        SEC
	04:9626:E9 01     SBC #$01
	04:9628:91 0A     STA ($0A),Y
	04:962A:29 01     AND #$01
	04:962C:D0 4D     BNE $967B
 
Direction 1 (Down)
	04:962E:B1 0C     LDA ($0C),Y
	04:9630:C9 0B     CMP #$0B
	04:9632:F0 43     BEQ $9677
	04:9634:18        CLC
	04:9635:69 01     ADC #$01
	04:9637:91 0C     STA ($0C),Y @ $05B9 = #$E8
	04:9639:4C 7B 96  JMP $967B
 
Direction 2 (Down-Right)
	04:963C:B1 0A     LDA ($0A),Y
	04:963E:C9 0C     CMP #$0C
	04:9640:F0 35     BEQ $9677
	04:9642:18        CLC
	04:9643:69 01     ADC #$01
	04:9645:91 0A     STA ($0A),Y
	04:9647:29 01     AND #$01
	04:9649:F0 E3     BEQ $962E
	04:964B:D0 2E     BNE $967B

Direction 3	(Up-Left)
	04:964D:B1 0A     LDA ($0A),Y
	04:964F:F0 26     BEQ $9677
	04:9651:38        SEC
	04:9652:E9 01     SBC #$01
	04:9654:91 0A     STA ($0A),Y
	04:9656:29 01     AND #$01
	04:9658:F0 21     BEQ $967B

Direction 4 (Up)
	04:965A:B1 0C     LDA ($0C),Y
	04:965C:F0 19     BEQ $9677
	04:965E:38        SEC
	04:965F:E9 01     SBC #$01
	04:9661:91 0C     STA ($0C),Y
	04:9663:4C 7B 96  JMP $967B
	
Direction 5 (Up-Right)
	04:9666:B1 0A     LDA ($0A),Y
	04:9668:C9 0C     CMP #$0C
	04:966A:F0 0B     BEQ $9677 
	04:966C:18        CLC
	04:966D:69 01     ADC #$01
	04:966F:91 0A     STA ($0A),Y
	04:9671:29 01     AND #$01
	04:9673:D0 E5     BNE $965A 
	04:9675:F0 04     BEQ $967B

 
 04:9677:A9 00     LDA #$00     / Return 0
 04:9679:F0 02     BEQ $967D
 
 04:967B:A9 01     LDA #$01     / Return 1
 04:967D:85 08     STA $0008    
 04:967F:86 09     STX $0009
 04:9681:60        RTS -----------------------------------------
----------------------------------------------------------------
Function $9682

 04:9682:20 7A E3  JSR $E37A
 04:9685:00        BRK
 04:9686:FE FF A0  INC $A0FF,X @ $A100 = #$00
 04:9689:0D B1 04  ORA $04B1 = #$1B
 04:968C:A0 FF     LDY #$FF
 04:968E:91 06     STA ($06),Y @ $E0D4 = #$AC
 04:9690:A0 0F     LDY #$0F
 04:9692:B1 04     LDA ($04),Y @ $05B9 = #$E8
 04:9694:A0 FE     LDY #$FE
 04:9696:91 06     STA ($06),Y @ $E0D4 = #$AC
 04:9698:A0 0B     LDY #$0B
 04:969A:B1 04     LDA ($04),Y @ $05B9 = #$E8
 04:969C:85 18     STA $0018 = #$00
 04:969E:86 19     STX $0019 = #$00
 04:96A0:A5 19     LDA $0019 = #$00
 04:96A2:48        PHA
 04:96A3:A5 18     LDA $0018 = #$00
 04:96A5:48        PHA
 04:96A6:18        CLC
 04:96A7:A9 FE     LDA #$FE
 04:96A9:65 06     ADC $0006 = #$D3
 04:96AB:85 18     STA $0018 = #$00
 04:96AD:8A        TXA
 04:96AE:65 07     ADC $0007 = #$E0
 04:96B0:85 19     STA $0019 = #$00
 04:96B2:A5 19     LDA $0019 = #$00
 04:96B4:48        PHA
 04:96B5:A5 18     LDA $0018 = #$00
 04:96B7:48        PHA
 04:96B8:18        CLC
 04:96B9:A9 FF     LDA #$FF
 04:96BB:65 06     ADC $0006 = #$D3
 04:96BD:85 18     STA $0018 = #$00
 04:96BF:8A        TXA
 04:96C0:65 07     ADC $0007 = #$E0
 04:96C2:85 19     STA $0019 = #$00
 04:96C4:A5 19     LDA $0019 = #$00
 04:96C6:48        PHA
 04:96C7:A5 18     LDA $0018 = #$00
 04:96C9:48        PHA
 04:96CA:20 19 E4  JSR $E419
 04:96CD:FF        UNDEFINED
 04:96CE:95 08     STA $08,X @ $0009 = #$00
 04:96D0:A5 08     LDA $0008 = #$E1
 04:96D2:D0 03     BNE $96D7
 04:96D4:4C C5 97  JMP $97C5
 04:96D7:A0 FF     LDY #$FF
 04:96D9:B1 06     LDA ($06),Y @ $E0D4 = #$AC
 04:96DB:85 18     STA $0018 = #$00
 04:96DD:86 19     STX $0019 = #$00
 04:96DF:A9 0D     LDA #$0D
 04:96E1:85 14     STA $0014 = #$00
 04:96E3:86 15     STX $0015 = #$00
 04:96E5:88        DEY
 04:96E6:B1 06     LDA ($06),Y @ $E0D4 = #$AC
 04:96E8:85 10     STA $0010 = #$DA
 04:96EA:86 11     STX $0011 = #$BA
 04:96EC:A0 10     LDY #$10
 04:96EE:A2 14     LDX #$14
 04:96F0:A9 0C     LDA #$0C
 04:96F2:20 58 E2  JSR $E258
 04:96F5:18        CLC
 04:96F6:A5 0C     LDA $000C = #$B8
 04:96F8:65 18     ADC $0018 = #$00
 04:96FA:85 14     STA $0014 = #$00
 04:96FC:A5 0D     LDA $000D = #$05
 04:96FE:65 19     ADC $0019 = #$00
 04:9700:85 15     STA $0015 = #$00
 04:9702:18        CLC
 04:9703:A5 14     LDA $0014 = #$00
 04:9705:69 F4     ADC #$F4
 04:9707:85 18     STA $0018 = #$00
 04:9709:A5 15     LDA $0015 = #$00
 04:970B:69 7D     ADC #$7D
 04:970D:85 19     STA $0019 = #$00
 04:970F:A1 18     LDA ($18,X) @ $0A00 = #$00
 04:9711:85 14     STA $0014 = #$00
 04:9713:86 15     STX $0015 = #$00
 04:9715:A9 0F     LDA #$0F
 04:9717:25 14     AND $0014 = #$00
 04:9719:85 18     STA $0018 = #$00
 04:971B:8A        TXA
 04:971C:85 19     STA $0019 = #$00
 04:971E:A5 18     LDA $0018 = #$00
 04:9720:D0 03     BNE $9725
 04:9722:4C C5 97  JMP $97C5
 04:9725:A0 FE     LDY #$FE
 04:9727:B1 06     LDA ($06),Y @ $E0D4 = #$AC
 04:9729:85 18     STA $0018 = #$00
 04:972B:86 19     STX $0019 = #$00
 04:972D:A5 19     LDA $0019 = #$00
 04:972F:48        PHA
 04:9730:A5 18     LDA $0018 = #$00
 04:9732:48        PHA
 04:9733:C8        INY
 04:9734:B1 06     LDA ($06),Y @ $E0D4 = #$AC
 04:9736:85 18     STA $0018 = #$00
 04:9738:86 19     STX $0019 = #$00
 04:973A:A5 19     LDA $0019 = #$00
 04:973C:48        PHA
 04:973D:A5 18     LDA $0018 = #$00
 04:973F:48        PHA
 04:9740:A0 0F     LDY #$0F
 04:9742:B1 04     LDA ($04),Y @ $05B9 = #$E8
 04:9744:85 18     STA $0018 = #$00
 04:9746:86 19     STX $0019 = #$00
 04:9748:A5 19     LDA $0019 = #$00
 04:974A:48        PHA
 04:974B:A5 18     LDA $0018 = #$00
 04:974D:48        PHA
 04:974E:A0 0D     LDY #$0D
 04:9750:B1 04     LDA ($04),Y @ $05B9 = #$E8
 04:9752:85 18     STA $0018 = #$00
 04:9754:86 19     STX $0019 = #$00
 04:9756:A5 19     LDA $0019 = #$00
 04:9758:48        PHA
 04:9759:A5 18     LDA $0018 = #$00
 04:975B:48        PHA
 04:975C:20 19 E4  JSR $E419
 04:975F:1E 9A 0A  ASL $0A9A,X @ $0A9B = #$00
 04:9762:A5 08     LDA $0008 = #$E1
 04:9764:F0 03     BEQ $9769
 04:9766:4C C5 97  JMP $97C5
 04:9769:A0 11     LDY #$11
 04:976B:B1 04     LDA ($04),Y @ $05B9 = #$E8
 04:976D:D0 03     BNE $9772
 04:976F:4C BE 97  JMP $97BE
 04:9772:A0 FF     LDY #$FF
 04:9774:B1 06     LDA ($06),Y @ $E0D4 = #$AC
 04:9776:85 18     STA $0018 = #$00
 04:9778:86 19     STX $0019 = #$00
 04:977A:A9 0D     LDA #$0D
 04:977C:85 14     STA $0014 = #$00
 04:977E:86 15     STX $0015 = #$00
 04:9780:88        DEY
 04:9781:B1 06     LDA ($06),Y @ $E0D4 = #$AC
 04:9783:85 10     STA $0010 = #$DA
 04:9785:86 11     STX $0011 = #$BA
 04:9787:A0 10     LDY #$10
 04:9789:A2 14     LDX #$14
 04:978B:A9 0C     LDA #$0C
 04:978D:20 58 E2  JSR $E258
 04:9790:18        CLC
 04:9791:A5 0C     LDA $000C = #$B8
 04:9793:65 18     ADC $0018 = #$00
 04:9795:85 14     STA $0014 = #$00
 04:9797:A5 0D     LDA $000D = #$05
 04:9799:65 19     ADC $0019 = #$00
 04:979B:85 15     STA $0015 = #$00
 04:979D:18        CLC
 04:979E:A5 14     LDA $0014 = #$00
 04:97A0:69 F4     ADC #$F4
 04:97A2:85 18     STA $0018 = #$00
 04:97A4:A5 15     LDA $0015 = #$00
 04:97A6:69 7D     ADC #$7D
 04:97A8:85 19     STA $0019 = #$00
 04:97AA:A1 18     LDA ($18,X) @ $0A00 = #$00
 04:97AC:85 14     STA $0014 = #$00
 04:97AE:86 15     STX $0015 = #$00
 04:97B0:A5 14     LDA $0014 = #$00
 04:97B2:29 80     AND #$80
 04:97B4:D0 03     BNE $97B9
 04:97B6:4C BE 97  JMP $97BE
 04:97B9:86 08     STX $0008 = #$E1
 04:97BB:86 09     STX $0009 = #$00
 04:97BD:60        RTS -----------------------------------------
 04:97BE:A9 01     LDA #$01
 04:97C0:85 08     STA $0008 = #$E1
 04:97C2:86 09     STX $0009 = #$00
 04:97C4:60        RTS -----------------------------------------
 04:97C5:86 08     STX $0008 = #$E1
 04:97C7:86 09     STX $0009 = #$00
 04:97C9:60        RTS -----------------------------------------
 04:97CA:20 7A E3  JSR $E37A
 04:97CD:00        BRK
 04:97CE:FF        UNDEFINED
 04:97CF:FF        UNDEFINED
 04:97D0:A0 FF     LDY #$FF
 04:97D2:91 06     STA ($06),Y @ $E0D4 = #$AC
 04:97D4:4C E3 97  JMP $97E3
 04:97D7:18        CLC
 04:97D8:A9 01     LDA #$01
 04:97DA:A0 FF     LDY #$FF
 04:97DC:71 06     ADC ($06),Y @ $E0D4 = #$AC
 04:97DE:91 06     STA ($06),Y @ $E0D4 = #$AC
 04:97E0:8A        TXA
 04:97E1:69 00     ADC #$00
 04:97E3:A0 FF     LDY #$FF
 04:97E5:B1 06     LDA ($06),Y @ $E0D4 = #$AC
 04:97E7:85 18     STA $0018 = #$00
 04:97E9:86 19     STX $0019 = #$00
 04:97EB:A5 18     LDA $0018 = #$00
 04:97ED:C9 06     CMP #$06
 04:97EF:A5 19     LDA $0019 = #$00
 04:97F1:E9 00     SBC #$00
 04:97F3:90 03     BCC $97F8
 04:97F5:4C 45 98  JMP $9845
 04:97F8:A0 0F     LDY #$0F
 04:97FA:B1 04     LDA ($04),Y @ $05B9 = #$E8
 04:97FC:85 18     STA $0018 = #$00
 04:97FE:86 19     STX $0019 = #$00
 04:9800:A5 19     LDA $0019 = #$00
 04:9802:48        PHA
 04:9803:A5 18     LDA $0018 = #$00
 04:9805:48        PHA
 04:9806:A0 0D     LDY #$0D
 04:9808:B1 04     LDA ($04),Y @ $05B9 = #$E8
 04:980A:85 18     STA $0018 = #$00
 04:980C:86 19     STX $0019 = #$00
 04:980E:A5 19     LDA $0019 = #$00
 04:9810:48        PHA
 04:9811:A5 18     LDA $0018 = #$00
 04:9813:48        PHA
 04:9814:A0 0B     LDY #$0B
 04:9816:B1 04     LDA ($04),Y @ $05B9 = #$E8
 04:9818:85 18     STA $0018 = #$00
 04:981A:86 19     STX $0019 = #$00
 04:981C:A5 19     LDA $0019 = #$00
 04:981E:48        PHA
 04:981F:A5 18     LDA $0018 = #$00
 04:9821:48        PHA
 04:9822:A0 FF     LDY #$FF
 04:9824:B1 06     LDA ($06),Y @ $E0D4 = #$AC
 04:9826:85 18     STA $0018 = #$00
 04:9828:86 19     STX $0019 = #$00
 04:982A:A5 19     LDA $0019 = #$00
 04:982C:48        PHA
 04:982D:A5 18     LDA $0018 = #$00
 04:982F:48        PHA
 04:9830:20 19 E4  JSR $E419
 04:9833:82        UNDEFINED
 04:9834:96 0A     STX $000A,Y @ $000B = #$65
 04:9836:A5 08     LDA $0008 = #$E1
 04:9838:D0 03     BNE $983D
 04:983A:4C 42 98  JMP $9842
 04:983D:84 08     STY $0008 = #$E1
 04:983F:86 09     STX $0009 = #$00
 04:9841:60        RTS -----------------------------------------
 04:9842:4C D7 97  JMP $97D7
 04:9845:86 08     STX $0008 = #$E1
 04:9847:86 09     STX $0009 = #$00
 04:9849:60        RTS -----------------------------------------
----------------------------------------------------------------
Function $984A

 04:984A:A2 00     LDX #$00
 04:984C:B1 02     LDA ($02),Y @ $05AF = #$E0
 04:984E:99 06 00  STA $0006,Y @ $0007 = #$E0
 04:9851:88        DEY
 04:9852:C0 01     CPY #$01
 04:9854:D0 F6     BNE $984C
 04:9856:60        RTS -----------------------------------------
----------------------------------------------------------------
Function $9857

 04:9857:A0 05     LDY #$05
 04:9859:20 4A 98  JSR $984A
 04:985C:06 08     ASL $0008 = #$E1
 04:985E:06 08     ASL $0008 = #$E1
 04:9860:06 08     ASL $0008 = #$E1
 04:9862:06 08     ASL $0008 = #$E1
 04:9864:A5 0A     LDA $000A = #$32
 04:9866:05 08     ORA $0008 = #$E1
 04:9868:85 16     STA $0016 = #$5A
 04:986A:A9 F5     LDA #$F5
 04:986C:85 14     STA $0014 = #$00
 04:986E:A9 7B     LDA #$7B
 04:9870:85 15     STA $0015 = #$00
 04:9872:A9 04     LDA #$04
 04:9874:85 18     STA $0018 = #$00
 04:9876:A0 04     LDY #$04
 04:9878:B1 14     LDA ($14),Y @ $0001 = #$EE
 04:987A:85 1A     STA $001A = #$0A
 04:987C:C8        INY
 04:987D:B1 14     LDA ($14),Y @ $0001 = #$EE
 04:987F:85 1B     STA $001B = #$00
 04:9881:05 1A     ORA $001A = #$0A
 04:9883:F0 21     BEQ $98A6
 04:9885:A0 12     LDY #$12
 04:9887:B1 1A     LDA ($1A),Y @ $000B = #$65
 04:9889:C5 16     CMP $0016 = #$5A
 04:988B:D0 09     BNE $9896
 04:988D:A5 1A     LDA $001A = #$0A
 04:988F:85 08     STA $0008 = #$E1
 04:9891:A5 1B     LDA $001B = #$00
 04:9893:85 09     STA $0009 = #$00
 04:9895:60        RTS -----------------------------------------
 04:9896:A0 01     LDY #$01
 04:9898:B1 1A     LDA ($1A),Y @ $000B = #$65
 04:989A:AA        TAX
 04:989B:88        DEY
 04:989C:B1 1A     LDA ($1A),Y @ $000B = #$65
 04:989E:85 1A     STA $001A = #$0A
 04:98A0:8A        TXA
 04:98A1:85 1B     STA $001B = #$00
 04:98A3:4C 81 98  JMP $9881
 04:98A6:18        CLC
 04:98A7:A5 14     LDA $0014 = #$00
 04:98A9:69 09     ADC #$09
 04:98AB:85 14     STA $0014 = #$00
 04:98AD:A5 15     LDA $0015 = #$00
 04:98AF:69 00     ADC #$00
 04:98B1:85 15     STA $0015 = #$00
 04:98B3:C6 18     DEC $0018 = #$00
 04:98B5:D0 BF     BNE $9876
 04:98B7:A9 00     LDA #$00
 04:98B9:85 08     STA $0008 = #$E1
 04:98BB:85 09     STA $0009 = #$00
 04:98BD:60        RTS -----------------------------------------
----------------------------------------------------------------
Function $98BE

 04:98BE:A9 73     LDA #$73
 04:98C0:85 0D     STA $000D
 04:98C2:A9 F4     LDA #$F4
 04:98C4:85 0C     STA $000C
 04:98C6:A9 00     LDA #$00
 04:98C8:85 11     STA $0011
 04:98CA:A9 19     LDA #$19
 04:98CC:85 10     STA $0010
 04:98CE:4C D1 98  JMP $98D1
 
 04:98D1:A0 02     LDY #$02
 04:98D3:38        SEC
 04:98D4:B1 02     LDA ($02),Y
 04:98D6:E5 0C     SBC $000C
 04:98D8:85 0C     STA $000C
 04:98DA:C8        INY
 04:98DB:B1 02     LDA ($02),Y
 04:98DD:E5 0D     SBC $000D
 04:98DF:85 0D     STA $000D
 04:98E1:A0 0C     LDY #$0C
 04:98E3:A2 10     LDX #$10
 04:98E5:A9 08     LDA #$08
 04:98E7:20 BA E2  JSR $E2BA
 04:98EA:60        RTS -----------------------------------------
----------------------------------------------------------------
Function $98EB

 04:98EB:20 BE 98  JSR $98BE
 04:98EE:A5 08     LDA $0008 = #$E1
 04:98F0:85 14     STA $0014 = #$00
 04:98F2:E6 14     INC $0014 = #$00
 04:98F4:A9 00     LDA #$00
 04:98F6:85 1A     STA $001A = #$0A
 04:98F8:85 18     STA $0018 = #$00
 04:98FA:A9 00     LDA #$00
 04:98FC:85 16     STA $0016 = #$5A
 04:98FE:A9 0D     LDA #$0D
 04:9900:8D 05 52  STA $5205 = #$10
 04:9903:A5 18     LDA $0018 = #$00
 04:9905:8D 06 52  STA $5206 = #$01
 04:9908:18        CLC
 04:9909:A5 16     LDA $0016 = #$5A
 04:990B:6D 05 52  ADC $5205 = #$10
 04:990E:A8        TAY
 04:990F:A9 90     LDA #$90
 04:9911:85 10     STA $0010 = #$DA
 04:9913:A9 7E     LDA #$7E
 04:9915:85 11     STA $0011 = #$BA
 04:9917:B1 10     LDA ($10),Y @ $BADB = #$D7
 04:9919:C5 14     CMP $0014 = #$00
 04:991B:D0 28     BNE $9945
 04:991D:A9 F4     LDA #$F4
 04:991F:85 10     STA $0010 = #$DA
 04:9921:A9 7D     LDA #$7D
 04:9923:85 11     STA $0011 = #$BA
 04:9925:B1 10     LDA ($10),Y @ $BADB = #$D7
 04:9927:29 2F     AND #$2F
 04:9929:D0 1A     BNE $9945
 04:992B:A5 18     LDA $0018 = #$00
 04:992D:85 10     STA $0010 = #$DA
 04:992F:A5 16     LDA $0016 = #$5A
 04:9931:0A        ASL
 04:9932:0A        ASL
 04:9933:0A        ASL
 04:9934:0A        ASL
 04:9935:05 10     ORA $0010 = #$DA
 04:9937:A2 42     LDX #$42
 04:9939:86 10     STX $0010 = #$DA
 04:993B:A2 7D     LDX #$7D
 04:993D:86 11     STX $0011 = #$BA
 04:993F:A4 1A     LDY $001A = #$0A
 04:9941:91 10     STA ($10),Y @ $BADB = #$D7
 04:9943:E6 1A     INC $001A = #$0A
 04:9945:E6 16     INC $0016 = #$5A
 04:9947:A5 16     LDA $0016 = #$5A
 04:9949:C9 0D     CMP #$0D
 04:994B:D0 B1     BNE $98FE
 04:994D:E6 18     INC $0018 = #$00
 04:994F:A5 18     LDA $0018 = #$00
 04:9951:C9 0C     CMP #$0C
 04:9953:D0 A5     BNE $98FA
 04:9955:A9 42     LDA #$42
 04:9957:85 10     STA $0010 = #$DA
 04:9959:A9 7D     LDA #$7D
 04:995B:85 11     STA $0011 = #$BA
 04:995D:A4 1A     LDY $001A = #$0A
 04:995F:A9 FF     LDA #$FF
 04:9961:91 10     STA ($10),Y @ $BADB = #$D7
 04:9963:A9 00     LDA #$00
 04:9965:85 09     STA $0009 = #$00
 04:9967:A5 1A     LDA $001A = #$0A
 04:9969:85 08     STA $0008 = #$E1
 04:996B:60        RTS -----------------------------------------
----------------------------------------------------------------
Function $996C
Args:
<0C> General

 04:996C:A0 05     LDY #$05
 04:996E:20 4A 98  JSR $984A
 
 04:9971:A9 00     LDA #$00
 04:9973:85 1A     STA $001A
 04:9975:A9 F5     LDA #$F5
 04:9977:85 14     STA $0014
 04:9979:A9 7B     LDA #$7B
 04:997B:85 15     STA $0015
 04:997D:A0 04     LDY #$04
 04:997F:B1 14     LDA ($14),Y
 04:9981:85 16     STA $0016
 04:9983:C8        INY
 04:9984:B1 14     LDA ($14),Y
 04:9986:85 17     STA $0017
 04:9988:05 16     ORA $0016 = #$5A
 04:998A:F0 08     BEQ $9994
 04:998C:A0 07     LDY #$07
 04:998E:B1 16     LDA ($16),Y @ $005B = #$05
 04:9990:D1 08     CMP ($08),Y @ $00E2 = #$0F
 04:9992:F0 12     BEQ $99A6
 04:9994:E6 1A     INC $001A = #$0A
 04:9996:18        CLC
 04:9997:A5 14     LDA $0014 = #$00
 04:9999:69 09     ADC #$09
 04:999B:85 14     STA $0014 = #$00
 04:999D:A5 15     LDA $0015 = #$00
 04:999F:69 00     ADC #$00
 04:99A1:85 15     STA $0015 = #$00
 04:99A3:4C 7D 99  JMP $997D
 04:99A6:A9 00     LDA #$00
 04:99A8:85 09     STA $0009 = #$00
 04:99AA:A5 1A     LDA $001A = #$0A
 04:99AC:85 08     STA $0008 = #$E1
 04:99AE:60        RTS -----------------------------------------
 04:99AF:A0 03     LDY #$03
 04:99B1:20 4A 98  JSR $984A
 
 04:99B4:A9 00     LDA #$00
 04:99B6:85 13     STA $0013 = #$05
 04:99B8:85 17     STA $0017 = #$00
 04:99BA:A9 14     LDA #$14
 04:99BC:85 16     STA $0016 = #$5A
 04:99BE:A0 10     LDY #$10
 04:99C0:B1 08     LDA ($08),Y @ $00E2 = #$0F
 04:99C2:85 12     STA $0012 / Loyalty
 04:99C4:F0 02     BEQ $99C8
 
 04:99C6:C6 12     DEC $0012 = #$B8
 
 04:99C8:A0 12     LDY #$12
 04:99CA:A2 16     LDX #$16
 04:99CC:A9 14     LDA #$14
 04:99CE:20 BA E2  JSR $E2BA
 
 04:99D1:E6 14     INC $0014 = #$00
 04:99D3:E6 14     INC $0014 = #$00
 04:99D5:A0 11     LDY #$11
 04:99D7:B1 08     LDA ($08),Y @ $00E2 = #$0F
 04:99D9:C5 14     CMP $0014 = #$00
 04:99DB:30 01     BMI $99DE
 04:99DD:60        RTS -----------------------------------------
 04:99DE:A5 14     LDA $0014 = #$00
 04:99E0:91 08     STA ($08),Y @ $00E2 = #$0F
 04:99E2:60        RTS -----------------------------------------
----------------------------------------------------------------
Function $99E3
Check x/y pos in $7DF4 table
return 0 if value is blank 

$10 = x-pos
$12 = y-pos

 04:99E3:A5 12     LDA $0012
 04:99E5:8D 05 52  STA $5205
 04:99E8:A9 0D     LDA #$0D
 04:99EA:8D 06 52  STA $5206
 04:99ED:18        CLC
 04:99EE:A9 F4     LDA #$F4
 04:99F0:6D 05 52  ADC $5205
 04:99F3:85 14     STA $0014
 04:99F5:A9 7D     LDA #$7D
 04:99F7:6D 06 52  ADC $5206
 04:99FA:85 15     STA $0015
 04:99FC:18        CLC
 04:99FD:A5 14     LDA $0014
 04:99FF:65 10     ADC $0010
 04:9A01:85 14     STA $0014
 04:9A03:A5 15     LDA $0015
 04:9A05:69 00     ADC #$00
 04:9A07:85 15     STA $0015   ; $14 = $7DF4 + 0xD*(y-pos) + x-pos
 
 04:9A09:A0 00     LDY #$00
 04:9A0B:B1 14     LDA ($14),Y
 04:9A0D:29 0F     AND #$0F
 04:9A0F:F0 52     BEQ $9A63   ; return false
 04:9A11:A2 00     LDX #$00
 04:9A13:C9 01     CMP #$01
 04:9A15:D0 01     BNE $9A18
 04:9A17:60        RTS -----------------------------------------
 04:9A18:4A        LSR
 04:9A19:E8        INX
 04:9A1A:4C 13 9A  JMP $9A13
 04:9A1D:60        RTS -----------------------------------------
----------------------------------------------------------------
Function $9A1E
Args:
$08 = current x-pos
$0A = current y-pos
$0C = target x-pos
$0E = target y-pos 

 04:9A1E:A0 09     LDY #$09
 04:9A20:20 4A 98  JSR $984A ; Transfer parameters from stack to memory
 
 04:9A23:A5 08     LDA $0008
 04:9A25:85 10     STA $0010 ; $10 = curX
 04:9A27:A5 0A     LDA $000A
 04:9A29:85 12     STA $0012 ; $12 = curY
 04:9A2B:20 E3 99  JSR $99E3
 04:9A2E:86 16     STX $0016 ; $16 = high bit of cur tile?
 
 04:9A30:A5 0C     LDA $000C
 04:9A32:85 10     STA $0010
 04:9A34:A5 0E     LDA $000E
 04:9A36:85 12     STA $0012
 04:9A38:20 E3 99  JSR $99E3
 04:9A3B:86 18     STX $0018 ; $18 = high bit of targ tile?
 
 04:9A3D:A9 03     LDA #$03
 04:9A3F:8D 05 52  STA $5205
 04:9A42:A5 16     LDA $0016
 04:9A44:8D 06 52  STA $5206
 04:9A47:18        CLC
 04:9A48:A9 1E     LDA #$1E
 04:9A4A:6D 05 52  ADC $5205
 04:9A4D:85 14     STA $0014
 04:9A4F:A9 7D     LDA #$7D
 04:9A51:6D 06 52  ADC $5206
 04:9A54:85 15     STA $0015 ; $14 = #$7D1E + 3*($16)
 
 Loop through list @ $14 to find match for $18: 
	 04:9A56:A0 00     LDY #$00

	 04:9A58:B1 14     LDA ($14),Y
	 04:9A5A:C5 18     CMP $0018
	 04:9A5C:F0 0C     BEQ $9A6A
	 04:9A5E:C8        INY
	 04:9A5F:C0 03     CPY #$03
	 04:9A61:D0 F5     BNE $9A58
	 
	 04:9A63:A9 00     LDA #$00
	 04:9A65:85 09     STA $0009
	 04:9A67:85 08     STA $0008 ; Return false
	 04:9A69:60        RTS -----------------------------------------
	 
 If match was found in list:
	 04:9A6A:A9 00     LDA #$00
	 04:9A6C:85 09     STA $0009
	 04:9A6E:A9 01     LDA #$01
	 04:9A70:85 08     STA $0008 ; Return true
	 04:9A72:60        RTS -----------------------------------------
----------------------------------------------------------------
String

9A74 "Mobili-\nty now\n : %d"

???

Strings
9ACC "%s\n" 
9AD0 "burned to\ndeath"
9AE0 "%s's\n"
9AE6 "army has\nbetrayed\n"
9AF9 "%s's\narmy\n"
9B04 "%s\n"
9B08 "switched\nsides\W"
9B19 "%s\W"
